
/home/zengwei/work/rk3288-android8.1/android8.1-r46/external/rk_tee_user/ta/testapp/8cccf200-2450-11e4-abe20002a5d5c52c.elf:     file format elf32-littlearm
/home/zengwei/work/rk3288-android8.1/android8.1-r46/external/rk_tee_user/ta/testapp/8cccf200-2450-11e4-abe20002a5d5c52c.elf
architecture: arm, flags 0x00000150:
HAS_SYMS, DYNAMIC, D_PAGED
start address 0x00000020

Program Header:
    LOAD off    0x00008000 vaddr 0x00000000 paddr 0x00000000 align 2**15
         filesz 0x0000a0d8 memsz 0x0000a0d8 flags rwx
    LOAD off    0x00013000 vaddr 0x0000b000 paddr 0x0000b000 align 2**15
         filesz 0x000000a4 memsz 0x0000ac00 flags rw-
    LOAD off    0x00016000 vaddr 0x00016000 paddr 0x00016000 align 2**15
         filesz 0x00000268 memsz 0x00000268 flags rw-
 DYNAMIC off    0x00016000 vaddr 0x00016000 paddr 0x00016000 align 2**2
         filesz 0x00000078 memsz 0x00000078 flags rw-

Dynamic Section:
  HASH                 0x0001621c
  STRTAB               0x00016158
  SYMTAB               0x00016078
  STRSZ                0x000000c4
  SYMENT               0x00000010
  DEBUG                0x00000000
  REL                  0x0000a008
  RELSZ                0x000000d0
  RELENT               0x00000008
  RELCOUNT             0x00000013
private flags = 5000002: [Version5 EABI] [has entry point]

Sections:
Idx Name          Size      VMA       LMA       File off  Algn
  0 .ta_head      00000020  00000000  00000000  00008000  2**3
                  CONTENTS, ALLOC, LOAD, DATA
  1 .text         00008888  00000020  00000020  00008020  2**3
                  CONTENTS, ALLOC, LOAD, READONLY, CODE
  2 .rodata       00001737  000088a8  000088a8  000108a8  2**2
                  CONTENTS, ALLOC, LOAD, READONLY, DATA
  3 .got          00000028  00009fe0  00009fe0  00011fe0  2**2
                  CONTENTS, ALLOC, LOAD, DATA
  4 .dynsym       000000e0  00016078  00016078  00016078  2**2
                  CONTENTS, ALLOC, LOAD, READONLY, DATA
  5 .rel.got      00000038  0000a0a0  0000a0a0  000120a0  2**2
                  CONTENTS, ALLOC, LOAD, READONLY, DATA
  6 .data         000000a4  0000b000  0000b000  00013000  2**2
                  CONTENTS, ALLOC, LOAD, DATA
  7 .bss          0000ab5c  0000b0a4  0000b0a4  000130a4  2**2
                  ALLOC
  8 .dynamic      00000078  00016000  00016000  00016000  2**2
                  CONTENTS, ALLOC, LOAD, DATA
  9 .dynstr       000000c4  00016158  00016158  00016158  2**0
                  CONTENTS, ALLOC, LOAD, READONLY, DATA
 10 .hash         0000004c  0001621c  0001621c  0001621c  2**2
                  CONTENTS, ALLOC, LOAD, READONLY, DATA
 11 .debug_info   0000b2c1  00000000  00000000  00016268  2**0
                  CONTENTS, READONLY, DEBUGGING
 12 .debug_abbrev 0000336d  00000000  00000000  00021529  2**0
                  CONTENTS, READONLY, DEBUGGING
 13 .debug_aranges 000004e8  00000000  00000000  00024898  2**3
                  CONTENTS, READONLY, DEBUGGING
 14 .debug_macro  0000463e  00000000  00000000  00024d80  2**0
                  CONTENTS, READONLY, DEBUGGING
 15 .debug_line   00005b4e  00000000  00000000  000293be  2**0
                  CONTENTS, READONLY, DEBUGGING
 16 .debug_str    0000bb64  00000000  00000000  0002ef0c  2**0
                  CONTENTS, READONLY, DEBUGGING
 17 .comment      0000007f  00000000  00000000  0003aa70  2**0
                  CONTENTS, READONLY
 18 .ARM.attributes 0000003a  00000000  00000000  0003aaef  2**0
                  CONTENTS, READONLY
 19 .debug_frame  00002270  00000000  00000000  0003ab2c  2**2
                  CONTENTS, READONLY, DEBUGGING
 20 .rel.dyn      00000098  0000a008  0000a008  00012008  2**2
                  CONTENTS, ALLOC, LOAD, READONLY, DATA
 21 .debug_loc    00003544  00000000  00000000  0003cd9c  2**0
                  CONTENTS, READONLY, DEBUGGING
 22 .debug_ranges 000001e8  00000000  00000000  000402e0  2**0
                  CONTENTS, READONLY, DEBUGGING
SYMBOL TABLE:
00000000 l    d  .ta_head	00000000 .ta_head
00000020 l    d  .text	00000000 .text
000088a8 l    d  .rodata	00000000 .rodata
00009fe0 l    d  .got	00000000 .got
0000a0a0 l    d  .rel.got	00000000 .rel.got
0000b000 l    d  .data	00000000 .data
0000b0a4 l    d  .bss	00000000 .bss
00016000 l    d  .dynamic	00000000 .dynamic
00016078 l    d  .dynsym	00000000 .dynsym
00016158 l    d  .dynstr	00000000 .dynstr
0001621c l    d  .hash	00000000 .hash
00000000 l    d  .debug_info	00000000 .debug_info
00000000 l    d  .debug_abbrev	00000000 .debug_abbrev
00000000 l    d  .debug_aranges	00000000 .debug_aranges
00000000 l    d  .debug_macro	00000000 .debug_macro
00000000 l    d  .debug_line	00000000 .debug_line
00000000 l    d  .debug_str	00000000 .debug_str
00000000 l    d  .comment	00000000 .comment
00000000 l    d  .ARM.attributes	00000000 .ARM.attributes
00000000 l    d  .debug_frame	00000000 .debug_frame
0000a008 l    d  .rel.dyn	00000000 .rel.dyn
00000000 l    d  .debug_loc	00000000 .debug_loc
00000000 l    d  .debug_ranges	00000000 .debug_ranges
00000000 l    df *ABS*	00000000 user_ta_header.c
0000898c l     O .rodata	00000001 __compound_literal.0
0000898d l     O .rodata	00000001 __compound_literal.1
0000898e l     O .rodata	00000001 __compound_literal.2
00008990 l     O .rodata	00000004 __compound_literal.3
00008994 l     O .rodata	00000004 __compound_literal.4
00000000 l    df *ABS*	00000000 testapp_ta.c
0000892c l     O .rodata	00000019 __func__.4794
00008948 l     O .rodata	0000001a __func__.4798
00008964 l     O .rodata	0000001b __func__.4809
00000000 l    df *ABS*	00000000 tee_api.c
00009cf8 l     O .rodata	00000013 __func__.5318
00009d0b l     O .rodata	00000014 __func__.5330
00009d1f l     O .rodata	00000017 __func__.5341
00009d36 l     O .rodata	00000015 __func__.5347
00009d4b l     O .rodata	00000012 __func__.5380
00009d5d l     O .rodata	00000009 __func__.5385
00009d66 l     O .rodata	00000018 __func__.5390
00009d7e l     O .rodata	00000018 __func__.5395
00009d96 l     O .rodata	0000000f __func__.5400
000130a4 l     O .bss	00000004 tee_api_instance_data
00000000 l    df *ABS*	00000000 user_ta_entry.c
000005d4 l     F .text	0000001c ta_header_get_session
000005f0 l     F .text	00000050 ta_header_remove_session
00000640 l     F .text	00000014 ta_header_save_params.part.0
00009db0 l     O .rodata	0000000d __func__.5344
0000b084 l     O .data	00000008 ta_sessions
000130a8 l     O .bss	00000004 ta_ref_count
000130cc l     O .bss	00000001 context_init
00000000 l    df *ABS*	00000000 utee_syscalls_a32.o
00000000 l    df *ABS*	00000000 tee_user_mem.c
00000e3c l     F .text	00000038 print_buf
00000e74 l     F .text	000000ac check_elem
00009dbd l     O .rodata	0000000b __func__.4933
00009dc8 l     O .rodata	0000000f __func__.4928
00009dd7 l     O .rodata	00000013 __func__.4952
00009dea l     O .rodata	00000012 __func__.4969
00009dfc l     O .rodata	00000018 __func__.4977
00009e14 l     O .rodata	00000014 __func__.4982
000130d4 l     O .bss	00000004 heap_level
000130d8 l     O .bss	00000008 global_stats
00000000 l    df *ABS*	00000000 assert.c
00009f09 l     O .rodata	0000000c __func__.5129
00000000 l    df *ABS*	00000000 tee_api_arith.c
000016b0 l     F .text	0000003c TEE_BigInt_Panic
00009f34 l     O .rodata	00000011 __func__.5121
00009f45 l     O .rodata	0000001f __func__.5166
000130e0 l     O .bss	00001b00 mempool_u32
00000000 l    df *ABS*	00000000 trace_ext.c
00009fbf l     O .rodata	0000000a prefix.4656
00009fc9 l     O .rodata	00000011 failed.4657
00000000 l    df *ABS*	00000000 bget_malloc.c
0000b094 l     O .data	00000010 freelist
00014be0 l       .bss	00000000 totalloc
00014be4 l       .bss	00000000 numget
00014be8 l       .bss	00000000 numrel
00001f98 l     F .text	0000000e malloc_lock
00001fa8 l     F .text	0000000e malloc_unlock
00014bec l       .bss	00000000 malloc_pool
00014bf0 l       .bss	00000000 malloc_pool_len
00014bf4 l       .bss	00000000 max_alloc_heap
00001fb8 l     F .text	00000040 raw_malloc_save_max_alloced_size
000020bc l     F .text	0000000e raw_malloc_validate_pools
000020cc l     F .text	0000002c bpool_foreach_iterator_init
000020f8 l     F .text	000000c4 bpool_foreach_pool
000021bc l     F .text	00000070 bpool_foreach
0000222c l     F .text	00000050 raw_malloc
0000227c l     F .text	00000020 raw_free
0000229c l     F .text	0000005e raw_calloc
000022fc l     F .text	00000052 raw_realloc
00002350 l     F .text	00000144 create_free_block
00002494 l     F .text	00000138 brel_before
000025cc l     F .text	000001ec brel_after
000027b8 l     F .text	00000128 raw_memalign
000028e0 l     F .text	00000050 bget_buf_size
000029a4 l     F .text	00000022 realloc_unlocked
00002a1c l     F .text	00000024 get_payload_start_size
00000000 l    df *ABS*	00000000 snprintf.c
00000000 l    df *ABS*	00000000 memcmp.c
00000000 l    df *ABS*	00000000 memcpy.c
00000000 l    df *ABS*	00000000 memmove.c
00000000 l    df *ABS*	00000000 memset.c
00000000 l    df *ABS*	00000000 strlen.c
00000000 l    df *ABS*	00000000 snprintk.c
00008e5c l     O .rodata	00000011 hexdigits
00008e70 l     O .rodata	00000011 HEXDIGITS
00003264 l     F .text	00000cac kprintf
000031bc l     F .text	000000a8 uuid2str
00000000 l    df *ABS*	00000000 strlcpy.c
00000000 l    df *ABS*	00000000 trace.c
00003fe8 l     F .text	00000054 trace_level_to_string
00008f04 l     O .rodata	00000014 lvl_strs.4195
00000000 l    df *ABS*	00000000 memchr.c
00000000 l    df *ABS*	00000000 arm32_aeabi_ldivmod_a32.o
00000000 l    df *ABS*	00000000 arm32_aeabi_ldivmod.c
00004308 l     F .text	000000ec division_lqr
000043f4 l     F .text	0000005a ul_div_qr
00000000 l    df *ABS*	00000000 mpa_misc.c
00000000 l    df *ABS*	00000000 mpa_montgomery.c
00000000 l    df *ABS*	00000000 mpa_primetest.c
00009b80 l     O .rodata	00000008 const_small_prime_factors
00009c38 l     O .rodata	00000008 const_miller_rabin_proof_limit
00009c48 l     O .rodata	00000008 const_two
00004ce4 l     F .text	0000008c is_small_prime
00004d70 l     F .text	00000060 has_small_factors
00004dd0 l     F .text	00000294 primality_test_miller_rabin
00004cb0 l     F .text	00000034 check_table
00009c54 l     O .rodata	0000001c proof_a.4564
00000000 l    df *ABS*	00000000 mpa_conv.c
00000000 l    df *ABS*	00000000 mpa_div.c
00005198 l     F .text	000000d6 __mpa_soft_div
000052c4 l     F .text	00000578 __mpa_div_q_r_internal
00000000 l    df *ABS*	00000000 mpa_gcd.c
00005b4c l     F .text	000000ce __mpa_divby2
00005c1c l     F .text	000002f0 __mpa_egcd
00005f0c l     F .text	0000015a __mpa_gcd
00000000 l    df *ABS*	00000000 mpa_mem_static.c
00000000 l    df *ABS*	00000000 mpa_mul.c
00000000 l    df *ABS*	00000000 mpa_random.c
00014bf8 l       .bss	00000000 get_rng_array
0000691c l     F .text	0000002c get_random_byte
00000000 l    df *ABS*	00000000 mpa_shift.c
00000000 l    df *ABS*	00000000 mpa_addsub.c
00000000 l    df *ABS*	00000000 mpa_cmp.c
00000000 l    df *ABS*	00000000 mpa_expmod.c
00000000 l    df *ABS*	00000000 mpa_init.c
00000000 l    df *ABS*	00000000 mpa_io.c
00007d58 l     F .text	0000003c __mpa_isspace
00007d94 l     F .text	00000076 __mpa_is_char_in_base
00007e0c l     F .text	0000004e __mpa_digit_value
00007e5c l     F .text	0000001c __mpa_digitstr_to_binary_wsize_base_16
00007e78 l     F .text	00000048 __mpa_nibble_to_char
00007ec0 l     F .text	00000056 __mpa_word_to_hexstr
00007f18 l     F .text	00000102 __mpa_mpanum_to_hexstr
0000801c l     F .text	00000044 __mpa_count_leading_zero_bits
00008060 l     F .text	00000054 __mpa_size_in_base_255
00014bfc l       .bss	00000000 buf.4601
000083f4 l     F .text	00000056 set_word
00008518 l     F .text	0000003a get_word
00000000 l    df *ABS*	00000000 mpa_modulus.c
00000000 l    df *ABS*	00000000 tee_api_panic.c
00000000 l    df *ABS*	00000000 utee_misc.c
00000000 l    df *ABS*	00000000 
00016000 l     O *ABS*	00000000 _DYNAMIC
00009fe0 l     O *ABS*	00000000 _GLOBAL_OFFSET_TABLE_
00008868 l     F .text	00000010 __utee_cache_operation_from_thumb
00008878 l     F .text	00000010 __utee_check_access_rights_from_thumb
00008888 l     F .text	00000010 __utee_cryp_random_number_generate_from_thumb
00008898 l     F .text	00000010 __utee_log_from_thumb
00000dbc g     F .text	00000018 utee_se_channel_transmit
00007c9c g     F .text	0000003c mpa_init_static
00004618 g     F .text	00000046 mpa_copy
00001624 g     F .text	00000020 TEE_BigIntConvertToFMM
00001560 g     F .text	00000008 TEE_BigIntSquareMod
0000133c g     F .text	00000004 TEE_BigIntShiftRight
000050a8 g     F .text	0000008e mpa_get_S32
0000468c g     F .text	0000006e mpa_highest_bit_index
00000bac g     F .text	00000018 utee_storage_obj_create
000044c4 g     F .text	000000ea __l_divmod
00000d80 g     F .text	00000014 utee_se_session_close
00000818 g     F .text	00000014 utee_return
00001ff8 g     F .text	00000020 malloc_reset_max_allocated
00000cdc g     F .text	00000014 utee_se_service_get_readers
000005b8 g     F .text	00000004 TEE_Realloc
0000583c g     F .text	00000114 __mpa_div_q_r_internal_word
000010c8 g     F .text	00000068 tee_user_mem_realloc
00002068 g     F .text	00000054 malloc_get_heap_size
000074a8 g     F .text	000001e4 mpa_sub
0000171c g     F .text	0000007c printf
00000fe8 g     F .text	000000e0 tee_user_mem_free
0000082c g     F .text	00000014 utee_log
00008f44 g     O .rodata	00000004 NR_STORED_PRIMES
000002f4 g     F .text	00000084 TEE_InvokeTACommand
0000475c g     F .text	00000030 mpa_can_hold
00006620 g     F .text	00000098 __mpa_abs_mul_word
00004c14 g     F .text	0000004a mpa_montgomery_mul
00003128 g     F .text	0000002a vsnprintk
0000478c g     F .text	00000028 mpa_parity
00002e68 g     F .text	00000116 memmove
00006fe0 g     F .text	00000062 __mpa_full_adder_ackum
00002c90 g     F .text	00000038 snprintf
00001338 g     F .text	00000004 TEE_BigIntCmpS32
00001358 g     F .text	0000000c TEE_BigIntAdd
00000e14 g     F .text	00000014 utee_get_property_name_to_index
00008988 g     O .rodata	00000004 ta_heap_size
00008f40 g     O .rodata	00000004 MAX_TABULATED_PRIME
0000884c g     F .text	00000004 utee_malloc
00000964 g     F .text	00000018 utee_cryp_state_alloc
00000b34 g     F .text	00000018 utee_authenc_enc_final
0000659c g     F .text	00000084 __mpa_mul_add_word_cum
00001370 g     F .text	00000004 TEE_BigIntNeg
00005a7c g     F .text	000000ce mpa_div
00008f34 g     O .rodata	00000008 const_one
00002be8 g     F .text	000000a8 malloc_buffer_overlaps_heap
00007a28 g     F .text	00000022 __mpa_abs_less_than
00001484 g     F .text	00000060 TEE_BigIntSubMod
0000b010 g     O .data	0000001a output
00006948 g     F .text	00000112 mpa_get_random
00008862 g     F .text	00000004 get_rng_array
0000403c g     F .text	00000194 trace_printf
00000cb4 g     F .text	00000014 utee_se_service_open
00002d98 g     F .text	000000d0 memcpy
00000990 g     F .text	00000014 utee_cryp_state_free
000045ec g     F .text	0000002c mpa_wipe
00001644 g     F .text	00000050 TEE_BigIntConvertFromFMM
00008842 g     F .text	00000006 TEE_Panic
00000da8 g     F .text	00000014 utee_se_channel_get_select_resp
000042f0 g     F .text	00000018 __aeabi_uldivmod
00001706 g     F .text	00000016 puts
00001694 g     F .text	0000001c TEE_BigIntComputeFMM
00005138 g     F .text	0000002e mpa_set_word
00006ba0 g     F .text	000001d6 mpa_shift_left
00000a10 g     F .text	00000018 utee_cipher_final
0000679c g     F .text	000000b6 mpa_mul
00000574 g     F .text	00000040 TEE_GetREETime
0000b030 g     O .data	00000054 ta_props
00002930 g     F .text	00000028 malloc
00000a78 g     F .text	00000014 utee_cryp_obj_close
00000d18 g     F .text	00000014 utee_se_reader_open_session
00002cc8 g     F .text	0000002a vsnprintf
0000b02c g     O .data	00000004 trace_level
00008848 g     F .text	00000004 utee_get_ta_exec_id
00001334 g     F .text	00000004 TEE_BigIntCmp
00008850 g     F .text	00000004 utee_realloc
00008a54 g     O .rodata	00000004 ta_num_props
00001a38 g     F .text	00000088 bgetr
00000b1c g     F .text	00000018 utee_authenc_update_payload
000012c4 g     F .text	00000058 TEE_BigIntConvertToOctetString
00000de8 g     F .text	00000014 utee_cache_operation
00000af0 g     F .text	00000018 utee_authenc_init
00001340 g     F .text	0000000e TEE_BigIntGetBit
00008980 g     O .rodata	00000008 trace_ext_prefix
00007044 g     F .text	00000102 __mpa_abs_add
000019b8 g     F .text	00000080 bgetz
0000042c g     F .text	0000000c TEE_GetInstanceData
00000484 g     F .text	00000044 TEE_Wait
00000880 g     F .text	00000014 utee_nocall
00000c64 g     F .text	00000014 utee_storage_obj_write
000064a0 g     F .text	00000088 mpa_free_static_temp_var
00002040 g     F .text	00000028 malloc_get_allocated
00004c60 g     F .text	0000004e mpa_is_prob_prime
00000dd4 g     F .text	00000014 utee_se_channel_close
00006854 g     F .text	000000a2 mpa_mul_word
000005c6 g     F .text	00000006 TEE_CacheFlush
00000034 g     F .text	0000000e TA_DestroyEntryPoint
000011f8 g     F .text	0000002c _assert_log
000012a4 g     F .text	0000000a TEE_BigIntFMMContextSizeInU32
0000000c g       *ABS*	00000000 linker_RW_sections_size
00005950 g     F .text	0000012c __mpa_div_q_r
00001230 g     F .text	00000034 _TEE_MathAPI_Init
00000c3c g     F .text	00000014 utee_storage_next_enum
0000b0a4 g     O .bss	00008000 ta_heap
00001568 g     F .text	00000044 TEE_BigIntInvMod
00000090 g     F .text	00000030 TA_CloseSessionEntryPoint
0000097c g     F .text	00000014 utee_cryp_state_copy
000000c0 g     F .text	00000110 TA_InvokeCommandEntryPoint
0000844c g     F .text	000000cc mpa_set_oct_str
00000d68 g     F .text	00000018 utee_se_session_open_channel
00006a5c g     F .text	0000009e __mpa_shift_words_left
00000a64 g     F .text	00000014 utee_cryp_obj_alloc
00000950 g     F .text	00000014 utee_set_ta_time
00000a50 g     F .text	00000014 utee_cryp_obj_get_attr
000048ec g     F .text	00000102 __mpa_montgomery_sub_ack
00002978 g     F .text	0000002c calloc
000005b4 g     F .text	00000004 TEE_Malloc
00000914 g     F .text	00000014 utee_mask_cancellation
00000a8c g     F .text	00000014 utee_cryp_obj_reset
00000414 g     F .text	0000000a TEE_CheckMemoryAccessRights
00004450 g     F .text	00000072 __ul_divmod
0000768c g     F .text	00000024 mpa_neg
00008f48 g     O .rodata	00000c38 PRIME_TABLE
00000044 g     F .text	0000004c TA_OpenSessionEntryPoint
00006068 g     F .text	000000d8 mpa_gcd
00004660 g     F .text	0000002c mpa_abs
00000c28 g     F .text	00000014 utee_storage_start_enum
000080c8 g     F .text	000002ac mpa_set_str
00000bd8 g     F .text	00000014 utee_storage_obj_rename
000130d0 g     O .bss	00000004 ta_param_types
00001604 g     F .text	00000020 TEE_BigIntIsProbablePrime
0000647c g     F .text	00000024 mpa_alloc_static_temp_var
000068f8 g     F .text	00000024 mpa_set_random_generator
00000dfc g     F .text	00000018 utee_get_property
00001264 g     F .text	00000004 TEE_BigIntInit
00000438 g     F .text	00000004 TEE_MemMove
000012ae g     F .text	00000016 TEE_BigIntConvertFromOctetString
000041ec g     F .text	000000ea memchr
00000394 g     F .text	00000040 TEE_UnmaskCancellation
00008714 g     F .text	0000004c mpa_mul_mod
00000bc4 g     F .text	00000014 utee_storage_obj_del
00000c8c g     F .text	00000014 utee_storage_obj_seek
00004afc g     F .text	00000118 mpa_compute_fmm_context
000009b8 g     F .text	00000014 utee_hash_update
000062fc g     F .text	00000040 mpa_init_scratch_mem_sync
000013cc g     F .text	00000058 TEE_BigIntMod
00000d94 g     F .text	00000014 utee_se_channel_select_next
000008ac g     F .text	00000014 utee_close_ta_session
00001390 g     F .text	0000003c TEE_BigIntDiv
00003f10 g     F .text	00000070 strlcpy
000009f8 g     F .text	00000018 utee_cipher_update
00000d54 g     F .text	00000014 utee_se_session_get_atr
000029c8 g     F .text	00000028 realloc
00007148 g     F .text	000000be __mpa_abs_add_ackum
00000b7c g     F .text	00000018 utee_asymm_verify
00001374 g     F .text	0000000c TEE_BigIntMul
00005168 g     F .text	0000002e mpa_get_word
00000440 g     F .text	00000004 TEE_MemFill
00002cf4 g     F .text	000000a2 memcmp
00002a40 g     F .text	00000114 malloc_add_pool
00003fc4 g     F .text	00000024 trace_get_level
00000adc g     F .text	00000014 utee_cryp_random_number_generate
0000129c g     F .text	00000008 TEE_BigIntFMMSizeInU32
00001268 g     F .text	0000000e TEE_BigIntInitFMM
00000b64 g     F .text	00000018 utee_asymm_operate
00000654 g     F .text	000001c4 __utee_entry
000015ac g     F .text	00000040 TEE_BigIntRelativePrime
0000000c g       *ABS*	00000000 linker_RO_sections_size
00001dcc g     F .text	00000110 bpool
00005064 g     F .text	00000044 mpa_set_S32
00007cd8 g     F .text	00000080 mpa_init_static_fmm_context
00000378 g     F .text	0000001c TEE_GetCancellationFlag
00000cc8 g     F .text	00000014 utee_se_service_close
00000f20 g     F .text	000000c8 tee_user_mem_alloc
0000b08c g     O .data	00000008 user_mem_head
00000528 g     F .text	0000004c TEE_SetTAPersistentTime
000076b0 g     F .text	00000134 mpa_add_word
00000cf0 g     F .text	00000014 utee_se_reader_get_prop
00002f80 g     F .text	000000f6 memset
000004c8 g     F .text	00000060 TEE_GetTAPersistentTime
000041d0 g     F .text	0000001a dhex_dump
000003d4 g     F .text	00000040 TEE_MaskCancellation
00006f7c g     F .text	00000064 __mpa_full_sub
00000c50 g     F .text	00000014 utee_storage_obj_read
00008854 g     F .text	0000000a utee_calloc
00000aa0 g     F .text	00000014 utee_cryp_obj_populate
00007a4c g     F .text	0000007e mpa_cmp
00008760 g     F .text	000000dc mpa_inv_mod
000077e4 g     F .text	00000138 mpa_sub_word
00006528 g     F .text	00000074 __mpa_mul_add_word
000072e8 g     F .text	000001be mpa_add
00007b68 g     F .text	00000134 mpa_exp_mod
00006afc g     F .text	000000a2 __mpa_shift_words_right
00003f80 g     F .text	00000044 trace_set_level
00000d40 g     F .text	00000014 utee_se_session_is_closed
00000a28 g     F .text	00000014 utee_cryp_obj_get_info
00000bec g     F .text	00000014 utee_storage_alloc_enum
00000c14 g     F .text	00000014 utee_storage_reset_enum
00000c78 g     F .text	00000014 utee_storage_obj_trunc
00008654 g     F .text	00000026 mpa_mod
00007a00 g     F .text	00000028 __mpa_abs_greater_than
00001320 g     F .text	00000014 TEE_BigIntConvertToS32
00001364 g     F .text	0000000c TEE_BigIntSub
000008d8 g     F .text	00000014 utee_get_cancellation_flag
000009a4 g     F .text	00000014 utee_hash_init
000001d0 g     F .text	00000012 tahead_get_trace_level
000001e4 g     F .text	00000050 __utee_from_param
00008f24 g     O .rodata	00000008 Const_1_LShift_Base
00000234 g     F .text	00000040 __utee_to_param
000029f0 g     F .text	0000002c memalign
0000131c g     F .text	00000004 TEE_BigIntConvertFromS32
000086c8 g     F .text	0000004c mpa_sub_mod
00000a3c g     F .text	00000014 utee_cryp_obj_restrict_usage
00002b54 g     F .text	00000092 malloc_buffer_is_within_alloced
00000ab4 g     F .text	00000014 utee_cryp_obj_copy
00000868 g     F .text	00000018 utee_dummy_7args
00006d78 g     F .text	0000019e mpa_shift_right
00001276 g     F .text	00000026 TEE_BigIntInitFMMContext
00000ac8 g     F .text	00000014 utee_cryp_derive_key
000049f0 g     F .text	0000010c __mpa_montgomery_mul
00008554 g     F .text	00000100 mpa_get_oct_str
00007acc g     F .text	0000009c mpa_cmp_short
00000b4c g     F .text	00000018 utee_authenc_dec_final
0000791c g     F .text	000000e4 __mpa_abs_cmp
00001380 g     F .text	00000010 TEE_BigIntSquare
00000020 g     F .text	00000012 TA_CreateEntryPoint
000030f4 g     F .text	00000034 snprintk
0000134e g     F .text	0000000a TEE_BigIntGetBitCount
000014e4 g     F .text	0000007c TEE_BigIntMulMod
0000883c g     F .text	00000006 __TEE_Panic
000130ac g     O .bss	00000020 ta_params
000066b8 g     F .text	000000e2 __mpa_abs_mul
00001798 g     F .text	00000220 bget
000005bc g     F .text	00000004 TEE_Free
00000d04 g     F .text	00000014 utee_se_reader_get_name
000005cc g     F .text	00000006 TEE_CacheInvalidate
000009e4 g     F .text	00000014 utee_cipher_init
00001224 g     F .text	0000000c _assert_break
00001424 g     F .text	00000060 TEE_BigIntAddMod
00000c00 g     F .text	00000014 utee_storage_free_enum
00000b08 g     F .text	00000014 utee_authenc_update_aad
000046fc g     F .text	0000005e mpa_get_bit
0000b000 g     O .data	0000000f str
0000633c g     F .text	00000028 mpa_init_scratch_mem
0000043c g     F .text	00000004 TEE_MemCompare
00003154 g     F .text	00000068 __vsnprintf
00000840 g     F .text	00000014 utee_panic
00000274 g     F .text	00000044 TEE_OpenTASession
000016ec g     F .text	00000014 trace_ext_puts
00000e28 g     F .text	00000014 utee_cryp_random_number_add_entropy
000011b0 g     F .text	00000048 tee_user_mem_garbage
00001700 g     F .text	00000006 trace_ext_get_thread_id
000005c0 g     F .text	00000006 TEE_CacheClean
00000894 g     F .text	00000018 utee_open_ta_session
00005270 g     F .text	00000052 __mpa_div_dword
000045b0 g     F .text	0000003a __mpa_set_unused_digits_to_zero
00008f18 g     O .rodata	00000008 const_largest_deci_base
000080b4 g     F .text	00000014 mpa_get_str_size
00001140 g     F .text	00000070 tee_user_mem_check_heap
0000000c g       *ABS*	00000000 linker_res_funcs_ZI_sections_size
000009cc g     F .text	00000018 utee_hash_final
00003078 g     F .text	0000007a strlen
000015ec g     F .text	00000018 TEE_BigIntComputeExtendedGcd
00006140 g     F .text	000001ba mpa_extended_gcd
0000867c g     F .text	0000004c mpa_add_mod
0000000c g       *ABS*	00000000 linker_rel_dyn_GOT
00000b94 g     F .text	00000018 utee_storage_obj_open
000008c0 g     F .text	00000018 utee_invoke_ta_command
00008374 g     F .text	00000080 mpa_get_str
00000928 g     F .text	00000014 utee_wait
00000854 g     F .text	00000014 utee_dummy
0000885e g     F .text	00000004 utee_free
00001130 g     F .text	00000010 tee_user_mem_mark_heap
00000444 g     F .text	00000040 TEE_GetSystemTime
00000000 g     O .ta_head	00000020 ta_head
00001ac0 g     F .text	0000030c brel
00006364 g     F .text	00000116 mpa_alloc_static_temp_var_size
0000093c g     F .text	00000014 utee_get_time
000047cc g     F .text	00000120 __mpa_montgomery_mul_add
0000041e g     F .text	0000000e TEE_SetInstanceData
00000900 g     F .text	00000014 utee_unmask_cancellation
000042d8 g     F .text	00000000 __aeabi_ldivmod
000008ec g     F .text	00000014 utee_check_access_rights
00000d2c g     F .text	00000014 utee_se_reader_close_sessions
00000ca0 g     F .text	00000014 utee_cryp_obj_generate_key
000047b4 g     F .text	00000018 mpa_constant_one
000002b8 g     F .text	0000003c TEE_CloseTASession
00002018 g     F .text	00000028 malloc_get_max_allocated
00006f18 g     F .text	00000062 __mpa_full_adder
00007208 g     F .text	000000de __mpa_abs_sub
00002958 g     F .text	0000001e free
00001edc g     F .text	000000bc bstats



Disassembly of section .text:

00000020 <TA_CreateEntryPoint>:
TA_CreateEntryPoint():
/home/zengwei/work/rk3288-android8.1/android8.1-r46/external/rk_tee_user/ta/testapp/testapp_ta.c:26
      20:	b081      	sub	sp, #4
      22:	9700      	str	r7, [sp, #0]
      24:	af00      	add	r7, sp, #0
/home/zengwei/work/rk3288-android8.1/android8.1-r46/external/rk_tee_user/ta/testapp/testapp_ta.c:27
      26:	2300      	movs	r3, #0
/home/zengwei/work/rk3288-android8.1/android8.1-r46/external/rk_tee_user/ta/testapp/testapp_ta.c:28
      28:	4618      	mov	r0, r3
      2a:	46bd      	mov	sp, r7
      2c:	f85d 7b04 	ldr.w	r7, [sp], #4
      30:	4770      	bx	lr
      32:	bf00      	nop

00000034 <TA_DestroyEntryPoint>:
TA_DestroyEntryPoint():
/home/zengwei/work/rk3288-android8.1/android8.1-r46/external/rk_tee_user/ta/testapp/testapp_ta.c:35
      34:	b081      	sub	sp, #4
      36:	9700      	str	r7, [sp, #0]
      38:	af00      	add	r7, sp, #0
/home/zengwei/work/rk3288-android8.1/android8.1-r46/external/rk_tee_user/ta/testapp/testapp_ta.c:36
      3a:	46bd      	mov	sp, r7
      3c:	f85d 7b04 	ldr.w	r7, [sp], #4
      40:	4770      	bx	lr
      42:	bf00      	nop

00000044 <TA_OpenSessionEntryPoint>:
TA_OpenSessionEntryPoint():
/home/zengwei/work/rk3288-android8.1/android8.1-r46/external/rk_tee_user/ta/testapp/testapp_ta.c:45
      44:	b082      	sub	sp, #8
      46:	e9cd 7e00 	strd	r7, lr, [sp]
      4a:	b088      	sub	sp, #32
      4c:	af02      	add	r7, sp, #8
      4e:	60f8      	str	r0, [r7, #12]
      50:	60b9      	str	r1, [r7, #8]
      52:	607a      	str	r2, [r7, #4]
/home/zengwei/work/rk3288-android8.1/android8.1-r46/external/rk_tee_user/ta/testapp/testapp_ta.c:46
      54:	2300      	movs	r3, #0
      56:	617b      	str	r3, [r7, #20]
/home/zengwei/work/rk3288-android8.1/android8.1-r46/external/rk_tee_user/ta/testapp/testapp_ta.c:50
      58:	68fa      	ldr	r2, [r7, #12]
      5a:	697b      	ldr	r3, [r7, #20]
      5c:	429a      	cmp	r2, r3
      5e:	d003      	beq.n	68 <TA_OpenSessionEntryPoint+0x24>
/home/zengwei/work/rk3288-android8.1/android8.1-r46/external/rk_tee_user/ta/testapp/testapp_ta.c:51
      60:	2306      	movs	r3, #6
      62:	f6cf 73ff 	movt	r3, #65535	; 0xffff
      66:	e00b      	b.n	80 <TA_OpenSessionEntryPoint+0x3c>
/home/zengwei/work/rk3288-android8.1/android8.1-r46/external/rk_tee_user/ta/testapp/testapp_ta.c:61
      68:	4b07      	ldr	r3, [pc, #28]	; (88 <TA_OpenSessionEntryPoint+0x44>)
      6a:	447b      	add	r3, pc
      6c:	9300      	str	r3, [sp, #0]
      6e:	4b07      	ldr	r3, [pc, #28]	; (8c <TA_OpenSessionEntryPoint+0x48>)
      70:	447b      	add	r3, pc
      72:	4618      	mov	r0, r3
      74:	213d      	movs	r1, #61	; 0x3d
      76:	2202      	movs	r2, #2
      78:	2301      	movs	r3, #1
      7a:	f003 ffdf 	bl	403c <trace_printf>
/home/zengwei/work/rk3288-android8.1/android8.1-r46/external/rk_tee_user/ta/testapp/testapp_ta.c:63
      7e:	2300      	movs	r3, #0
/home/zengwei/work/rk3288-android8.1/android8.1-r46/external/rk_tee_user/ta/testapp/testapp_ta.c:64
      80:	4618      	mov	r0, r3
      82:	3718      	adds	r7, #24
      84:	46bd      	mov	sp, r7
      86:	bd80      	pop	{r7, pc}
      88:	0000883a 	.word	0x0000883a
      8c:	000088b8 	.word	0x000088b8

00000090 <TA_CloseSessionEntryPoint>:
TA_CloseSessionEntryPoint():
/home/zengwei/work/rk3288-android8.1/android8.1-r46/external/rk_tee_user/ta/testapp/testapp_ta.c:71
      90:	b082      	sub	sp, #8
      92:	e9cd 7e00 	strd	r7, lr, [sp]
      96:	b084      	sub	sp, #16
      98:	af02      	add	r7, sp, #8
      9a:	6078      	str	r0, [r7, #4]
/home/zengwei/work/rk3288-android8.1/android8.1-r46/external/rk_tee_user/ta/testapp/testapp_ta.c:73
      9c:	4b06      	ldr	r3, [pc, #24]	; (b8 <TA_CloseSessionEntryPoint+0x28>)
      9e:	447b      	add	r3, pc
      a0:	9300      	str	r3, [sp, #0]
      a2:	4b06      	ldr	r3, [pc, #24]	; (bc <TA_CloseSessionEntryPoint+0x2c>)
      a4:	447b      	add	r3, pc
      a6:	4618      	mov	r0, r3
      a8:	2149      	movs	r1, #73	; 0x49
      aa:	2202      	movs	r2, #2
      ac:	2301      	movs	r3, #1
      ae:	f003 ffc5 	bl	403c <trace_printf>
/home/zengwei/work/rk3288-android8.1/android8.1-r46/external/rk_tee_user/ta/testapp/testapp_ta.c:74
      b2:	3708      	adds	r7, #8
      b4:	46bd      	mov	sp, r7
      b6:	bd80      	pop	{r7, pc}
      b8:	0000881a 	.word	0x0000881a
      bc:	000088a0 	.word	0x000088a0

000000c0 <TA_InvokeCommandEntryPoint>:
TA_InvokeCommandEntryPoint():
/home/zengwei/work/rk3288-android8.1/android8.1-r46/external/rk_tee_user/ta/testapp/testapp_ta.c:83
      c0:	b082      	sub	sp, #8
      c2:	e9cd 7e00 	strd	r7, lr, [sp]
      c6:	b088      	sub	sp, #32
      c8:	af02      	add	r7, sp, #8
      ca:	60f8      	str	r0, [r7, #12]
      cc:	60b9      	str	r1, [r7, #8]
      ce:	607a      	str	r2, [r7, #4]
      d0:	603b      	str	r3, [r7, #0]
/home/zengwei/work/rk3288-android8.1/android8.1-r46/external/rk_tee_user/ta/testapp/testapp_ta.c:84
      d2:	f240 5373 	movw	r3, #1395	; 0x573
      d6:	617b      	str	r3, [r7, #20]
/home/zengwei/work/rk3288-android8.1/android8.1-r46/external/rk_tee_user/ta/testapp/testapp_ta.c:91
      d8:	687a      	ldr	r2, [r7, #4]
      da:	697b      	ldr	r3, [r7, #20]
      dc:	429a      	cmp	r2, r3
      de:	d003      	beq.n	e8 <TA_InvokeCommandEntryPoint+0x28>
/home/zengwei/work/rk3288-android8.1/android8.1-r46/external/rk_tee_user/ta/testapp/testapp_ta.c:92
      e0:	2306      	movs	r3, #6
      e2:	f6cf 73ff 	movt	r3, #65535	; 0xffff
      e6:	e060      	b.n	1aa <TA_InvokeCommandEntryPoint+0xea>
/home/zengwei/work/rk3288-android8.1/android8.1-r46/external/rk_tee_user/ta/testapp/testapp_ta.c:94
      e8:	68bb      	ldr	r3, [r7, #8]
      ea:	2b66      	cmp	r3, #102	; 0x66
      ec:	d00e      	beq.n	10c <TA_InvokeCommandEntryPoint+0x4c>
      ee:	2b67      	cmp	r3, #103	; 0x67
      f0:	d01f      	beq.n	132 <TA_InvokeCommandEntryPoint+0x72>
      f2:	2b65      	cmp	r3, #101	; 0x65
      f4:	d156      	bne.n	1a4 <TA_InvokeCommandEntryPoint+0xe4>
/home/zengwei/work/rk3288-android8.1/android8.1-r46/external/rk_tee_user/ta/testapp/testapp_ta.c:96
      f6:	683b      	ldr	r3, [r7, #0]
      f8:	681b      	ldr	r3, [r3, #0]
      fa:	1c5a      	adds	r2, r3, #1
      fc:	683b      	ldr	r3, [r7, #0]
      fe:	601a      	str	r2, [r3, #0]
/home/zengwei/work/rk3288-android8.1/android8.1-r46/external/rk_tee_user/ta/testapp/testapp_ta.c:97
     100:	683b      	ldr	r3, [r7, #0]
     102:	681a      	ldr	r2, [r3, #0]
     104:	683b      	ldr	r3, [r7, #0]
     106:	605a      	str	r2, [r3, #4]
/home/zengwei/work/rk3288-android8.1/android8.1-r46/external/rk_tee_user/ta/testapp/testapp_ta.c:98
     108:	2300      	movs	r3, #0
     10a:	e04e      	b.n	1aa <TA_InvokeCommandEntryPoint+0xea>
/home/zengwei/work/rk3288-android8.1/android8.1-r46/external/rk_tee_user/ta/testapp/testapp_ta.c:101
     10c:	683b      	ldr	r3, [r7, #0]
     10e:	3308      	adds	r3, #8
     110:	220f      	movs	r2, #15
     112:	605a      	str	r2, [r3, #4]
/home/zengwei/work/rk3288-android8.1/android8.1-r46/external/rk_tee_user/ta/testapp/testapp_ta.c:102
     114:	683b      	ldr	r3, [r7, #0]
     116:	3308      	adds	r3, #8
     118:	681a      	ldr	r2, [r3, #0]
/home/zengwei/work/rk3288-android8.1/android8.1-r46/external/rk_tee_user/ta/testapp/testapp_ta.c:103
     11a:	683b      	ldr	r3, [r7, #0]
     11c:	3308      	adds	r3, #8
/home/zengwei/work/rk3288-android8.1/android8.1-r46/external/rk_tee_user/ta/testapp/testapp_ta.c:102
     11e:	685b      	ldr	r3, [r3, #4]
     120:	4610      	mov	r0, r2
     122:	4a24      	ldr	r2, [pc, #144]	; (1b4 <TA_InvokeCommandEntryPoint+0xf4>)
     124:	447a      	add	r2, pc
     126:	4611      	mov	r1, r2
     128:	461a      	mov	r2, r3
     12a:	f000 f985 	bl	438 <TEE_MemMove>
/home/zengwei/work/rk3288-android8.1/android8.1-r46/external/rk_tee_user/ta/testapp/testapp_ta.c:104
     12e:	2300      	movs	r3, #0
     130:	e03b      	b.n	1aa <TA_InvokeCommandEntryPoint+0xea>
/home/zengwei/work/rk3288-android8.1/android8.1-r46/external/rk_tee_user/ta/testapp/testapp_ta.c:107
     132:	683b      	ldr	r3, [r7, #0]
     134:	3310      	adds	r3, #16
     136:	681a      	ldr	r2, [r3, #0]
/home/zengwei/work/rk3288-android8.1/android8.1-r46/external/rk_tee_user/ta/testapp/testapp_ta.c:109
     138:	683b      	ldr	r3, [r7, #0]
     13a:	3310      	adds	r3, #16
/home/zengwei/work/rk3288-android8.1/android8.1-r46/external/rk_tee_user/ta/testapp/testapp_ta.c:107
     13c:	685b      	ldr	r3, [r3, #4]
     13e:	4610      	mov	r0, r2
     140:	4a1d      	ldr	r2, [pc, #116]	; (1b8 <TA_InvokeCommandEntryPoint+0xf8>)
     142:	447a      	add	r2, pc
     144:	4611      	mov	r1, r2
     146:	461a      	mov	r2, r3
     148:	f000 f978 	bl	43c <TEE_MemCompare>
     14c:	4603      	mov	r3, r0
     14e:	2b00      	cmp	r3, #0
     150:	d119      	bne.n	186 <TA_InvokeCommandEntryPoint+0xc6>
/home/zengwei/work/rk3288-android8.1/android8.1-r46/external/rk_tee_user/ta/testapp/testapp_ta.c:110
     152:	4b1a      	ldr	r3, [pc, #104]	; (1bc <TA_InvokeCommandEntryPoint+0xfc>)
     154:	447b      	add	r3, pc
     156:	9300      	str	r3, [sp, #0]
     158:	4b19      	ldr	r3, [pc, #100]	; (1c0 <TA_InvokeCommandEntryPoint+0x100>)
     15a:	447b      	add	r3, pc
     15c:	4618      	mov	r0, r3
     15e:	216e      	movs	r1, #110	; 0x6e
     160:	2202      	movs	r2, #2
     162:	2301      	movs	r3, #1
     164:	f003 ff6a 	bl	403c <trace_printf>
/home/zengwei/work/rk3288-android8.1/android8.1-r46/external/rk_tee_user/ta/testapp/testapp_ta.c:115
     168:	683b      	ldr	r3, [r7, #0]
     16a:	3310      	adds	r3, #16
     16c:	681a      	ldr	r2, [r3, #0]
/home/zengwei/work/rk3288-android8.1/android8.1-r46/external/rk_tee_user/ta/testapp/testapp_ta.c:116
     16e:	683b      	ldr	r3, [r7, #0]
     170:	3310      	adds	r3, #16
/home/zengwei/work/rk3288-android8.1/android8.1-r46/external/rk_tee_user/ta/testapp/testapp_ta.c:115
     172:	685b      	ldr	r3, [r3, #4]
     174:	4610      	mov	r0, r2
     176:	4a13      	ldr	r2, [pc, #76]	; (1c4 <TA_InvokeCommandEntryPoint+0x104>)
     178:	447a      	add	r2, pc
     17a:	4611      	mov	r1, r2
     17c:	461a      	mov	r2, r3
     17e:	f000 f95b 	bl	438 <TEE_MemMove>
/home/zengwei/work/rk3288-android8.1/android8.1-r46/external/rk_tee_user/ta/testapp/testapp_ta.c:117
     182:	2300      	movs	r3, #0
     184:	e011      	b.n	1aa <TA_InvokeCommandEntryPoint+0xea>
/home/zengwei/work/rk3288-android8.1/android8.1-r46/external/rk_tee_user/ta/testapp/testapp_ta.c:112
     186:	4b10      	ldr	r3, [pc, #64]	; (1c8 <TA_InvokeCommandEntryPoint+0x108>)
     188:	447b      	add	r3, pc
     18a:	9300      	str	r3, [sp, #0]
     18c:	4b0f      	ldr	r3, [pc, #60]	; (1cc <TA_InvokeCommandEntryPoint+0x10c>)
     18e:	447b      	add	r3, pc
     190:	4618      	mov	r0, r3
     192:	2170      	movs	r1, #112	; 0x70
     194:	2202      	movs	r2, #2
     196:	2301      	movs	r3, #1
     198:	f003 ff50 	bl	403c <trace_printf>
/home/zengwei/work/rk3288-android8.1/android8.1-r46/external/rk_tee_user/ta/testapp/testapp_ta.c:113
     19c:	2306      	movs	r3, #6
     19e:	f6cf 73ff 	movt	r3, #65535	; 0xffff
     1a2:	e002      	b.n	1aa <TA_InvokeCommandEntryPoint+0xea>
/home/zengwei/work/rk3288-android8.1/android8.1-r46/external/rk_tee_user/ta/testapp/testapp_ta.c:120
     1a4:	2306      	movs	r3, #6
     1a6:	f6cf 73ff 	movt	r3, #65535	; 0xffff
/home/zengwei/work/rk3288-android8.1/android8.1-r46/external/rk_tee_user/ta/testapp/testapp_ta.c:122
     1aa:	4618      	mov	r0, r3
     1ac:	3718      	adds	r7, #24
     1ae:	46bd      	mov	sp, r7
     1b0:	bd80      	pop	{r7, pc}
     1b2:	bf00      	nop
     1b4:	0000aed8 	.word	0x0000aed8
     1b8:	0000878a 	.word	0x0000878a
     1bc:	00008794 	.word	0x00008794
     1c0:	00008806 	.word	0x00008806
     1c4:	0000ae94 	.word	0x0000ae94
     1c8:	00008778 	.word	0x00008778
     1cc:	000087d2 	.word	0x000087d2

000001d0 <tahead_get_trace_level>:
tahead_get_trace_level():
/home/zengwei/work/rk3288-android8.1/android8.1-r46/external/rk_tee_user/export-user_ta/src/user_ta_header.c:111
     1d0:	b081      	sub	sp, #4
     1d2:	9700      	str	r7, [sp, #0]
     1d4:	af00      	add	r7, sp, #0
/home/zengwei/work/rk3288-android8.1/android8.1-r46/external/rk_tee_user/export-user_ta/src/user_ta_header.c:115
     1d6:	2302      	movs	r3, #2
/home/zengwei/work/rk3288-android8.1/android8.1-r46/external/rk_tee_user/export-user_ta/src/user_ta_header.c:116
     1d8:	4618      	mov	r0, r3
     1da:	46bd      	mov	sp, r7
     1dc:	f85d 7b04 	ldr.w	r7, [sp], #4
     1e0:	4770      	bx	lr
     1e2:	bf00      	nop

000001e4 <__utee_from_param>:
__utee_from_param():
/home/zhangzj/secure/optee_gerrit/optee_os/lib/libutee/tee_api.c:42
     1e4:	b570      	push	{r4, r5, r6, lr}
/home/zhangzj/secure/optee_gerrit/optee_os/lib/libutee/tee_api.c:45
     1e6:	2300      	movs	r3, #0
     1e8:	4616      	mov	r6, r2
     1ea:	e9c0 1300 	strd	r1, r3, [r0]
/home/zhangzj/secure/optee_gerrit/optee_os/lib/libutee/tee_api.c:47
     1ee:	fa21 f403 	lsr.w	r4, r1, r3
     1f2:	f004 040f 	and.w	r4, r4, #15
     1f6:	3c01      	subs	r4, #1
     1f8:	2c06      	cmp	r4, #6
     1fa:	d80e      	bhi.n	21a <__utee_from_param+0x36>
     1fc:	e8df f004 	tbb	[pc, r4]
     200:	0d040404 	.word	0x0d040404
     204:	0404      	.short	0x0404
     206:	04          	.byte	0x04
     207:	00          	.byte	0x00
/home/zhangzj/secure/optee_gerrit/optee_os/lib/libutee/tee_api.c:57
     208:	f852 5013 	ldr.w	r5, [r2, r3, lsl #1]
     20c:	2400      	movs	r4, #0
     20e:	60c4      	str	r4, [r0, #12]
     210:	6085      	str	r5, [r0, #8]
/home/zhangzj/secure/optee_gerrit/optee_os/lib/libutee/tee_api.c:58
     212:	6875      	ldr	r5, [r6, #4]
     214:	6144      	str	r4, [r0, #20]
     216:	6105      	str	r5, [r0, #16]
/home/zhangzj/secure/optee_gerrit/optee_os/lib/libutee/tee_api.c:59
     218:	e005      	b.n	226 <__utee_from_param+0x42>
/home/zhangzj/secure/optee_gerrit/optee_os/lib/libutee/tee_api.c:61
     21a:	2400      	movs	r4, #0
     21c:	2500      	movs	r5, #0
     21e:	e9c0 4502 	strd	r4, r5, [r0, #8]
/home/zhangzj/secure/optee_gerrit/optee_os/lib/libutee/tee_api.c:62
     222:	e9c0 4504 	strd	r4, r5, [r0, #16]
     226:	3304      	adds	r3, #4
     228:	3608      	adds	r6, #8
/home/zhangzj/secure/optee_gerrit/optee_os/lib/libutee/tee_api.c:46 (discriminator 2)
     22a:	2b10      	cmp	r3, #16
     22c:	f100 0010 	add.w	r0, r0, #16
     230:	d1dd      	bne.n	1ee <__utee_from_param+0xa>
/home/zhangzj/secure/optee_gerrit/optee_os/lib/libutee/tee_api.c:66
     232:	bd70      	pop	{r4, r5, r6, pc}

00000234 <__utee_to_param>:
__utee_to_param():
/home/zhangzj/secure/optee_gerrit/optee_os/lib/libutee/tee_api.c:70
     234:	b5f0      	push	{r4, r5, r6, r7, lr}
/home/zhangzj/secure/optee_gerrit/optee_os/lib/libutee/tee_api.c:72
     236:	2300      	movs	r3, #0
     238:	6816      	ldr	r6, [r2, #0]
     23a:	4605      	mov	r5, r0
/home/zhangzj/secure/optee_gerrit/optee_os/lib/libutee/tee_api.c:78
     23c:	fa26 f403 	lsr.w	r4, r6, r3
/home/zhangzj/secure/optee_gerrit/optee_os/lib/libutee/tee_api.c:75
     240:	f8d2 e008 	ldr.w	lr, [r2, #8]
/home/zhangzj/secure/optee_gerrit/optee_os/lib/libutee/tee_api.c:76
     244:	6917      	ldr	r7, [r2, #16]
/home/zhangzj/secure/optee_gerrit/optee_os/lib/libutee/tee_api.c:78
     246:	f004 040f 	and.w	r4, r4, #15
     24a:	3c01      	subs	r4, #1
     24c:	2c06      	cmp	r4, #6
     24e:	d808      	bhi.n	262 <__utee_to_param+0x2e>
     250:	e8df f004 	tbb	[pc, r4]
     254:	07040404 	.word	0x07040404
     258:	0404      	.short	0x0404
     25a:	04          	.byte	0x04
     25b:	00          	.byte	0x00
/home/zhangzj/secure/optee_gerrit/optee_os/lib/libutee/tee_api.c:88
     25c:	f840 e013 	str.w	lr, [r0, r3, lsl #1]
/home/zhangzj/secure/optee_gerrit/optee_os/lib/libutee/tee_api.c:89
     260:	606f      	str	r7, [r5, #4]
     262:	3304      	adds	r3, #4
     264:	3210      	adds	r2, #16
/home/zhangzj/secure/optee_gerrit/optee_os/lib/libutee/tee_api.c:74 (discriminator 2)
     266:	2b10      	cmp	r3, #16
     268:	f105 0508 	add.w	r5, r5, #8
     26c:	d1e6      	bne.n	23c <__utee_to_param+0x8>
/home/zhangzj/secure/optee_gerrit/optee_os/lib/libutee/tee_api.c:96
     26e:	b101      	cbz	r1, 272 <__utee_to_param+0x3e>
/home/zhangzj/secure/optee_gerrit/optee_os/lib/libutee/tee_api.c:97
     270:	600e      	str	r6, [r1, #0]
     272:	bdf0      	pop	{r4, r5, r6, r7, pc}

00000274 <TEE_OpenTASession>:
TEE_OpenTASession():
/home/zhangzj/secure/optee_gerrit/optee_os/lib/libutee/tee_api.c:105
     274:	b5f0      	push	{r4, r5, r6, r7, lr}
     276:	b097      	sub	sp, #92	; 0x5c
/home/zhangzj/secure/optee_gerrit/optee_os/lib/libutee/tee_api.c:110
     278:	ac04      	add	r4, sp, #16
/home/zhangzj/secure/optee_gerrit/optee_os/lib/libutee/tee_api.c:105
     27a:	460d      	mov	r5, r1
     27c:	4607      	mov	r7, r0
/home/zhangzj/secure/optee_gerrit/optee_os/lib/libutee/tee_api.c:110
     27e:	4611      	mov	r1, r2
     280:	4620      	mov	r0, r4
     282:	461a      	mov	r2, r3
/home/zhangzj/secure/optee_gerrit/optee_os/lib/libutee/tee_api.c:105
     284:	461e      	mov	r6, r3
/home/zhangzj/secure/optee_gerrit/optee_os/lib/libutee/tee_api.c:110
     286:	f7ff ffad 	bl	1e4 <__utee_from_param>
/home/zhangzj/secure/optee_gerrit/optee_os/lib/libutee/tee_api.c:111
     28a:	9b1d      	ldr	r3, [sp, #116]	; 0x74
     28c:	4629      	mov	r1, r5
     28e:	4622      	mov	r2, r4
     290:	4638      	mov	r0, r7
     292:	9300      	str	r3, [sp, #0]
     294:	ab03      	add	r3, sp, #12
     296:	f000 eafe 	blx	894 <utee_open_ta_session>
     29a:	4605      	mov	r5, r0
/home/zhangzj/secure/optee_gerrit/optee_os/lib/libutee/tee_api.c:113
     29c:	2100      	movs	r1, #0
     29e:	4630      	mov	r0, r6
     2a0:	4622      	mov	r2, r4
     2a2:	f7ff ffc7 	bl	234 <__utee_to_param>
/home/zhangzj/secure/optee_gerrit/optee_os/lib/libutee/tee_api.c:119
     2a6:	b10d      	cbz	r5, 2ac <TEE_OpenTASession+0x38>
/home/zhangzj/secure/optee_gerrit/optee_os/lib/libutee/tee_api.c:120
     2a8:	2300      	movs	r3, #0
     2aa:	9303      	str	r3, [sp, #12]
/home/zhangzj/secure/optee_gerrit/optee_os/lib/libutee/tee_api.c:122
     2ac:	9a03      	ldr	r2, [sp, #12]
/home/zhangzj/secure/optee_gerrit/optee_os/lib/libutee/tee_api.c:124
     2ae:	4628      	mov	r0, r5
/home/zhangzj/secure/optee_gerrit/optee_os/lib/libutee/tee_api.c:122
     2b0:	9b1c      	ldr	r3, [sp, #112]	; 0x70
     2b2:	601a      	str	r2, [r3, #0]
/home/zhangzj/secure/optee_gerrit/optee_os/lib/libutee/tee_api.c:124
     2b4:	b017      	add	sp, #92	; 0x5c
     2b6:	bdf0      	pop	{r4, r5, r6, r7, pc}

000002b8 <TEE_CloseTASession>:
TEE_CloseTASession():
/home/zhangzj/secure/optee_gerrit/optee_os/lib/libutee/tee_api.c:127
     2b8:	b513      	push	{r0, r1, r4, lr}
/home/zhangzj/secure/optee_gerrit/optee_os/lib/libutee/tee_api.c:128
     2ba:	b1a0      	cbz	r0, 2e6 <TEE_CloseTASession+0x2e>
/home/zhangzj/secure/optee_gerrit/optee_os/lib/libutee/tee_api.c:129
     2bc:	f000 eaf6 	blx	8ac <utee_close_ta_session>
/home/zhangzj/secure/optee_gerrit/optee_os/lib/libutee/tee_api.c:131
     2c0:	4604      	mov	r4, r0
     2c2:	b180      	cbz	r0, 2e6 <TEE_CloseTASession+0x2e>
/home/zhangzj/secure/optee_gerrit/optee_os/lib/libutee/tee_api.c:132
     2c4:	4b09      	ldr	r3, [pc, #36]	; (2ec <TEE_CloseTASession+0x34>)
     2c6:	2201      	movs	r2, #1
     2c8:	2184      	movs	r1, #132	; 0x84
     2ca:	447b      	add	r3, pc
     2cc:	e9cd 3000 	strd	r3, r0, [sp]
     2d0:	4807      	ldr	r0, [pc, #28]	; (2f0 <TEE_CloseTASession+0x38>)
     2d2:	4613      	mov	r3, r2
     2d4:	4478      	add	r0, pc
     2d6:	f003 feb1 	bl	403c <trace_printf>
     2da:	4620      	mov	r0, r4
/home/zhangzj/secure/optee_gerrit/optee_os/lib/libutee/tee_api.c:134
     2dc:	b002      	add	sp, #8
     2de:	e8bd 4010 	ldmia.w	sp!, {r4, lr}
/home/zhangzj/secure/optee_gerrit/optee_os/lib/libutee/tee_api.c:132
     2e2:	f008 baab 	b.w	883c <__TEE_Panic>
/home/zhangzj/secure/optee_gerrit/optee_os/lib/libutee/tee_api.c:134
     2e6:	b002      	add	sp, #8
     2e8:	bd10      	pop	{r4, pc}
     2ea:	bf00      	nop
     2ec:	00009ad7 	.word	0x00009ad7
     2f0:	00009a20 	.word	0x00009a20

000002f4 <TEE_InvokeTACommand>:
TEE_InvokeTACommand():
/home/zhangzj/secure/optee_gerrit/optee_os/lib/libutee/tee_api.c:140
     2f4:	e92d 41f0 	stmdb	sp!, {r4, r5, r6, r7, r8, lr}
     2f8:	b096      	sub	sp, #88	; 0x58
/home/zhangzj/secure/optee_gerrit/optee_os/lib/libutee/tee_api.c:145
     2fa:	ad04      	add	r5, sp, #16
/home/zhangzj/secure/optee_gerrit/optee_os/lib/libutee/tee_api.c:140
     2fc:	4614      	mov	r4, r2
/home/zhangzj/secure/optee_gerrit/optee_os/lib/libutee/tee_api.c:145
     2fe:	9a1c      	ldr	r2, [sp, #112]	; 0x70
/home/zhangzj/secure/optee_gerrit/optee_os/lib/libutee/tee_api.c:140
     300:	4680      	mov	r8, r0
     302:	460f      	mov	r7, r1
     304:	9e1d      	ldr	r6, [sp, #116]	; 0x74
/home/zhangzj/secure/optee_gerrit/optee_os/lib/libutee/tee_api.c:145
     306:	4619      	mov	r1, r3
     308:	4628      	mov	r0, r5
     30a:	f7ff ff6b 	bl	1e4 <__utee_from_param>
/home/zhangzj/secure/optee_gerrit/optee_os/lib/libutee/tee_api.c:146
     30e:	ab03      	add	r3, sp, #12
     310:	4622      	mov	r2, r4
     312:	4639      	mov	r1, r7
     314:	4640      	mov	r0, r8
     316:	9300      	str	r3, [sp, #0]
     318:	462b      	mov	r3, r5
     31a:	f000 ead2 	blx	8c0 <utee_invoke_ta_command>
     31e:	4604      	mov	r4, r0
/home/zhangzj/secure/optee_gerrit/optee_os/lib/libutee/tee_api.c:149
     320:	2100      	movs	r1, #0
     322:	981c      	ldr	r0, [sp, #112]	; 0x70
     324:	462a      	mov	r2, r5
     326:	f7ff ff85 	bl	234 <__utee_to_param>
     32a:	9b03      	ldr	r3, [sp, #12]
/home/zhangzj/secure/optee_gerrit/optee_os/lib/libutee/tee_api.c:151
     32c:	b106      	cbz	r6, 330 <TEE_InvokeTACommand+0x3c>
/home/zhangzj/secure/optee_gerrit/optee_os/lib/libutee/tee_api.c:152
     32e:	6033      	str	r3, [r6, #0]
/home/zhangzj/secure/optee_gerrit/optee_os/lib/libutee/tee_api.c:154
     330:	2b04      	cmp	r3, #4
     332:	d015      	beq.n	360 <TEE_InvokeTACommand+0x6c>
/home/zhangzj/secure/optee_gerrit/optee_os/lib/libutee/tee_api.c:157
     334:	b1a4      	cbz	r4, 360 <TEE_InvokeTACommand+0x6c>
/home/zhangzj/secure/optee_gerrit/optee_os/lib/libutee/tee_api.c:157 (discriminator 1)
     336:	4b0c      	ldr	r3, [pc, #48]	; (368 <TEE_InvokeTACommand+0x74>)
     338:	429c      	cmp	r4, r3
     33a:	d011      	beq.n	360 <TEE_InvokeTACommand+0x6c>
/home/zhangzj/secure/optee_gerrit/optee_os/lib/libutee/tee_api.c:158
     33c:	4b0b      	ldr	r3, [pc, #44]	; (36c <TEE_InvokeTACommand+0x78>)
     33e:	429c      	cmp	r4, r3
     340:	d00e      	beq.n	360 <TEE_InvokeTACommand+0x6c>
/home/zhangzj/secure/optee_gerrit/optee_os/lib/libutee/tee_api.c:160
     342:	4b0b      	ldr	r3, [pc, #44]	; (370 <TEE_InvokeTACommand+0x7c>)
     344:	2201      	movs	r2, #1
     346:	21a0      	movs	r1, #160	; 0xa0
     348:	480a      	ldr	r0, [pc, #40]	; (374 <TEE_InvokeTACommand+0x80>)
     34a:	447b      	add	r3, pc
     34c:	4478      	add	r0, pc
     34e:	e9cd 3400 	strd	r3, r4, [sp]
     352:	3013      	adds	r0, #19
     354:	4613      	mov	r3, r2
     356:	f003 fe71 	bl	403c <trace_printf>
     35a:	4620      	mov	r0, r4
     35c:	f008 fa6e 	bl	883c <__TEE_Panic>
/home/zhangzj/secure/optee_gerrit/optee_os/lib/libutee/tee_api.c:163
     360:	4620      	mov	r0, r4
     362:	b016      	add	sp, #88	; 0x58
     364:	e8bd 81f0 	ldmia.w	sp!, {r4, r5, r6, r7, r8, pc}
     368:	ffff000c 	.word	0xffff000c
     36c:	ffff3024 	.word	0xffff3024
     370:	00009a57 	.word	0x00009a57
     374:	000099a8 	.word	0x000099a8

00000378 <TEE_GetCancellationFlag>:
TEE_GetCancellationFlag():
/home/zhangzj/secure/optee_gerrit/optee_os/lib/libutee/tee_api.c:168
     378:	b507      	push	{r0, r1, r2, lr}
/home/zhangzj/secure/optee_gerrit/optee_os/lib/libutee/tee_api.c:170
     37a:	a801      	add	r0, sp, #4
     37c:	f000 eaac 	blx	8d8 <utee_get_cancellation_flag>
/home/zhangzj/secure/optee_gerrit/optee_os/lib/libutee/tee_api.c:172
     380:	b108      	cbz	r0, 386 <TEE_GetCancellationFlag+0xe>
/home/zhangzj/secure/optee_gerrit/optee_os/lib/libutee/tee_api.c:173
     382:	2300      	movs	r3, #0
     384:	9301      	str	r3, [sp, #4]
/home/zhangzj/secure/optee_gerrit/optee_os/lib/libutee/tee_api.c:175
     386:	9801      	ldr	r0, [sp, #4]
     388:	3000      	adds	r0, #0
     38a:	bf18      	it	ne
     38c:	2001      	movne	r0, #1
     38e:	b003      	add	sp, #12
     390:	f85d fb04 	ldr.w	pc, [sp], #4

00000394 <TEE_UnmaskCancellation>:
TEE_UnmaskCancellation():
/home/zhangzj/secure/optee_gerrit/optee_os/lib/libutee/tee_api.c:178
     394:	b51f      	push	{r0, r1, r2, r3, r4, lr}
/home/zhangzj/secure/optee_gerrit/optee_os/lib/libutee/tee_api.c:180
     396:	a803      	add	r0, sp, #12
     398:	f000 eab2 	blx	900 <utee_unmask_cancellation>
/home/zhangzj/secure/optee_gerrit/optee_os/lib/libutee/tee_api.c:182
     39c:	4604      	mov	r4, r0
     39e:	b170      	cbz	r0, 3be <TEE_UnmaskCancellation+0x2a>
/home/zhangzj/secure/optee_gerrit/optee_os/lib/libutee/tee_api.c:183
     3a0:	4b0a      	ldr	r3, [pc, #40]	; (3cc <TEE_UnmaskCancellation+0x38>)
     3a2:	2201      	movs	r2, #1
     3a4:	21b7      	movs	r1, #183	; 0xb7
     3a6:	447b      	add	r3, pc
     3a8:	e9cd 3000 	strd	r3, r0, [sp]
     3ac:	4808      	ldr	r0, [pc, #32]	; (3d0 <TEE_UnmaskCancellation+0x3c>)
     3ae:	4613      	mov	r3, r2
     3b0:	4478      	add	r0, pc
     3b2:	3027      	adds	r0, #39	; 0x27
     3b4:	f003 fe42 	bl	403c <trace_printf>
     3b8:	4620      	mov	r0, r4
     3ba:	f008 fa3f 	bl	883c <__TEE_Panic>
/home/zhangzj/secure/optee_gerrit/optee_os/lib/libutee/tee_api.c:185
     3be:	9803      	ldr	r0, [sp, #12]
     3c0:	3000      	adds	r0, #0
     3c2:	bf18      	it	ne
     3c4:	2001      	movne	r0, #1
     3c6:	b004      	add	sp, #16
     3c8:	bd10      	pop	{r4, pc}
     3ca:	bf00      	nop
     3cc:	000099fb 	.word	0x000099fb
     3d0:	00009944 	.word	0x00009944

000003d4 <TEE_MaskCancellation>:
TEE_MaskCancellation():
/home/zhangzj/secure/optee_gerrit/optee_os/lib/libutee/tee_api.c:188
     3d4:	b51f      	push	{r0, r1, r2, r3, r4, lr}
/home/zhangzj/secure/optee_gerrit/optee_os/lib/libutee/tee_api.c:190
     3d6:	a803      	add	r0, sp, #12
     3d8:	f000 ea9c 	blx	914 <utee_mask_cancellation>
/home/zhangzj/secure/optee_gerrit/optee_os/lib/libutee/tee_api.c:192
     3dc:	4604      	mov	r4, r0
     3de:	b170      	cbz	r0, 3fe <TEE_MaskCancellation+0x2a>
/home/zhangzj/secure/optee_gerrit/optee_os/lib/libutee/tee_api.c:193
     3e0:	4b0a      	ldr	r3, [pc, #40]	; (40c <TEE_MaskCancellation+0x38>)
     3e2:	2201      	movs	r2, #1
     3e4:	21c1      	movs	r1, #193	; 0xc1
     3e6:	447b      	add	r3, pc
     3e8:	e9cd 3000 	strd	r3, r0, [sp]
     3ec:	4808      	ldr	r0, [pc, #32]	; (410 <TEE_MaskCancellation+0x3c>)
     3ee:	4613      	mov	r3, r2
     3f0:	4478      	add	r0, pc
     3f2:	303e      	adds	r0, #62	; 0x3e
     3f4:	f003 fe22 	bl	403c <trace_printf>
     3f8:	4620      	mov	r0, r4
     3fa:	f008 fa1f 	bl	883c <__TEE_Panic>
/home/zhangzj/secure/optee_gerrit/optee_os/lib/libutee/tee_api.c:195
     3fe:	9803      	ldr	r0, [sp, #12]
     400:	3000      	adds	r0, #0
     402:	bf18      	it	ne
     404:	2001      	movne	r0, #1
     406:	b004      	add	sp, #16
     408:	bd10      	pop	{r4, pc}
     40a:	bf00      	nop
     40c:	000099bb 	.word	0x000099bb
     410:	00009904 	.word	0x00009904

00000414 <TEE_CheckMemoryAccessRights>:
TEE_CheckMemoryAccessRights():
/home/zhangzj/secure/optee_gerrit/optee_os/lib/libutee/tee_api.c:204
     414:	b10a      	cbz	r2, 41a <TEE_CheckMemoryAccessRights+0x6>
/home/zhangzj/secure/optee_gerrit/optee_os/lib/libutee/tee_api.c:208
     416:	f008 ba2f 	b.w	8878 <__utee_check_access_rights_from_thumb>
/home/zhangzj/secure/optee_gerrit/optee_os/lib/libutee/tee_api.c:220
     41a:	4610      	mov	r0, r2
     41c:	4770      	bx	lr

0000041e <TEE_SetInstanceData>:
TEE_SetInstanceData():
/home/zhangzj/secure/optee_gerrit/optee_os/lib/libutee/tee_api.c:224
     41e:	4b02      	ldr	r3, [pc, #8]	; (428 <TEE_SetInstanceData+0xa>)
     420:	447b      	add	r3, pc
     422:	6018      	str	r0, [r3, #0]
     424:	4770      	bx	lr
     426:	bf00      	nop
     428:	00012c80 	.word	0x00012c80

0000042c <TEE_GetInstanceData>:
TEE_GetInstanceData():
/home/zhangzj/secure/optee_gerrit/optee_os/lib/libutee/tee_api.c:230
     42c:	4b01      	ldr	r3, [pc, #4]	; (434 <TEE_GetInstanceData+0x8>)
     42e:	447b      	add	r3, pc
     430:	6818      	ldr	r0, [r3, #0]
     432:	4770      	bx	lr
     434:	00012c72 	.word	0x00012c72

00000438 <TEE_MemMove>:
TEE_MemMove():
/home/zhangzj/secure/optee_gerrit/optee_os/lib/libutee/tee_api.c:234
     438:	f002 bd16 	b.w	2e68 <memmove>

0000043c <TEE_MemCompare>:
TEE_MemCompare():
/home/zhangzj/secure/optee_gerrit/optee_os/lib/libutee/tee_api.c:239
     43c:	f002 bc5a 	b.w	2cf4 <memcmp>

00000440 <TEE_MemFill>:
TEE_MemFill():
/home/zhangzj/secure/optee_gerrit/optee_os/lib/libutee/tee_api.c:244
     440:	f002 bd9e 	b.w	2f80 <memset>

00000444 <TEE_GetSystemTime>:
TEE_GetSystemTime():
/home/zhangzj/secure/optee_gerrit/optee_os/lib/libutee/tee_api.c:250
     444:	b513      	push	{r0, r1, r4, lr}
     446:	4601      	mov	r1, r0
/home/zhangzj/secure/optee_gerrit/optee_os/lib/libutee/tee_api.c:251
     448:	2000      	movs	r0, #0
     44a:	f000 ea78 	blx	93c <utee_get_time>
/home/zhangzj/secure/optee_gerrit/optee_os/lib/libutee/tee_api.c:253
     44e:	b190      	cbz	r0, 476 <TEE_GetSystemTime+0x32>
/home/zhangzj/secure/optee_gerrit/optee_os/lib/libutee/tee_api.c:254
     450:	4b0a      	ldr	r3, [pc, #40]	; (47c <TEE_GetSystemTime+0x38>)
     452:	2400      	movs	r4, #0
     454:	2201      	movs	r2, #1
     456:	480a      	ldr	r0, [pc, #40]	; (480 <TEE_GetSystemTime+0x3c>)
     458:	21fe      	movs	r1, #254	; 0xfe
     45a:	9401      	str	r4, [sp, #4]
     45c:	447b      	add	r3, pc
     45e:	4478      	add	r0, pc
     460:	9300      	str	r3, [sp, #0]
     462:	3053      	adds	r0, #83	; 0x53
     464:	4613      	mov	r3, r2
     466:	f003 fde9 	bl	403c <trace_printf>
     46a:	4620      	mov	r0, r4
/home/zhangzj/secure/optee_gerrit/optee_os/lib/libutee/tee_api.c:255
     46c:	b002      	add	sp, #8
     46e:	e8bd 4010 	ldmia.w	sp!, {r4, lr}
/home/zhangzj/secure/optee_gerrit/optee_os/lib/libutee/tee_api.c:254
     472:	f008 b9e3 	b.w	883c <__TEE_Panic>
/home/zhangzj/secure/optee_gerrit/optee_os/lib/libutee/tee_api.c:255
     476:	b002      	add	sp, #8
     478:	bd10      	pop	{r4, pc}
     47a:	bf00      	nop
     47c:	00009945 	.word	0x00009945
     480:	00009896 	.word	0x00009896

00000484 <TEE_Wait>:
TEE_Wait():
/home/zhangzj/secure/optee_gerrit/optee_os/lib/libutee/tee_api.c:258
     484:	b513      	push	{r0, r1, r4, lr}
/home/zhangzj/secure/optee_gerrit/optee_os/lib/libutee/tee_api.c:259
     486:	f000 ea50 	blx	928 <utee_wait>
/home/zhangzj/secure/optee_gerrit/optee_os/lib/libutee/tee_api.c:261
     48a:	4604      	mov	r4, r0
     48c:	b190      	cbz	r0, 4b4 <TEE_Wait+0x30>
/home/zhangzj/secure/optee_gerrit/optee_os/lib/libutee/tee_api.c:261 (discriminator 1)
     48e:	4b0b      	ldr	r3, [pc, #44]	; (4bc <TEE_Wait+0x38>)
     490:	4298      	cmp	r0, r3
     492:	d00f      	beq.n	4b4 <TEE_Wait+0x30>
/home/zhangzj/secure/optee_gerrit/optee_os/lib/libutee/tee_api.c:262
     494:	4b0a      	ldr	r3, [pc, #40]	; (4c0 <TEE_Wait+0x3c>)
     496:	2201      	movs	r2, #1
     498:	f44f 7183 	mov.w	r1, #262	; 0x106
     49c:	447b      	add	r3, pc
     49e:	e9cd 3000 	strd	r3, r0, [sp]
     4a2:	4808      	ldr	r0, [pc, #32]	; (4c4 <TEE_Wait+0x40>)
     4a4:	4613      	mov	r3, r2
     4a6:	4478      	add	r0, pc
     4a8:	3065      	adds	r0, #101	; 0x65
     4aa:	f003 fdc7 	bl	403c <trace_printf>
     4ae:	4620      	mov	r0, r4
     4b0:	f008 f9c4 	bl	883c <__TEE_Panic>
/home/zhangzj/secure/optee_gerrit/optee_os/lib/libutee/tee_api.c:265
     4b4:	4620      	mov	r0, r4
     4b6:	b002      	add	sp, #8
     4b8:	bd10      	pop	{r4, pc}
     4ba:	bf00      	nop
     4bc:	ffff0002 	.word	0xffff0002
     4c0:	00009905 	.word	0x00009905
     4c4:	0000984e 	.word	0x0000984e

000004c8 <TEE_GetTAPersistentTime>:
TEE_GetTAPersistentTime():
/home/zhangzj/secure/optee_gerrit/optee_os/lib/libutee/tee_api.c:268
     4c8:	b537      	push	{r0, r1, r2, r4, r5, lr}
     4ca:	4605      	mov	r5, r0
/home/zhangzj/secure/optee_gerrit/optee_os/lib/libutee/tee_api.c:271
     4cc:	4629      	mov	r1, r5
     4ce:	2001      	movs	r0, #1
     4d0:	f000 ea34 	blx	93c <utee_get_time>
/home/zhangzj/secure/optee_gerrit/optee_os/lib/libutee/tee_api.c:273
     4d4:	4604      	mov	r4, r0
     4d6:	b1e0      	cbz	r0, 512 <TEE_GetTAPersistentTime+0x4a>
/home/zhangzj/secure/optee_gerrit/optee_os/lib/libutee/tee_api.c:273 (discriminator 1)
     4d8:	4b0f      	ldr	r3, [pc, #60]	; (518 <TEE_GetTAPersistentTime+0x50>)
     4da:	4298      	cmp	r0, r3
     4dc:	d019      	beq.n	512 <TEE_GetTAPersistentTime+0x4a>
/home/zhangzj/secure/optee_gerrit/optee_os/lib/libutee/tee_api.c:274
     4de:	2300      	movs	r3, #0
     4e0:	602b      	str	r3, [r5, #0]
/home/zhangzj/secure/optee_gerrit/optee_os/lib/libutee/tee_api.c:275
     4e2:	606b      	str	r3, [r5, #4]
/home/zhangzj/secure/optee_gerrit/optee_os/lib/libutee/tee_api.c:278
     4e4:	f500 4330 	add.w	r3, r0, #45056	; 0xb000
     4e8:	2b01      	cmp	r3, #1
     4ea:	d912      	bls.n	512 <TEE_GetTAPersistentTime+0x4a>
/home/zhangzj/secure/optee_gerrit/optee_os/lib/libutee/tee_api.c:281
     4ec:	4b0b      	ldr	r3, [pc, #44]	; (51c <TEE_GetTAPersistentTime+0x54>)
     4ee:	4298      	cmp	r0, r3
     4f0:	d00f      	beq.n	512 <TEE_GetTAPersistentTime+0x4a>
/home/zhangzj/secure/optee_gerrit/optee_os/lib/libutee/tee_api.c:283
     4f2:	4b0b      	ldr	r3, [pc, #44]	; (520 <TEE_GetTAPersistentTime+0x58>)
     4f4:	2201      	movs	r2, #1
     4f6:	f240 111b 	movw	r1, #283	; 0x11b
     4fa:	447b      	add	r3, pc
     4fc:	e9cd 3000 	strd	r3, r0, [sp]
     500:	4808      	ldr	r0, [pc, #32]	; (524 <TEE_GetTAPersistentTime+0x5c>)
     502:	4613      	mov	r3, r2
     504:	4478      	add	r0, pc
     506:	306e      	adds	r0, #110	; 0x6e
     508:	f003 fd98 	bl	403c <trace_printf>
     50c:	4620      	mov	r0, r4
     50e:	f008 f995 	bl	883c <__TEE_Panic>
/home/zhangzj/secure/optee_gerrit/optee_os/lib/libutee/tee_api.c:286
     512:	4620      	mov	r0, r4
     514:	b003      	add	sp, #12
     516:	bd30      	pop	{r4, r5, pc}
     518:	ffff300f 	.word	0xffff300f
     51c:	ffff000c 	.word	0xffff000c
     520:	000098a7 	.word	0x000098a7
     524:	000097f0 	.word	0x000097f0

00000528 <TEE_SetTAPersistentTime>:
TEE_SetTAPersistentTime():
/home/zhangzj/secure/optee_gerrit/optee_os/lib/libutee/tee_api.c:289
     528:	b513      	push	{r0, r1, r4, lr}
/home/zhangzj/secure/optee_gerrit/optee_os/lib/libutee/tee_api.c:292
     52a:	f000 ea12 	blx	950 <utee_set_ta_time>
/home/zhangzj/secure/optee_gerrit/optee_os/lib/libutee/tee_api.c:294
     52e:	4604      	mov	r4, r0
     530:	b1a8      	cbz	r0, 55e <TEE_SetTAPersistentTime+0x36>
/home/zhangzj/secure/optee_gerrit/optee_os/lib/libutee/tee_api.c:294 (discriminator 1)
     532:	4b0c      	ldr	r3, [pc, #48]	; (564 <TEE_SetTAPersistentTime+0x3c>)
     534:	4298      	cmp	r0, r3
     536:	d012      	beq.n	55e <TEE_SetTAPersistentTime+0x36>
/home/zhangzj/secure/optee_gerrit/optee_os/lib/libutee/tee_api.c:295
     538:	4b0b      	ldr	r3, [pc, #44]	; (568 <TEE_SetTAPersistentTime+0x40>)
     53a:	4298      	cmp	r0, r3
     53c:	d00f      	beq.n	55e <TEE_SetTAPersistentTime+0x36>
/home/zhangzj/secure/optee_gerrit/optee_os/lib/libutee/tee_api.c:297
     53e:	4b0b      	ldr	r3, [pc, #44]	; (56c <TEE_SetTAPersistentTime+0x44>)
     540:	2201      	movs	r2, #1
     542:	f240 1129 	movw	r1, #297	; 0x129
     546:	447b      	add	r3, pc
     548:	e9cd 3000 	strd	r3, r0, [sp]
     54c:	4808      	ldr	r0, [pc, #32]	; (570 <TEE_SetTAPersistentTime+0x48>)
     54e:	4613      	mov	r3, r2
     550:	4478      	add	r0, pc
     552:	3086      	adds	r0, #134	; 0x86
     554:	f003 fd72 	bl	403c <trace_printf>
     558:	4620      	mov	r0, r4
     55a:	f008 f96f 	bl	883c <__TEE_Panic>
/home/zhangzj/secure/optee_gerrit/optee_os/lib/libutee/tee_api.c:300
     55e:	4620      	mov	r0, r4
     560:	b002      	add	sp, #8
     562:	bd10      	pop	{r4, pc}
     564:	ffff000c 	.word	0xffff000c
     568:	ffff3041 	.word	0xffff3041
     56c:	0000985b 	.word	0x0000985b
     570:	000097a4 	.word	0x000097a4

00000574 <TEE_GetREETime>:
TEE_GetREETime():
/home/zhangzj/secure/optee_gerrit/optee_os/lib/libutee/tee_api.c:303
     574:	b513      	push	{r0, r1, r4, lr}
     576:	4601      	mov	r1, r0
/home/zhangzj/secure/optee_gerrit/optee_os/lib/libutee/tee_api.c:304
     578:	2002      	movs	r0, #2
     57a:	f000 e9e0 	blx	93c <utee_get_time>
/home/zhangzj/secure/optee_gerrit/optee_os/lib/libutee/tee_api.c:306
     57e:	b198      	cbz	r0, 5a8 <TEE_GetREETime+0x34>
/home/zhangzj/secure/optee_gerrit/optee_os/lib/libutee/tee_api.c:307
     580:	4b0a      	ldr	r3, [pc, #40]	; (5ac <TEE_GetREETime+0x38>)
     582:	2400      	movs	r4, #0
     584:	2201      	movs	r2, #1
     586:	480a      	ldr	r0, [pc, #40]	; (5b0 <TEE_GetREETime+0x3c>)
     588:	f240 1133 	movw	r1, #307	; 0x133
     58c:	9401      	str	r4, [sp, #4]
     58e:	447b      	add	r3, pc
     590:	4478      	add	r0, pc
     592:	9300      	str	r3, [sp, #0]
     594:	309e      	adds	r0, #158	; 0x9e
     596:	4613      	mov	r3, r2
     598:	f003 fd50 	bl	403c <trace_printf>
     59c:	4620      	mov	r0, r4
/home/zhangzj/secure/optee_gerrit/optee_os/lib/libutee/tee_api.c:308
     59e:	b002      	add	sp, #8
     5a0:	e8bd 4010 	ldmia.w	sp!, {r4, lr}
/home/zhangzj/secure/optee_gerrit/optee_os/lib/libutee/tee_api.c:307
     5a4:	f008 b94a 	b.w	883c <__TEE_Panic>
/home/zhangzj/secure/optee_gerrit/optee_os/lib/libutee/tee_api.c:308
     5a8:	b002      	add	sp, #8
     5aa:	bd10      	pop	{r4, pc}
     5ac:	00009813 	.word	0x00009813
     5b0:	00009764 	.word	0x00009764

000005b4 <TEE_Malloc>:
TEE_Malloc():
/home/zhangzj/secure/optee_gerrit/optee_os/lib/libutee/tee_api.c:312
     5b4:	f000 bcb4 	b.w	f20 <tee_user_mem_alloc>

000005b8 <TEE_Realloc>:
TEE_Realloc():
/home/zhangzj/secure/optee_gerrit/optee_os/lib/libutee/tee_api.c:321
     5b8:	f000 bd86 	b.w	10c8 <tee_user_mem_realloc>

000005bc <TEE_Free>:
TEE_Free():
/home/zhangzj/secure/optee_gerrit/optee_os/lib/libutee/tee_api.c:326
     5bc:	f000 bd14 	b.w	fe8 <tee_user_mem_free>

000005c0 <TEE_CacheClean>:
TEE_CacheClean():
/home/zhangzj/secure/optee_gerrit/optee_os/lib/libutee/tee_api.c:332
     5c0:	2200      	movs	r2, #0
     5c2:	f008 b951 	b.w	8868 <__utee_cache_operation_from_thumb>

000005c6 <TEE_CacheFlush>:
TEE_CacheFlush():
/home/zhangzj/secure/optee_gerrit/optee_os/lib/libutee/tee_api.c:336
     5c6:	2201      	movs	r2, #1
     5c8:	f008 b94e 	b.w	8868 <__utee_cache_operation_from_thumb>

000005cc <TEE_CacheInvalidate>:
TEE_CacheInvalidate():
/home/zhangzj/secure/optee_gerrit/optee_os/lib/libutee/tee_api.c:341
     5cc:	2202      	movs	r2, #2
     5ce:	f008 b94b 	b.w	8868 <__utee_cache_operation_from_thumb>
     5d2:	bf00      	nop

000005d4 <ta_header_get_session>:
ta_header_get_session():
/home/zhangzj/secure/optee_gerrit/optee_os/lib/libutee/arch/arm/user_ta_entry.c:75
     5d4:	4b05      	ldr	r3, [pc, #20]	; (5ec <ta_header_get_session+0x18>)
     5d6:	447b      	add	r3, pc
     5d8:	681b      	ldr	r3, [r3, #0]
/home/zhangzj/secure/optee_gerrit/optee_os/lib/libutee/arch/arm/user_ta_entry.c:75 (discriminator 1)
     5da:	b123      	cbz	r3, 5e6 <ta_header_get_session+0x12>
/home/zhangzj/secure/optee_gerrit/optee_os/lib/libutee/arch/arm/user_ta_entry.c:76
     5dc:	681a      	ldr	r2, [r3, #0]
     5de:	4282      	cmp	r2, r0
     5e0:	d001      	beq.n	5e6 <ta_header_get_session+0x12>
/home/zhangzj/secure/optee_gerrit/optee_os/lib/libutee/arch/arm/user_ta_entry.c:75 (discriminator 2)
     5e2:	689b      	ldr	r3, [r3, #8]
     5e4:	e7f9      	b.n	5da <ta_header_get_session+0x6>
/home/zhangzj/secure/optee_gerrit/optee_os/lib/libutee/arch/arm/user_ta_entry.c:80
     5e6:	4618      	mov	r0, r3
     5e8:	4770      	bx	lr
     5ea:	bf00      	nop
     5ec:	0000aaaa 	.word	0x0000aaaa

000005f0 <ta_header_remove_session>:
ta_header_remove_session():
/home/zhangzj/secure/optee_gerrit/optee_os/lib/libutee/arch/arm/user_ta_entry.c:118
     5f0:	b508      	push	{r3, lr}
/home/zhangzj/secure/optee_gerrit/optee_os/lib/libutee/arch/arm/user_ta_entry.c:121
     5f2:	4b10      	ldr	r3, [pc, #64]	; (634 <ta_header_remove_session+0x44>)
     5f4:	447b      	add	r3, pc
     5f6:	681b      	ldr	r3, [r3, #0]
/home/zhangzj/secure/optee_gerrit/optee_os/lib/libutee/arch/arm/user_ta_entry.c:121 (discriminator 1)
     5f8:	b1db      	cbz	r3, 632 <ta_header_remove_session+0x42>
/home/zhangzj/secure/optee_gerrit/optee_os/lib/libutee/arch/arm/user_ta_entry.c:122
     5fa:	681a      	ldr	r2, [r3, #0]
     5fc:	4282      	cmp	r2, r0
     5fe:	d116      	bne.n	62e <ta_header_remove_session+0x3e>
/home/zhangzj/secure/optee_gerrit/optee_os/lib/libutee/arch/arm/user_ta_entry.c:123
     600:	689a      	ldr	r2, [r3, #8]
     602:	68d9      	ldr	r1, [r3, #12]
     604:	b10a      	cbz	r2, 60a <ta_header_remove_session+0x1a>
/home/zhangzj/secure/optee_gerrit/optee_os/lib/libutee/arch/arm/user_ta_entry.c:123 (discriminator 1)
     606:	60d1      	str	r1, [r2, #12]
     608:	e002      	b.n	610 <ta_header_remove_session+0x20>
/home/zhangzj/secure/optee_gerrit/optee_os/lib/libutee/arch/arm/user_ta_entry.c:123 (discriminator 2)
     60a:	480b      	ldr	r0, [pc, #44]	; (638 <ta_header_remove_session+0x48>)
     60c:	4478      	add	r0, pc
     60e:	6041      	str	r1, [r0, #4]
/home/zhangzj/secure/optee_gerrit/optee_os/lib/libutee/arch/arm/user_ta_entry.c:123 (discriminator 4)
     610:	68d9      	ldr	r1, [r3, #12]
/home/zhangzj/secure/optee_gerrit/optee_os/lib/libutee/arch/arm/user_ta_entry.c:124 (discriminator 4)
     612:	4618      	mov	r0, r3
/home/zhangzj/secure/optee_gerrit/optee_os/lib/libutee/arch/arm/user_ta_entry.c:123 (discriminator 4)
     614:	600a      	str	r2, [r1, #0]
/home/zhangzj/secure/optee_gerrit/optee_os/lib/libutee/arch/arm/user_ta_entry.c:124 (discriminator 4)
     616:	f7ff ffd1 	bl	5bc <TEE_Free>
/home/zhangzj/secure/optee_gerrit/optee_os/lib/libutee/arch/arm/user_ta_entry.c:126 (discriminator 4)
     61a:	4a08      	ldr	r2, [pc, #32]	; (63c <ta_header_remove_session+0x4c>)
     61c:	447a      	add	r2, pc
     61e:	6813      	ldr	r3, [r2, #0]
     620:	3b01      	subs	r3, #1
     622:	6013      	str	r3, [r2, #0]
/home/zhangzj/secure/optee_gerrit/optee_os/lib/libutee/arch/arm/user_ta_entry.c:127 (discriminator 4)
     624:	b92b      	cbnz	r3, 632 <ta_header_remove_session+0x42>
/home/zhangzj/secure/optee_gerrit/optee_os/lib/libutee/arch/arm/user_ta_entry.c:133
     626:	e8bd 4008 	ldmia.w	sp!, {r3, lr}
/home/zhangzj/secure/optee_gerrit/optee_os/lib/libutee/arch/arm/user_ta_entry.c:128
     62a:	f7ff bd03 	b.w	34 <TA_DestroyEntryPoint>
/home/zhangzj/secure/optee_gerrit/optee_os/lib/libutee/arch/arm/user_ta_entry.c:121 (discriminator 2)
     62e:	689b      	ldr	r3, [r3, #8]
     630:	e7e2      	b.n	5f8 <ta_header_remove_session+0x8>
     632:	bd08      	pop	{r3, pc}
     634:	0000aa8c 	.word	0x0000aa8c
     638:	0000aa74 	.word	0x0000aa74
     63c:	00012a88 	.word	0x00012a88

00000640 <ta_header_save_params.part.0>:
ta_header_save_params():
/home/zhangzj/secure/optee_gerrit/optee_os/lib/libutee/arch/arm/user_ta_entry.c:68
     640:	4803      	ldr	r0, [pc, #12]	; (650 <ta_header_save_params.part.0+0x10>)
     642:	2100      	movs	r1, #0
     644:	2220      	movs	r2, #32
     646:	4478      	add	r0, pc
     648:	3004      	adds	r0, #4
     64a:	f002 bc99 	b.w	2f80 <memset>
     64e:	bf00      	nop
     650:	00012a5e 	.word	0x00012a5e

00000654 <__utee_entry>:
__utee_entry():
/home/zhangzj/secure/optee_gerrit/optee_os/lib/libutee/arch/arm/user_ta_entry.c:200
     654:	f8df 8198 	ldr.w	r8, [pc, #408]	; 7f0 <__utee_entry+0x19c>
/home/zhangzj/secure/optee_gerrit/optee_os/lib/libutee/arch/arm/user_ta_entry.c:203
     658:	2801      	cmp	r0, #1
/home/zhangzj/secure/optee_gerrit/optee_os/lib/libutee/arch/arm/user_ta_entry.c:200
     65a:	4616      	mov	r6, r2
     65c:	b580      	push	{r7, lr}
     65e:	4699      	mov	r9, r3
     660:	b08e      	sub	sp, #56	; 0x38
     662:	460f      	mov	r7, r1
     664:	44f8      	add	r8, pc
/home/zhangzj/secure/optee_gerrit/optee_os/lib/libutee/arch/arm/user_ta_entry.c:203
     666:	d03f      	beq.n	6e8 <__utee_entry+0x94>
     668:	d302      	bcc.n	670 <__utee_entry+0x1c>
     66a:	2802      	cmp	r0, #2
     66c:	d049      	beq.n	702 <__utee_entry+0xae>
     66e:	e070      	b.n	752 <__utee_entry+0xfe>
ta_header_add_session():
/home/zhangzj/secure/optee_gerrit/optee_os/lib/libutee/arch/arm/user_ta_entry.c:84
     670:	4608      	mov	r0, r1
     672:	f7ff ffaf 	bl	5d4 <ta_header_get_session>
/home/zhangzj/secure/optee_gerrit/optee_os/lib/libutee/arch/arm/user_ta_entry.c:86
     676:	2800      	cmp	r0, #0
     678:	d17d      	bne.n	776 <__utee_entry+0x122>
/home/zhangzj/secure/optee_gerrit/optee_os/lib/libutee/arch/arm/user_ta_entry.c:89
     67a:	4d5e      	ldr	r5, [pc, #376]	; (7f4 <__utee_entry+0x1a0>)
     67c:	447d      	add	r5, pc
     67e:	682c      	ldr	r4, [r5, #0]
     680:	3401      	adds	r4, #1
/home/zhangzj/secure/optee_gerrit/optee_os/lib/libutee/arch/arm/user_ta_entry.c:91
     682:	2c01      	cmp	r4, #1
/home/zhangzj/secure/optee_gerrit/optee_os/lib/libutee/arch/arm/user_ta_entry.c:89
     684:	602c      	str	r4, [r5, #0]
/home/zhangzj/secure/optee_gerrit/optee_os/lib/libutee/arch/arm/user_ta_entry.c:91
     686:	d013      	beq.n	6b0 <__utee_entry+0x5c>
/home/zhangzj/secure/optee_gerrit/optee_os/lib/libutee/arch/arm/user_ta_entry.c:106
     688:	2010      	movs	r0, #16
     68a:	f04f 4100 	mov.w	r1, #2147483648	; 0x80000000
     68e:	f7ff ff91 	bl	5b4 <TEE_Malloc>
/home/zhangzj/secure/optee_gerrit/optee_os/lib/libutee/arch/arm/user_ta_entry.c:108
     692:	2800      	cmp	r0, #0
     694:	f000 80a5 	beq.w	7e2 <__utee_entry+0x18e>
/home/zhangzj/secure/optee_gerrit/optee_os/lib/libutee/arch/arm/user_ta_entry.c:111
     698:	2300      	movs	r3, #0
/home/zhangzj/secure/optee_gerrit/optee_os/lib/libutee/arch/arm/user_ta_entry.c:110
     69a:	6007      	str	r7, [r0, #0]
/home/zhangzj/secure/optee_gerrit/optee_os/lib/libutee/arch/arm/user_ta_entry.c:111
     69c:	6043      	str	r3, [r0, #4]
/home/zhangzj/secure/optee_gerrit/optee_os/lib/libutee/arch/arm/user_ta_entry.c:112
     69e:	6083      	str	r3, [r0, #8]
     6a0:	4b55      	ldr	r3, [pc, #340]	; (7f8 <__utee_entry+0x1a4>)
     6a2:	447b      	add	r3, pc
     6a4:	685a      	ldr	r2, [r3, #4]
     6a6:	60c2      	str	r2, [r0, #12]
     6a8:	6010      	str	r0, [r2, #0]
     6aa:	3008      	adds	r0, #8
     6ac:	6058      	str	r0, [r3, #4]
     6ae:	e062      	b.n	776 <__utee_entry+0x122>
/home/zhangzj/secure/optee_gerrit/optee_os/lib/libutee/arch/arm/user_ta_entry.c:94
     6b0:	f895 3024 	ldrb.w	r3, [r5, #36]	; 0x24
     6b4:	b993      	cbnz	r3, 6dc <__utee_entry+0x88>
/home/zhangzj/secure/optee_gerrit/optee_os/lib/libutee/arch/arm/user_ta_entry.c:95
     6b6:	f7ff fd8b 	bl	1d0 <tahead_get_trace_level>
     6ba:	f003 fc61 	bl	3f80 <trace_set_level>
/home/zhangzj/secure/optee_gerrit/optee_os/lib/libutee/arch/arm/user_ta_entry.c:96
     6be:	4b4f      	ldr	r3, [pc, #316]	; (7fc <__utee_entry+0x1a8>)
     6c0:	f858 3003 	ldr.w	r3, [r8, r3]
     6c4:	9303      	str	r3, [sp, #12]
     6c6:	4b4e      	ldr	r3, [pc, #312]	; (800 <__utee_entry+0x1ac>)
     6c8:	9803      	ldr	r0, [sp, #12]
     6ca:	f858 3003 	ldr.w	r3, [r8, r3]
     6ce:	6819      	ldr	r1, [r3, #0]
     6d0:	f002 f9b6 	bl	2a40 <malloc_add_pool>
/home/zhangzj/secure/optee_gerrit/optee_os/lib/libutee/arch/arm/user_ta_entry.c:97
     6d4:	f000 fdac 	bl	1230 <_TEE_MathAPI_Init>
/home/zhangzj/secure/optee_gerrit/optee_os/lib/libutee/arch/arm/user_ta_entry.c:98
     6d8:	f885 4024 	strb.w	r4, [r5, #36]	; 0x24
/home/zhangzj/secure/optee_gerrit/optee_os/lib/libutee/arch/arm/user_ta_entry.c:101
     6dc:	f7ff fca0 	bl	20 <TA_CreateEntryPoint>
/home/zhangzj/secure/optee_gerrit/optee_os/lib/libutee/arch/arm/user_ta_entry.c:102
     6e0:	2800      	cmp	r0, #0
     6e2:	d0d1      	beq.n	688 <__utee_entry+0x34>
     6e4:	4604      	mov	r4, r0
     6e6:	e04c      	b.n	782 <__utee_entry+0x12e>
entry_close_session():
/home/zhangzj/secure/optee_gerrit/optee_os/lib/libutee/arch/arm/user_ta_entry.c:166
     6e8:	4608      	mov	r0, r1
     6ea:	f7ff ff73 	bl	5d4 <ta_header_get_session>
/home/zhangzj/secure/optee_gerrit/optee_os/lib/libutee/arch/arm/user_ta_entry.c:168
     6ee:	2800      	cmp	r0, #0
     6f0:	d046      	beq.n	780 <__utee_entry+0x12c>
/home/zhangzj/secure/optee_gerrit/optee_os/lib/libutee/arch/arm/user_ta_entry.c:171
     6f2:	6840      	ldr	r0, [r0, #4]
/home/zhangzj/secure/optee_gerrit/optee_os/lib/libutee/arch/arm/user_ta_entry.c:174
     6f4:	2400      	movs	r4, #0
/home/zhangzj/secure/optee_gerrit/optee_os/lib/libutee/arch/arm/user_ta_entry.c:171
     6f6:	f7ff fccb 	bl	90 <TA_CloseSessionEntryPoint>
/home/zhangzj/secure/optee_gerrit/optee_os/lib/libutee/arch/arm/user_ta_entry.c:173
     6fa:	4638      	mov	r0, r7
     6fc:	f7ff ff78 	bl	5f0 <ta_header_remove_session>
     700:	e03f      	b.n	782 <__utee_entry+0x12e>
entry_invoke_command():
/home/zhangzj/secure/optee_gerrit/optee_os/lib/libutee/arch/arm/user_ta_entry.c:183
     702:	4608      	mov	r0, r1
     704:	f7ff ff66 	bl	5d4 <ta_header_get_session>
/home/zhangzj/secure/optee_gerrit/optee_os/lib/libutee/arch/arm/user_ta_entry.c:185
     708:	4680      	mov	r8, r0
     70a:	2800      	cmp	r0, #0
     70c:	d038      	beq.n	780 <__utee_entry+0x12c>
/home/zhangzj/secure/optee_gerrit/optee_os/lib/libutee/arch/arm/user_ta_entry.c:188
     70e:	af06      	add	r7, sp, #24
ta_header_save_params():
/home/zhangzj/secure/optee_gerrit/optee_os/lib/libutee/arch/arm/user_ta_entry.c:63
     710:	4c3c      	ldr	r4, [pc, #240]	; (804 <__utee_entry+0x1b0>)
entry_invoke_command():
/home/zhangzj/secure/optee_gerrit/optee_os/lib/libutee/arch/arm/user_ta_entry.c:188
     712:	a905      	add	r1, sp, #20
     714:	4638      	mov	r0, r7
     716:	4632      	mov	r2, r6
     718:	f7ff fd8c 	bl	234 <__utee_to_param>
ta_header_save_params():
/home/zhangzj/secure/optee_gerrit/optee_os/lib/libutee/arch/arm/user_ta_entry.c:66
     71c:	463d      	mov	r5, r7
entry_invoke_command():
/home/zhangzj/secure/optee_gerrit/optee_os/lib/libutee/arch/arm/user_ta_entry.c:189
     71e:	f8dd e014 	ldr.w	lr, [sp, #20]
ta_header_save_params():
/home/zhangzj/secure/optee_gerrit/optee_os/lib/libutee/arch/arm/user_ta_entry.c:66
     722:	cd0f      	ldmia	r5!, {r0, r1, r2, r3}
/home/zhangzj/secure/optee_gerrit/optee_os/lib/libutee/arch/arm/user_ta_entry.c:63
     724:	447c      	add	r4, pc
/home/zhangzj/secure/optee_gerrit/optee_os/lib/libutee/arch/arm/user_ta_entry.c:66
     726:	3404      	adds	r4, #4
/home/zhangzj/secure/optee_gerrit/optee_os/lib/libutee/arch/arm/user_ta_entry.c:63
     728:	f8c4 e024 	str.w	lr, [r4, #36]	; 0x24
/home/zhangzj/secure/optee_gerrit/optee_os/lib/libutee/arch/arm/user_ta_entry.c:66
     72c:	c40f      	stmia	r4!, {r0, r1, r2, r3}
     72e:	e895 000f 	ldmia.w	r5, {r0, r1, r2, r3}
     732:	e884 000f 	stmia.w	r4, {r0, r1, r2, r3}
entry_invoke_command():
/home/zhangzj/secure/optee_gerrit/optee_os/lib/libutee/arch/arm/user_ta_entry.c:191
     736:	4649      	mov	r1, r9
     738:	4672      	mov	r2, lr
     73a:	f8d8 0004 	ldr.w	r0, [r8, #4]
     73e:	463b      	mov	r3, r7
     740:	f7ff fcbe 	bl	c0 <TA_InvokeCommandEntryPoint>
     744:	4604      	mov	r4, r0
/home/zhangzj/secure/optee_gerrit/optee_os/lib/libutee/arch/arm/user_ta_entry.c:194
     746:	9905      	ldr	r1, [sp, #20]
     748:	4630      	mov	r0, r6
     74a:	463a      	mov	r2, r7
     74c:	f7ff fd4a 	bl	1e4 <__utee_from_param>
     750:	e017      	b.n	782 <__utee_entry+0x12e>
__utee_entry():
/home/zhangzj/secure/optee_gerrit/optee_os/lib/libutee/arch/arm/user_ta_entry.c:215
     752:	4b2d      	ldr	r3, [pc, #180]	; (808 <__utee_entry+0x1b4>)
     754:	2400      	movs	r4, #0
     756:	2201      	movs	r2, #1
     758:	482c      	ldr	r0, [pc, #176]	; (80c <__utee_entry+0x1b8>)
     75a:	21d7      	movs	r1, #215	; 0xd7
     75c:	9401      	str	r4, [sp, #4]
     75e:	447b      	add	r3, pc
     760:	4478      	add	r0, pc
     762:	9300      	str	r3, [sp, #0]
     764:	4613      	mov	r3, r2
     766:	f003 fc69 	bl	403c <trace_printf>
     76a:	4620      	mov	r0, r4
/home/zhangzj/secure/optee_gerrit/optee_os/lib/libutee/arch/arm/user_ta_entry.c:214
     76c:	f04f 34ff 	mov.w	r4, #4294967295	; 0xffffffff
/home/zhangzj/secure/optee_gerrit/optee_os/lib/libutee/arch/arm/user_ta_entry.c:215
     770:	f008 f864 	bl	883c <__TEE_Panic>
/home/zhangzj/secure/optee_gerrit/optee_os/lib/libutee/arch/arm/user_ta_entry.c:216
     774:	e005      	b.n	782 <__utee_entry+0x12e>
entry_open_session():
/home/zhangzj/secure/optee_gerrit/optee_os/lib/libutee/arch/arm/user_ta_entry.c:147
     776:	4638      	mov	r0, r7
     778:	f7ff ff2c 	bl	5d4 <ta_header_get_session>
/home/zhangzj/secure/optee_gerrit/optee_os/lib/libutee/arch/arm/user_ta_entry.c:148
     77c:	4681      	mov	r9, r0
     77e:	b948      	cbnz	r0, 794 <__utee_entry+0x140>
entry_close_session():
/home/zhangzj/secure/optee_gerrit/optee_os/lib/libutee/arch/arm/user_ta_entry.c:169
     780:	4c19      	ldr	r4, [pc, #100]	; (7e8 <__utee_entry+0x194>)
ta_header_save_params():
/home/zhangzj/secure/optee_gerrit/optee_os/lib/libutee/arch/arm/user_ta_entry.c:63
     782:	4b23      	ldr	r3, [pc, #140]	; (810 <__utee_entry+0x1bc>)
     784:	2200      	movs	r2, #0
     786:	447b      	add	r3, pc
     788:	629a      	str	r2, [r3, #40]	; 0x28
     78a:	f7ff ff59 	bl	640 <ta_header_save_params.part.0>
__utee_entry():
/home/zhangzj/secure/optee_gerrit/optee_os/lib/libutee/arch/arm/user_ta_entry.c:219
     78e:	4620      	mov	r0, r4
     790:	f000 e842 	blx	818 <utee_return>
entry_open_session():
/home/zhangzj/secure/optee_gerrit/optee_os/lib/libutee/arch/arm/user_ta_entry.c:151
     794:	f10d 0818 	add.w	r8, sp, #24
ta_header_save_params():
/home/zhangzj/secure/optee_gerrit/optee_os/lib/libutee/arch/arm/user_ta_entry.c:63
     798:	4c1e      	ldr	r4, [pc, #120]	; (814 <__utee_entry+0x1c0>)
entry_open_session():
/home/zhangzj/secure/optee_gerrit/optee_os/lib/libutee/arch/arm/user_ta_entry.c:151
     79a:	a905      	add	r1, sp, #20
     79c:	4640      	mov	r0, r8
     79e:	4632      	mov	r2, r6
     7a0:	f7ff fd48 	bl	234 <__utee_to_param>
ta_header_save_params():
/home/zhangzj/secure/optee_gerrit/optee_os/lib/libutee/arch/arm/user_ta_entry.c:66
     7a4:	4645      	mov	r5, r8
entry_open_session():
/home/zhangzj/secure/optee_gerrit/optee_os/lib/libutee/arch/arm/user_ta_entry.c:152
     7a6:	f8dd e014 	ldr.w	lr, [sp, #20]
ta_header_save_params():
/home/zhangzj/secure/optee_gerrit/optee_os/lib/libutee/arch/arm/user_ta_entry.c:66
     7aa:	cd0f      	ldmia	r5!, {r0, r1, r2, r3}
/home/zhangzj/secure/optee_gerrit/optee_os/lib/libutee/arch/arm/user_ta_entry.c:63
     7ac:	447c      	add	r4, pc
/home/zhangzj/secure/optee_gerrit/optee_os/lib/libutee/arch/arm/user_ta_entry.c:66
     7ae:	3404      	adds	r4, #4
/home/zhangzj/secure/optee_gerrit/optee_os/lib/libutee/arch/arm/user_ta_entry.c:63
     7b0:	f8c4 e024 	str.w	lr, [r4, #36]	; 0x24
/home/zhangzj/secure/optee_gerrit/optee_os/lib/libutee/arch/arm/user_ta_entry.c:66
     7b4:	c40f      	stmia	r4!, {r0, r1, r2, r3}
     7b6:	e895 000f 	ldmia.w	r5, {r0, r1, r2, r3}
     7ba:	e884 000f 	stmia.w	r4, {r0, r1, r2, r3}
entry_open_session():
/home/zhangzj/secure/optee_gerrit/optee_os/lib/libutee/arch/arm/user_ta_entry.c:154
     7be:	4641      	mov	r1, r8
     7c0:	f109 0204 	add.w	r2, r9, #4
     7c4:	4670      	mov	r0, lr
     7c6:	f7ff fc3d 	bl	44 <TA_OpenSessionEntryPoint>
     7ca:	4604      	mov	r4, r0
/home/zhangzj/secure/optee_gerrit/optee_os/lib/libutee/arch/arm/user_ta_entry.c:157
     7cc:	9905      	ldr	r1, [sp, #20]
     7ce:	4630      	mov	r0, r6
     7d0:	4642      	mov	r2, r8
     7d2:	f7ff fd07 	bl	1e4 <__utee_from_param>
/home/zhangzj/secure/optee_gerrit/optee_os/lib/libutee/arch/arm/user_ta_entry.c:159
     7d6:	2c00      	cmp	r4, #0
     7d8:	d0d3      	beq.n	782 <__utee_entry+0x12e>
/home/zhangzj/secure/optee_gerrit/optee_os/lib/libutee/arch/arm/user_ta_entry.c:160
     7da:	4638      	mov	r0, r7
     7dc:	f7ff ff08 	bl	5f0 <ta_header_remove_session>
     7e0:	e7cf      	b.n	782 <__utee_entry+0x12e>
ta_header_add_session():
/home/zhangzj/secure/optee_gerrit/optee_os/lib/libutee/arch/arm/user_ta_entry.c:109
     7e2:	4c02      	ldr	r4, [pc, #8]	; (7ec <__utee_entry+0x198>)
     7e4:	e7cd      	b.n	782 <__utee_entry+0x12e>
     7e6:	bf00      	nop
     7e8:	ffff0007 	.word	0xffff0007
     7ec:	ffff000c 	.word	0xffff000c
     7f0:	00009978 	.word	0x00009978
     7f4:	00012a28 	.word	0x00012a28
     7f8:	0000a9de 	.word	0x0000a9de
     7fc:	00000020 	.word	0x00000020
     800:	0000000c 	.word	0x0000000c
     804:	00012980 	.word	0x00012980
     808:	00009643 	.word	0x00009643
     80c:	0000964c 	.word	0x0000964c
     810:	0001291e 	.word	0x0001291e
     814:	000128f8 	.word	0x000128f8

00000818 <utee_return>:
utee_return():
/home/zhangzj/secure/optee_gerrit/optee_os/lib/libutee/arch/arm/utee_syscalls_asm.S:30
     818:	e92d40e0 	push	{r5, r6, r7, lr}
     81c:	e3a07000 	mov	r7, #0
     820:	e3a06000 	mov	r6, #0
     824:	ef000000 	svc	0x00000000
     828:	e8bd80e0 	pop	{r5, r6, r7, pc}

0000082c <utee_log>:
utee_log():
/home/zhangzj/secure/optee_gerrit/optee_os/lib/libutee/arch/arm/utee_syscalls_asm.S:32
     82c:	e92d40e0 	push	{r5, r6, r7, lr}
     830:	e3a07001 	mov	r7, #1
     834:	e3a06000 	mov	r6, #0
     838:	ef000000 	svc	0x00000000
     83c:	e8bd80e0 	pop	{r5, r6, r7, pc}

00000840 <utee_panic>:
utee_panic():
/home/zhangzj/secure/optee_gerrit/optee_os/lib/libutee/arch/arm/utee_syscalls_asm.S:34
     840:	e92d40e0 	push	{r5, r6, r7, lr}
     844:	e3a07002 	mov	r7, #2
     848:	e3a06000 	mov	r6, #0
     84c:	ef000000 	svc	0x00000000
     850:	e8bd80e0 	pop	{r5, r6, r7, pc}

00000854 <utee_dummy>:
utee_dummy():
/home/zhangzj/secure/optee_gerrit/optee_os/lib/libutee/arch/arm/utee_syscalls_asm.S:36
     854:	e92d40e0 	push	{r5, r6, r7, lr}
     858:	e3a07003 	mov	r7, #3
     85c:	e3a06000 	mov	r6, #0
     860:	ef000000 	svc	0x00000000
     864:	e8bd80e0 	pop	{r5, r6, r7, pc}

00000868 <utee_dummy_7args>:
utee_dummy_7args():
/home/zhangzj/secure/optee_gerrit/optee_os/lib/libutee/arch/arm/utee_syscalls_asm.S:38
     868:	e92d40e0 	push	{r5, r6, r7, lr}
     86c:	e3a07004 	mov	r7, #4
     870:	e3a06003 	mov	r6, #3
     874:	e28d5010 	add	r5, sp, #16
     878:	ef000000 	svc	0x00000000
     87c:	e8bd80e0 	pop	{r5, r6, r7, pc}

00000880 <utee_nocall>:
utee_nocall():
/home/zhangzj/secure/optee_gerrit/optee_os/lib/libutee/arch/arm/utee_syscalls_asm.S:40
     880:	e92d40e0 	push	{r5, r6, r7, lr}
     884:	e3a0704b 	mov	r7, #75	; 0x4b
     888:	e3a06000 	mov	r6, #0
     88c:	ef000000 	svc	0x00000000
     890:	e8bd80e0 	pop	{r5, r6, r7, pc}

00000894 <utee_open_ta_session>:
utee_open_ta_session():
/home/zhangzj/secure/optee_gerrit/optee_os/lib/libutee/arch/arm/utee_syscalls_asm.S:42
     894:	e92d40e0 	push	{r5, r6, r7, lr}
     898:	e3a07006 	mov	r7, #6
     89c:	e3a06001 	mov	r6, #1
     8a0:	e28d5010 	add	r5, sp, #16
     8a4:	ef000000 	svc	0x00000000
     8a8:	e8bd80e0 	pop	{r5, r6, r7, pc}

000008ac <utee_close_ta_session>:
utee_close_ta_session():
/home/zhangzj/secure/optee_gerrit/optee_os/lib/libutee/arch/arm/utee_syscalls_asm.S:44
     8ac:	e92d40e0 	push	{r5, r6, r7, lr}
     8b0:	e3a07007 	mov	r7, #7
     8b4:	e3a06000 	mov	r6, #0
     8b8:	ef000000 	svc	0x00000000
     8bc:	e8bd80e0 	pop	{r5, r6, r7, pc}

000008c0 <utee_invoke_ta_command>:
utee_invoke_ta_command():
/home/zhangzj/secure/optee_gerrit/optee_os/lib/libutee/arch/arm/utee_syscalls_asm.S:46
     8c0:	e92d40e0 	push	{r5, r6, r7, lr}
     8c4:	e3a07008 	mov	r7, #8
     8c8:	e3a06001 	mov	r6, #1
     8cc:	e28d5010 	add	r5, sp, #16
     8d0:	ef000000 	svc	0x00000000
     8d4:	e8bd80e0 	pop	{r5, r6, r7, pc}

000008d8 <utee_get_cancellation_flag>:
utee_get_cancellation_flag():
/home/zhangzj/secure/optee_gerrit/optee_os/lib/libutee/arch/arm/utee_syscalls_asm.S:48
     8d8:	e92d40e0 	push	{r5, r6, r7, lr}
     8dc:	e3a0700a 	mov	r7, #10
     8e0:	e3a06000 	mov	r6, #0
     8e4:	ef000000 	svc	0x00000000
     8e8:	e8bd80e0 	pop	{r5, r6, r7, pc}

000008ec <utee_check_access_rights>:
utee_check_access_rights():
/home/zhangzj/secure/optee_gerrit/optee_os/lib/libutee/arch/arm/utee_syscalls_asm.S:51
     8ec:	e92d40e0 	push	{r5, r6, r7, lr}
     8f0:	e3a07009 	mov	r7, #9
     8f4:	e3a06000 	mov	r6, #0
     8f8:	ef000000 	svc	0x00000000
     8fc:	e8bd80e0 	pop	{r5, r6, r7, pc}

00000900 <utee_unmask_cancellation>:
utee_unmask_cancellation():
/home/zhangzj/secure/optee_gerrit/optee_os/lib/libutee/arch/arm/utee_syscalls_asm.S:53
     900:	e92d40e0 	push	{r5, r6, r7, lr}
     904:	e3a0700b 	mov	r7, #11
     908:	e3a06000 	mov	r6, #0
     90c:	ef000000 	svc	0x00000000
     910:	e8bd80e0 	pop	{r5, r6, r7, pc}

00000914 <utee_mask_cancellation>:
utee_mask_cancellation():
/home/zhangzj/secure/optee_gerrit/optee_os/lib/libutee/arch/arm/utee_syscalls_asm.S:55
     914:	e92d40e0 	push	{r5, r6, r7, lr}
     918:	e3a0700c 	mov	r7, #12
     91c:	e3a06000 	mov	r6, #0
     920:	ef000000 	svc	0x00000000
     924:	e8bd80e0 	pop	{r5, r6, r7, pc}

00000928 <utee_wait>:
utee_wait():
/home/zhangzj/secure/optee_gerrit/optee_os/lib/libutee/arch/arm/utee_syscalls_asm.S:57
     928:	e92d40e0 	push	{r5, r6, r7, lr}
     92c:	e3a0700d 	mov	r7, #13
     930:	e3a06000 	mov	r6, #0
     934:	ef000000 	svc	0x00000000
     938:	e8bd80e0 	pop	{r5, r6, r7, pc}

0000093c <utee_get_time>:
utee_get_time():
/home/zhangzj/secure/optee_gerrit/optee_os/lib/libutee/arch/arm/utee_syscalls_asm.S:59
     93c:	e92d40e0 	push	{r5, r6, r7, lr}
     940:	e3a0700e 	mov	r7, #14
     944:	e3a06000 	mov	r6, #0
     948:	ef000000 	svc	0x00000000
     94c:	e8bd80e0 	pop	{r5, r6, r7, pc}

00000950 <utee_set_ta_time>:
utee_set_ta_time():
/home/zhangzj/secure/optee_gerrit/optee_os/lib/libutee/arch/arm/utee_syscalls_asm.S:61
     950:	e92d40e0 	push	{r5, r6, r7, lr}
     954:	e3a0700f 	mov	r7, #15
     958:	e3a06000 	mov	r6, #0
     95c:	ef000000 	svc	0x00000000
     960:	e8bd80e0 	pop	{r5, r6, r7, pc}

00000964 <utee_cryp_state_alloc>:
utee_cryp_state_alloc():
/home/zhangzj/secure/optee_gerrit/optee_os/lib/libutee/arch/arm/utee_syscalls_asm.S:63
     964:	e92d40e0 	push	{r5, r6, r7, lr}
     968:	e3a07010 	mov	r7, #16
     96c:	e3a06001 	mov	r6, #1
     970:	e28d5010 	add	r5, sp, #16
     974:	ef000000 	svc	0x00000000
     978:	e8bd80e0 	pop	{r5, r6, r7, pc}

0000097c <utee_cryp_state_copy>:
utee_cryp_state_copy():
/home/zhangzj/secure/optee_gerrit/optee_os/lib/libutee/arch/arm/utee_syscalls_asm.S:65
     97c:	e92d40e0 	push	{r5, r6, r7, lr}
     980:	e3a07011 	mov	r7, #17
     984:	e3a06000 	mov	r6, #0
     988:	ef000000 	svc	0x00000000
     98c:	e8bd80e0 	pop	{r5, r6, r7, pc}

00000990 <utee_cryp_state_free>:
utee_cryp_state_free():
/home/zhangzj/secure/optee_gerrit/optee_os/lib/libutee/arch/arm/utee_syscalls_asm.S:67
     990:	e92d40e0 	push	{r5, r6, r7, lr}
     994:	e3a07012 	mov	r7, #18
     998:	e3a06000 	mov	r6, #0
     99c:	ef000000 	svc	0x00000000
     9a0:	e8bd80e0 	pop	{r5, r6, r7, pc}

000009a4 <utee_hash_init>:
utee_hash_init():
/home/zhangzj/secure/optee_gerrit/optee_os/lib/libutee/arch/arm/utee_syscalls_asm.S:69
     9a4:	e92d40e0 	push	{r5, r6, r7, lr}
     9a8:	e3a07013 	mov	r7, #19
     9ac:	e3a06000 	mov	r6, #0
     9b0:	ef000000 	svc	0x00000000
     9b4:	e8bd80e0 	pop	{r5, r6, r7, pc}

000009b8 <utee_hash_update>:
utee_hash_update():
/home/zhangzj/secure/optee_gerrit/optee_os/lib/libutee/arch/arm/utee_syscalls_asm.S:71
     9b8:	e92d40e0 	push	{r5, r6, r7, lr}
     9bc:	e3a07014 	mov	r7, #20
     9c0:	e3a06000 	mov	r6, #0
     9c4:	ef000000 	svc	0x00000000
     9c8:	e8bd80e0 	pop	{r5, r6, r7, pc}

000009cc <utee_hash_final>:
utee_hash_final():
/home/zhangzj/secure/optee_gerrit/optee_os/lib/libutee/arch/arm/utee_syscalls_asm.S:73
     9cc:	e92d40e0 	push	{r5, r6, r7, lr}
     9d0:	e3a07015 	mov	r7, #21
     9d4:	e3a06001 	mov	r6, #1
     9d8:	e28d5010 	add	r5, sp, #16
     9dc:	ef000000 	svc	0x00000000
     9e0:	e8bd80e0 	pop	{r5, r6, r7, pc}

000009e4 <utee_cipher_init>:
utee_cipher_init():
/home/zhangzj/secure/optee_gerrit/optee_os/lib/libutee/arch/arm/utee_syscalls_asm.S:75
     9e4:	e92d40e0 	push	{r5, r6, r7, lr}
     9e8:	e3a07016 	mov	r7, #22
     9ec:	e3a06000 	mov	r6, #0
     9f0:	ef000000 	svc	0x00000000
     9f4:	e8bd80e0 	pop	{r5, r6, r7, pc}

000009f8 <utee_cipher_update>:
utee_cipher_update():
/home/zhangzj/secure/optee_gerrit/optee_os/lib/libutee/arch/arm/utee_syscalls_asm.S:77
     9f8:	e92d40e0 	push	{r5, r6, r7, lr}
     9fc:	e3a07017 	mov	r7, #23
     a00:	e3a06001 	mov	r6, #1
     a04:	e28d5010 	add	r5, sp, #16
     a08:	ef000000 	svc	0x00000000
     a0c:	e8bd80e0 	pop	{r5, r6, r7, pc}

00000a10 <utee_cipher_final>:
utee_cipher_final():
/home/zhangzj/secure/optee_gerrit/optee_os/lib/libutee/arch/arm/utee_syscalls_asm.S:79
     a10:	e92d40e0 	push	{r5, r6, r7, lr}
     a14:	e3a07018 	mov	r7, #24
     a18:	e3a06001 	mov	r6, #1
     a1c:	e28d5010 	add	r5, sp, #16
     a20:	ef000000 	svc	0x00000000
     a24:	e8bd80e0 	pop	{r5, r6, r7, pc}

00000a28 <utee_cryp_obj_get_info>:
utee_cryp_obj_get_info():
/home/zhangzj/secure/optee_gerrit/optee_os/lib/libutee/arch/arm/utee_syscalls_asm.S:81
     a28:	e92d40e0 	push	{r5, r6, r7, lr}
     a2c:	e3a07019 	mov	r7, #25
     a30:	e3a06000 	mov	r6, #0
     a34:	ef000000 	svc	0x00000000
     a38:	e8bd80e0 	pop	{r5, r6, r7, pc}

00000a3c <utee_cryp_obj_restrict_usage>:
utee_cryp_obj_restrict_usage():
/home/zhangzj/secure/optee_gerrit/optee_os/lib/libutee/arch/arm/utee_syscalls_asm.S:83
     a3c:	e92d40e0 	push	{r5, r6, r7, lr}
     a40:	e3a0701a 	mov	r7, #26
     a44:	e3a06000 	mov	r6, #0
     a48:	ef000000 	svc	0x00000000
     a4c:	e8bd80e0 	pop	{r5, r6, r7, pc}

00000a50 <utee_cryp_obj_get_attr>:
utee_cryp_obj_get_attr():
/home/zhangzj/secure/optee_gerrit/optee_os/lib/libutee/arch/arm/utee_syscalls_asm.S:86
     a50:	e92d40e0 	push	{r5, r6, r7, lr}
     a54:	e3a0701b 	mov	r7, #27
     a58:	e3a06000 	mov	r6, #0
     a5c:	ef000000 	svc	0x00000000
     a60:	e8bd80e0 	pop	{r5, r6, r7, pc}

00000a64 <utee_cryp_obj_alloc>:
utee_cryp_obj_alloc():
/home/zhangzj/secure/optee_gerrit/optee_os/lib/libutee/arch/arm/utee_syscalls_asm.S:88
     a64:	e92d40e0 	push	{r5, r6, r7, lr}
     a68:	e3a0701c 	mov	r7, #28
     a6c:	e3a06000 	mov	r6, #0
     a70:	ef000000 	svc	0x00000000
     a74:	e8bd80e0 	pop	{r5, r6, r7, pc}

00000a78 <utee_cryp_obj_close>:
utee_cryp_obj_close():
/home/zhangzj/secure/optee_gerrit/optee_os/lib/libutee/arch/arm/utee_syscalls_asm.S:90
     a78:	e92d40e0 	push	{r5, r6, r7, lr}
     a7c:	e3a0701d 	mov	r7, #29
     a80:	e3a06000 	mov	r6, #0
     a84:	ef000000 	svc	0x00000000
     a88:	e8bd80e0 	pop	{r5, r6, r7, pc}

00000a8c <utee_cryp_obj_reset>:
utee_cryp_obj_reset():
/home/zhangzj/secure/optee_gerrit/optee_os/lib/libutee/arch/arm/utee_syscalls_asm.S:92
     a8c:	e92d40e0 	push	{r5, r6, r7, lr}
     a90:	e3a0701e 	mov	r7, #30
     a94:	e3a06000 	mov	r6, #0
     a98:	ef000000 	svc	0x00000000
     a9c:	e8bd80e0 	pop	{r5, r6, r7, pc}

00000aa0 <utee_cryp_obj_populate>:
utee_cryp_obj_populate():
/home/zhangzj/secure/optee_gerrit/optee_os/lib/libutee/arch/arm/utee_syscalls_asm.S:94
     aa0:	e92d40e0 	push	{r5, r6, r7, lr}
     aa4:	e3a0701f 	mov	r7, #31
     aa8:	e3a06000 	mov	r6, #0
     aac:	ef000000 	svc	0x00000000
     ab0:	e8bd80e0 	pop	{r5, r6, r7, pc}

00000ab4 <utee_cryp_obj_copy>:
utee_cryp_obj_copy():
/home/zhangzj/secure/optee_gerrit/optee_os/lib/libutee/arch/arm/utee_syscalls_asm.S:96
     ab4:	e92d40e0 	push	{r5, r6, r7, lr}
     ab8:	e3a07020 	mov	r7, #32
     abc:	e3a06000 	mov	r6, #0
     ac0:	ef000000 	svc	0x00000000
     ac4:	e8bd80e0 	pop	{r5, r6, r7, pc}

00000ac8 <utee_cryp_derive_key>:
utee_cryp_derive_key():
/home/zhangzj/secure/optee_gerrit/optee_os/lib/libutee/arch/arm/utee_syscalls_asm.S:98
     ac8:	e92d40e0 	push	{r5, r6, r7, lr}
     acc:	e3a07021 	mov	r7, #33	; 0x21
     ad0:	e3a06000 	mov	r6, #0
     ad4:	ef000000 	svc	0x00000000
     ad8:	e8bd80e0 	pop	{r5, r6, r7, pc}

00000adc <utee_cryp_random_number_generate>:
utee_cryp_random_number_generate():
/home/zhangzj/secure/optee_gerrit/optee_os/lib/libutee/arch/arm/utee_syscalls_asm.S:100
     adc:	e92d40e0 	push	{r5, r6, r7, lr}
     ae0:	e3a07022 	mov	r7, #34	; 0x22
     ae4:	e3a06000 	mov	r6, #0
     ae8:	ef000000 	svc	0x00000000
     aec:	e8bd80e0 	pop	{r5, r6, r7, pc}

00000af0 <utee_authenc_init>:
utee_authenc_init():
/home/zhangzj/secure/optee_gerrit/optee_os/lib/libutee/arch/arm/utee_syscalls_asm.S:103
     af0:	e92d40e0 	push	{r5, r6, r7, lr}
     af4:	e3a07023 	mov	r7, #35	; 0x23
     af8:	e3a06002 	mov	r6, #2
     afc:	e28d5010 	add	r5, sp, #16
     b00:	ef000000 	svc	0x00000000
     b04:	e8bd80e0 	pop	{r5, r6, r7, pc}

00000b08 <utee_authenc_update_aad>:
utee_authenc_update_aad():
/home/zhangzj/secure/optee_gerrit/optee_os/lib/libutee/arch/arm/utee_syscalls_asm.S:105
     b08:	e92d40e0 	push	{r5, r6, r7, lr}
     b0c:	e3a07024 	mov	r7, #36	; 0x24
     b10:	e3a06000 	mov	r6, #0
     b14:	ef000000 	svc	0x00000000
     b18:	e8bd80e0 	pop	{r5, r6, r7, pc}

00000b1c <utee_authenc_update_payload>:
utee_authenc_update_payload():
/home/zhangzj/secure/optee_gerrit/optee_os/lib/libutee/arch/arm/utee_syscalls_asm.S:107
     b1c:	e92d40e0 	push	{r5, r6, r7, lr}
     b20:	e3a07025 	mov	r7, #37	; 0x25
     b24:	e3a06001 	mov	r6, #1
     b28:	e28d5010 	add	r5, sp, #16
     b2c:	ef000000 	svc	0x00000000
     b30:	e8bd80e0 	pop	{r5, r6, r7, pc}

00000b34 <utee_authenc_enc_final>:
utee_authenc_enc_final():
/home/zhangzj/secure/optee_gerrit/optee_os/lib/libutee/arch/arm/utee_syscalls_asm.S:110
     b34:	e92d40e0 	push	{r5, r6, r7, lr}
     b38:	e3a07026 	mov	r7, #38	; 0x26
     b3c:	e3a06003 	mov	r6, #3
     b40:	e28d5010 	add	r5, sp, #16
     b44:	ef000000 	svc	0x00000000
     b48:	e8bd80e0 	pop	{r5, r6, r7, pc}

00000b4c <utee_authenc_dec_final>:
utee_authenc_dec_final():
/home/zhangzj/secure/optee_gerrit/optee_os/lib/libutee/arch/arm/utee_syscalls_asm.S:112
     b4c:	e92d40e0 	push	{r5, r6, r7, lr}
     b50:	e3a07027 	mov	r7, #39	; 0x27
     b54:	e3a06003 	mov	r6, #3
     b58:	e28d5010 	add	r5, sp, #16
     b5c:	ef000000 	svc	0x00000000
     b60:	e8bd80e0 	pop	{r5, r6, r7, pc}

00000b64 <utee_asymm_operate>:
utee_asymm_operate():
/home/zhangzj/secure/optee_gerrit/optee_os/lib/libutee/arch/arm/utee_syscalls_asm.S:114
     b64:	e92d40e0 	push	{r5, r6, r7, lr}
     b68:	e3a07028 	mov	r7, #40	; 0x28
     b6c:	e3a06003 	mov	r6, #3
     b70:	e28d5010 	add	r5, sp, #16
     b74:	ef000000 	svc	0x00000000
     b78:	e8bd80e0 	pop	{r5, r6, r7, pc}

00000b7c <utee_asymm_verify>:
utee_asymm_verify():
/home/zhangzj/secure/optee_gerrit/optee_os/lib/libutee/arch/arm/utee_syscalls_asm.S:116
     b7c:	e92d40e0 	push	{r5, r6, r7, lr}
     b80:	e3a07029 	mov	r7, #41	; 0x29
     b84:	e3a06003 	mov	r6, #3
     b88:	e28d5010 	add	r5, sp, #16
     b8c:	ef000000 	svc	0x00000000
     b90:	e8bd80e0 	pop	{r5, r6, r7, pc}

00000b94 <utee_storage_obj_open>:
utee_storage_obj_open():
/home/zhangzj/secure/optee_gerrit/optee_os/lib/libutee/arch/arm/utee_syscalls_asm.S:118
     b94:	e92d40e0 	push	{r5, r6, r7, lr}
     b98:	e3a0702a 	mov	r7, #42	; 0x2a
     b9c:	e3a06001 	mov	r6, #1
     ba0:	e28d5010 	add	r5, sp, #16
     ba4:	ef000000 	svc	0x00000000
     ba8:	e8bd80e0 	pop	{r5, r6, r7, pc}

00000bac <utee_storage_obj_create>:
utee_storage_obj_create():
/home/zhangzj/secure/optee_gerrit/optee_os/lib/libutee/arch/arm/utee_syscalls_asm.S:120
     bac:	e92d40e0 	push	{r5, r6, r7, lr}
     bb0:	e3a0702b 	mov	r7, #43	; 0x2b
     bb4:	e3a06004 	mov	r6, #4
     bb8:	e28d5010 	add	r5, sp, #16
     bbc:	ef000000 	svc	0x00000000
     bc0:	e8bd80e0 	pop	{r5, r6, r7, pc}

00000bc4 <utee_storage_obj_del>:
utee_storage_obj_del():
/home/zhangzj/secure/optee_gerrit/optee_os/lib/libutee/arch/arm/utee_syscalls_asm.S:122
     bc4:	e92d40e0 	push	{r5, r6, r7, lr}
     bc8:	e3a0702c 	mov	r7, #44	; 0x2c
     bcc:	e3a06000 	mov	r6, #0
     bd0:	ef000000 	svc	0x00000000
     bd4:	e8bd80e0 	pop	{r5, r6, r7, pc}

00000bd8 <utee_storage_obj_rename>:
utee_storage_obj_rename():
/home/zhangzj/secure/optee_gerrit/optee_os/lib/libutee/arch/arm/utee_syscalls_asm.S:124
     bd8:	e92d40e0 	push	{r5, r6, r7, lr}
     bdc:	e3a0702d 	mov	r7, #45	; 0x2d
     be0:	e3a06000 	mov	r6, #0
     be4:	ef000000 	svc	0x00000000
     be8:	e8bd80e0 	pop	{r5, r6, r7, pc}

00000bec <utee_storage_alloc_enum>:
utee_storage_alloc_enum():
/home/zhangzj/secure/optee_gerrit/optee_os/lib/libutee/arch/arm/utee_syscalls_asm.S:126
     bec:	e92d40e0 	push	{r5, r6, r7, lr}
     bf0:	e3a0702e 	mov	r7, #46	; 0x2e
     bf4:	e3a06000 	mov	r6, #0
     bf8:	ef000000 	svc	0x00000000
     bfc:	e8bd80e0 	pop	{r5, r6, r7, pc}

00000c00 <utee_storage_free_enum>:
utee_storage_free_enum():
/home/zhangzj/secure/optee_gerrit/optee_os/lib/libutee/arch/arm/utee_syscalls_asm.S:128
     c00:	e92d40e0 	push	{r5, r6, r7, lr}
     c04:	e3a0702f 	mov	r7, #47	; 0x2f
     c08:	e3a06000 	mov	r6, #0
     c0c:	ef000000 	svc	0x00000000
     c10:	e8bd80e0 	pop	{r5, r6, r7, pc}

00000c14 <utee_storage_reset_enum>:
utee_storage_reset_enum():
/home/zhangzj/secure/optee_gerrit/optee_os/lib/libutee/arch/arm/utee_syscalls_asm.S:130
     c14:	e92d40e0 	push	{r5, r6, r7, lr}
     c18:	e3a07030 	mov	r7, #48	; 0x30
     c1c:	e3a06000 	mov	r6, #0
     c20:	ef000000 	svc	0x00000000
     c24:	e8bd80e0 	pop	{r5, r6, r7, pc}

00000c28 <utee_storage_start_enum>:
utee_storage_start_enum():
/home/zhangzj/secure/optee_gerrit/optee_os/lib/libutee/arch/arm/utee_syscalls_asm.S:132
     c28:	e92d40e0 	push	{r5, r6, r7, lr}
     c2c:	e3a07031 	mov	r7, #49	; 0x31
     c30:	e3a06000 	mov	r6, #0
     c34:	ef000000 	svc	0x00000000
     c38:	e8bd80e0 	pop	{r5, r6, r7, pc}

00000c3c <utee_storage_next_enum>:
utee_storage_next_enum():
/home/zhangzj/secure/optee_gerrit/optee_os/lib/libutee/arch/arm/utee_syscalls_asm.S:134
     c3c:	e92d40e0 	push	{r5, r6, r7, lr}
     c40:	e3a07032 	mov	r7, #50	; 0x32
     c44:	e3a06000 	mov	r6, #0
     c48:	ef000000 	svc	0x00000000
     c4c:	e8bd80e0 	pop	{r5, r6, r7, pc}

00000c50 <utee_storage_obj_read>:
utee_storage_obj_read():
/home/zhangzj/secure/optee_gerrit/optee_os/lib/libutee/arch/arm/utee_syscalls_asm.S:136
     c50:	e92d40e0 	push	{r5, r6, r7, lr}
     c54:	e3a07033 	mov	r7, #51	; 0x33
     c58:	e3a06000 	mov	r6, #0
     c5c:	ef000000 	svc	0x00000000
     c60:	e8bd80e0 	pop	{r5, r6, r7, pc}

00000c64 <utee_storage_obj_write>:
utee_storage_obj_write():
/home/zhangzj/secure/optee_gerrit/optee_os/lib/libutee/arch/arm/utee_syscalls_asm.S:138
     c64:	e92d40e0 	push	{r5, r6, r7, lr}
     c68:	e3a07034 	mov	r7, #52	; 0x34
     c6c:	e3a06000 	mov	r6, #0
     c70:	ef000000 	svc	0x00000000
     c74:	e8bd80e0 	pop	{r5, r6, r7, pc}

00000c78 <utee_storage_obj_trunc>:
utee_storage_obj_trunc():
/home/zhangzj/secure/optee_gerrit/optee_os/lib/libutee/arch/arm/utee_syscalls_asm.S:140
     c78:	e92d40e0 	push	{r5, r6, r7, lr}
     c7c:	e3a07035 	mov	r7, #53	; 0x35
     c80:	e3a06000 	mov	r6, #0
     c84:	ef000000 	svc	0x00000000
     c88:	e8bd80e0 	pop	{r5, r6, r7, pc}

00000c8c <utee_storage_obj_seek>:
utee_storage_obj_seek():
/home/zhangzj/secure/optee_gerrit/optee_os/lib/libutee/arch/arm/utee_syscalls_asm.S:142
     c8c:	e92d40e0 	push	{r5, r6, r7, lr}
     c90:	e3a07036 	mov	r7, #54	; 0x36
     c94:	e3a06000 	mov	r6, #0
     c98:	ef000000 	svc	0x00000000
     c9c:	e8bd80e0 	pop	{r5, r6, r7, pc}

00000ca0 <utee_cryp_obj_generate_key>:
utee_cryp_obj_generate_key():
/home/zhangzj/secure/optee_gerrit/optee_os/lib/libutee/arch/arm/utee_syscalls_asm.S:144
     ca0:	e92d40e0 	push	{r5, r6, r7, lr}
     ca4:	e3a07037 	mov	r7, #55	; 0x37
     ca8:	e3a06000 	mov	r6, #0
     cac:	ef000000 	svc	0x00000000
     cb0:	e8bd80e0 	pop	{r5, r6, r7, pc}

00000cb4 <utee_se_service_open>:
utee_se_service_open():
/home/zhangzj/secure/optee_gerrit/optee_os/lib/libutee/arch/arm/utee_syscalls_asm.S:147
     cb4:	e92d40e0 	push	{r5, r6, r7, lr}
     cb8:	e3a07038 	mov	r7, #56	; 0x38
     cbc:	e3a06000 	mov	r6, #0
     cc0:	ef000000 	svc	0x00000000
     cc4:	e8bd80e0 	pop	{r5, r6, r7, pc}

00000cc8 <utee_se_service_close>:
utee_se_service_close():
/home/zhangzj/secure/optee_gerrit/optee_os/lib/libutee/arch/arm/utee_syscalls_asm.S:149
     cc8:	e92d40e0 	push	{r5, r6, r7, lr}
     ccc:	e3a07039 	mov	r7, #57	; 0x39
     cd0:	e3a06000 	mov	r6, #0
     cd4:	ef000000 	svc	0x00000000
     cd8:	e8bd80e0 	pop	{r5, r6, r7, pc}

00000cdc <utee_se_service_get_readers>:
utee_se_service_get_readers():
/home/zhangzj/secure/optee_gerrit/optee_os/lib/libutee/arch/arm/utee_syscalls_asm.S:151
     cdc:	e92d40e0 	push	{r5, r6, r7, lr}
     ce0:	e3a0703a 	mov	r7, #58	; 0x3a
     ce4:	e3a06000 	mov	r6, #0
     ce8:	ef000000 	svc	0x00000000
     cec:	e8bd80e0 	pop	{r5, r6, r7, pc}

00000cf0 <utee_se_reader_get_prop>:
utee_se_reader_get_prop():
/home/zhangzj/secure/optee_gerrit/optee_os/lib/libutee/arch/arm/utee_syscalls_asm.S:154
     cf0:	e92d40e0 	push	{r5, r6, r7, lr}
     cf4:	e3a0703b 	mov	r7, #59	; 0x3b
     cf8:	e3a06000 	mov	r6, #0
     cfc:	ef000000 	svc	0x00000000
     d00:	e8bd80e0 	pop	{r5, r6, r7, pc}

00000d04 <utee_se_reader_get_name>:
utee_se_reader_get_name():
/home/zhangzj/secure/optee_gerrit/optee_os/lib/libutee/arch/arm/utee_syscalls_asm.S:157
     d04:	e92d40e0 	push	{r5, r6, r7, lr}
     d08:	e3a0703c 	mov	r7, #60	; 0x3c
     d0c:	e3a06000 	mov	r6, #0
     d10:	ef000000 	svc	0x00000000
     d14:	e8bd80e0 	pop	{r5, r6, r7, pc}

00000d18 <utee_se_reader_open_session>:
utee_se_reader_open_session():
/home/zhangzj/secure/optee_gerrit/optee_os/lib/libutee/arch/arm/utee_syscalls_asm.S:160
     d18:	e92d40e0 	push	{r5, r6, r7, lr}
     d1c:	e3a0703d 	mov	r7, #61	; 0x3d
     d20:	e3a06000 	mov	r6, #0
     d24:	ef000000 	svc	0x00000000
     d28:	e8bd80e0 	pop	{r5, r6, r7, pc}

00000d2c <utee_se_reader_close_sessions>:
utee_se_reader_close_sessions():
/home/zhangzj/secure/optee_gerrit/optee_os/lib/libutee/arch/arm/utee_syscalls_asm.S:163
     d2c:	e92d40e0 	push	{r5, r6, r7, lr}
     d30:	e3a0703e 	mov	r7, #62	; 0x3e
     d34:	e3a06000 	mov	r6, #0
     d38:	ef000000 	svc	0x00000000
     d3c:	e8bd80e0 	pop	{r5, r6, r7, pc}

00000d40 <utee_se_session_is_closed>:
utee_se_session_is_closed():
/home/zhangzj/secure/optee_gerrit/optee_os/lib/libutee/arch/arm/utee_syscalls_asm.S:166
     d40:	e92d40e0 	push	{r5, r6, r7, lr}
     d44:	e3a0703f 	mov	r7, #63	; 0x3f
     d48:	e3a06000 	mov	r6, #0
     d4c:	ef000000 	svc	0x00000000
     d50:	e8bd80e0 	pop	{r5, r6, r7, pc}

00000d54 <utee_se_session_get_atr>:
utee_se_session_get_atr():
/home/zhangzj/secure/optee_gerrit/optee_os/lib/libutee/arch/arm/utee_syscalls_asm.S:169
     d54:	e92d40e0 	push	{r5, r6, r7, lr}
     d58:	e3a07040 	mov	r7, #64	; 0x40
     d5c:	e3a06000 	mov	r6, #0
     d60:	ef000000 	svc	0x00000000
     d64:	e8bd80e0 	pop	{r5, r6, r7, pc}

00000d68 <utee_se_session_open_channel>:
utee_se_session_open_channel():
/home/zhangzj/secure/optee_gerrit/optee_os/lib/libutee/arch/arm/utee_syscalls_asm.S:172
     d68:	e92d40e0 	push	{r5, r6, r7, lr}
     d6c:	e3a07041 	mov	r7, #65	; 0x41
     d70:	e3a06001 	mov	r6, #1
     d74:	e28d5010 	add	r5, sp, #16
     d78:	ef000000 	svc	0x00000000
     d7c:	e8bd80e0 	pop	{r5, r6, r7, pc}

00000d80 <utee_se_session_close>:
utee_se_session_close():
/home/zhangzj/secure/optee_gerrit/optee_os/lib/libutee/arch/arm/utee_syscalls_asm.S:175
     d80:	e92d40e0 	push	{r5, r6, r7, lr}
     d84:	e3a07042 	mov	r7, #66	; 0x42
     d88:	e3a06000 	mov	r6, #0
     d8c:	ef000000 	svc	0x00000000
     d90:	e8bd80e0 	pop	{r5, r6, r7, pc}

00000d94 <utee_se_channel_select_next>:
utee_se_channel_select_next():
/home/zhangzj/secure/optee_gerrit/optee_os/lib/libutee/arch/arm/utee_syscalls_asm.S:178
     d94:	e92d40e0 	push	{r5, r6, r7, lr}
     d98:	e3a07043 	mov	r7, #67	; 0x43
     d9c:	e3a06000 	mov	r6, #0
     da0:	ef000000 	svc	0x00000000
     da4:	e8bd80e0 	pop	{r5, r6, r7, pc}

00000da8 <utee_se_channel_get_select_resp>:
utee_se_channel_get_select_resp():
/home/zhangzj/secure/optee_gerrit/optee_os/lib/libutee/arch/arm/utee_syscalls_asm.S:181
     da8:	e92d40e0 	push	{r5, r6, r7, lr}
     dac:	e3a07044 	mov	r7, #68	; 0x44
     db0:	e3a06000 	mov	r6, #0
     db4:	ef000000 	svc	0x00000000
     db8:	e8bd80e0 	pop	{r5, r6, r7, pc}

00000dbc <utee_se_channel_transmit>:
utee_se_channel_transmit():
/home/zhangzj/secure/optee_gerrit/optee_os/lib/libutee/arch/arm/utee_syscalls_asm.S:184
     dbc:	e92d40e0 	push	{r5, r6, r7, lr}
     dc0:	e3a07045 	mov	r7, #69	; 0x45
     dc4:	e3a06001 	mov	r6, #1
     dc8:	e28d5010 	add	r5, sp, #16
     dcc:	ef000000 	svc	0x00000000
     dd0:	e8bd80e0 	pop	{r5, r6, r7, pc}

00000dd4 <utee_se_channel_close>:
utee_se_channel_close():
/home/zhangzj/secure/optee_gerrit/optee_os/lib/libutee/arch/arm/utee_syscalls_asm.S:187
     dd4:	e92d40e0 	push	{r5, r6, r7, lr}
     dd8:	e3a07046 	mov	r7, #70	; 0x46
     ddc:	e3a06000 	mov	r6, #0
     de0:	ef000000 	svc	0x00000000
     de4:	e8bd80e0 	pop	{r5, r6, r7, pc}

00000de8 <utee_cache_operation>:
utee_cache_operation():
/home/zhangzj/secure/optee_gerrit/optee_os/lib/libutee/arch/arm/utee_syscalls_asm.S:190
     de8:	e92d40e0 	push	{r5, r6, r7, lr}
     dec:	e3a07047 	mov	r7, #71	; 0x47
     df0:	e3a06000 	mov	r6, #0
     df4:	ef000000 	svc	0x00000000
     df8:	e8bd80e0 	pop	{r5, r6, r7, pc}

00000dfc <utee_get_property>:
utee_get_property():
/home/zhangzj/secure/optee_gerrit/optee_os/lib/libutee/arch/arm/utee_syscalls_asm.S:192
     dfc:	e92d40e0 	push	{r5, r6, r7, lr}
     e00:	e3a07048 	mov	r7, #72	; 0x48
     e04:	e3a06003 	mov	r6, #3
     e08:	e28d5010 	add	r5, sp, #16
     e0c:	ef000000 	svc	0x00000000
     e10:	e8bd80e0 	pop	{r5, r6, r7, pc}

00000e14 <utee_get_property_name_to_index>:
utee_get_property_name_to_index():
/home/zhangzj/secure/optee_gerrit/optee_os/lib/libutee/arch/arm/utee_syscalls_asm.S:194
     e14:	e92d40e0 	push	{r5, r6, r7, lr}
     e18:	e3a07049 	mov	r7, #73	; 0x49
     e1c:	e3a06000 	mov	r6, #0
     e20:	ef000000 	svc	0x00000000
     e24:	e8bd80e0 	pop	{r5, r6, r7, pc}

00000e28 <utee_cryp_random_number_add_entropy>:
utee_cryp_random_number_add_entropy():
/home/zhangzj/secure/optee_gerrit/optee_os/lib/libutee/arch/arm/utee_syscalls_asm.S:197
     e28:	e92d40e0 	push	{r5, r6, r7, lr}
     e2c:	e3a0704a 	mov	r7, #74	; 0x4a
     e30:	e3a06000 	mov	r6, #0
     e34:	ef000000 	svc	0x00000000
     e38:	e8bd80e0 	pop	{r5, r6, r7, pc}

00000e3c <print_buf>:
print_buf():
/home/zhangzj/secure/optee_gerrit/optee_os/lib/libutee/tee_user_mem.c:164
     e3c:	b530      	push	{r4, r5, lr}
     e3e:	b089      	sub	sp, #36	; 0x24
     e40:	4604      	mov	r4, r0
/home/zhangzj/secure/optee_gerrit/optee_os/lib/libutee/tee_user_mem.c:165
     e42:	4d0b      	ldr	r5, [pc, #44]	; (e70 <print_buf+0x34>)
/home/zhangzj/secure/optee_gerrit/optee_os/lib/libutee/tee_user_mem.c:164
     e44:	980c      	ldr	r0, [sp, #48]	; 0x30
/home/zhangzj/secure/optee_gerrit/optee_os/lib/libutee/tee_user_mem.c:165
     e46:	9303      	str	r3, [sp, #12]
     e48:	9101      	str	r1, [sp, #4]
     e4a:	9202      	str	r2, [sp, #8]
     e4c:	4622      	mov	r2, r4
     e4e:	447d      	add	r5, pc
buf_addr():
/home/zhangzj/secure/optee_gerrit/optee_os/lib/libutee/tee_user_mem.c:130
     e50:	f100 0310 	add.w	r3, r0, #16
print_buf():
/home/zhangzj/secure/optee_gerrit/optee_os/lib/libutee/tee_user_mem.c:165
     e54:	9004      	str	r0, [sp, #16]
     e56:	9500      	str	r5, [sp, #0]
     e58:	9305      	str	r3, [sp, #20]
buf_size():
/home/zhangzj/secure/optee_gerrit/optee_os/lib/libutee/tee_user_mem.c:135
     e5a:	6883      	ldr	r3, [r0, #8]
print_buf():
/home/zhangzj/secure/optee_gerrit/optee_os/lib/libutee/tee_user_mem.c:165
     e5c:	2000      	movs	r0, #0
     e5e:	4601      	mov	r1, r0
buf_size():
/home/zhangzj/secure/optee_gerrit/optee_os/lib/libutee/tee_user_mem.c:135
     e60:	3b11      	subs	r3, #17
print_buf():
/home/zhangzj/secure/optee_gerrit/optee_os/lib/libutee/tee_user_mem.c:165
     e62:	9306      	str	r3, [sp, #24]
     e64:	2301      	movs	r3, #1
     e66:	f003 f8e9 	bl	403c <trace_printf>
/home/zhangzj/secure/optee_gerrit/optee_os/lib/libutee/tee_user_mem.c:168
     e6a:	b009      	add	sp, #36	; 0x24
     e6c:	bd30      	pop	{r4, r5, pc}
     e6e:	bf00      	nop
     e70:	00008fd6 	.word	0x00008fd6

00000e74 <check_elem>:
check_elem():
/home/zhangzj/secure/optee_gerrit/optee_os/lib/libutee/tee_user_mem.c:235
     e74:	b513      	push	{r0, r1, r4, lr}
/home/zhangzj/secure/optee_gerrit/optee_os/lib/libutee/tee_user_mem.c:239
     e76:	2800      	cmp	r0, #0
     e78:	d03f      	beq.n	efa <check_elem+0x86>
/home/zhangzj/secure/optee_gerrit/optee_os/lib/libutee/tee_user_mem.c:242
     e7a:	f010 0403 	ands.w	r4, r0, #3
     e7e:	d008      	beq.n	e92 <check_elem+0x1e>
     e80:	481f      	ldr	r0, [pc, #124]	; (f00 <check_elem+0x8c>)
     e82:	22f2      	movs	r2, #242	; 0xf2
     e84:	491f      	ldr	r1, [pc, #124]	; (f04 <check_elem+0x90>)
     e86:	4478      	add	r0, pc
     e88:	4479      	add	r1, pc
     e8a:	f000 f9b5 	bl	11f8 <_assert_log>
     e8e:	f000 f9c9 	bl	1224 <_assert_break>
/home/zhangzj/secure/optee_gerrit/optee_os/lib/libutee/tee_user_mem.c:244
     e92:	6803      	ldr	r3, [r0, #0]
/home/zhangzj/secure/optee_gerrit/optee_os/lib/libutee/tee_user_mem.c:245
     e94:	b163      	cbz	r3, eb0 <check_elem+0x3c>
/home/zhangzj/secure/optee_gerrit/optee_os/lib/libutee/tee_user_mem.c:245 (discriminator 1)
     e96:	685a      	ldr	r2, [r3, #4]
     e98:	6852      	ldr	r2, [r2, #4]
     e9a:	6812      	ldr	r2, [r2, #0]
     e9c:	4282      	cmp	r2, r0
     e9e:	d007      	beq.n	eb0 <check_elem+0x3c>
/home/zhangzj/secure/optee_gerrit/optee_os/lib/libutee/tee_user_mem.c:246
     ea0:	9300      	str	r3, [sp, #0]
     ea2:	4919      	ldr	r1, [pc, #100]	; (f08 <check_elem+0x94>)
     ea4:	2001      	movs	r0, #1
     ea6:	4b19      	ldr	r3, [pc, #100]	; (f0c <check_elem+0x98>)
     ea8:	22f6      	movs	r2, #246	; 0xf6
     eaa:	4479      	add	r1, pc
     eac:	447b      	add	r3, pc
     eae:	e01f      	b.n	ef0 <check_elem+0x7c>
/home/zhangzj/secure/optee_gerrit/optee_os/lib/libutee/tee_user_mem.c:250
     eb0:	6843      	ldr	r3, [r0, #4]
     eb2:	685b      	ldr	r3, [r3, #4]
     eb4:	681b      	ldr	r3, [r3, #0]
/home/zhangzj/secure/optee_gerrit/optee_os/lib/libutee/tee_user_mem.c:251
     eb6:	b153      	cbz	r3, ece <check_elem+0x5a>
/home/zhangzj/secure/optee_gerrit/optee_os/lib/libutee/tee_user_mem.c:251 (discriminator 1)
     eb8:	681a      	ldr	r2, [r3, #0]
     eba:	4282      	cmp	r2, r0
     ebc:	d007      	beq.n	ece <check_elem+0x5a>
/home/zhangzj/secure/optee_gerrit/optee_os/lib/libutee/tee_user_mem.c:252
     ebe:	9300      	str	r3, [sp, #0]
     ec0:	4913      	ldr	r1, [pc, #76]	; (f10 <check_elem+0x9c>)
     ec2:	2001      	movs	r0, #1
     ec4:	4b13      	ldr	r3, [pc, #76]	; (f14 <check_elem+0xa0>)
     ec6:	22fc      	movs	r2, #252	; 0xfc
     ec8:	4479      	add	r1, pc
     eca:	447b      	add	r3, pc
     ecc:	e010      	b.n	ef0 <check_elem+0x7c>
check_elem_end():
/home/zhangzj/secure/optee_gerrit/optee_os/lib/libutee/tee_user_mem.c:225
     ece:	6883      	ldr	r3, [r0, #8]
     ed0:	4403      	add	r3, r0
     ed2:	f813 2c01 	ldrb.w	r2, [r3, #-1]
/home/zhangzj/secure/optee_gerrit/optee_os/lib/libutee/tee_user_mem.c:226
     ed6:	b2c3      	uxtb	r3, r0
     ed8:	f083 03c5 	eor.w	r3, r3, #197	; 0xc5
/home/zhangzj/secure/optee_gerrit/optee_os/lib/libutee/tee_user_mem.c:225
     edc:	429a      	cmp	r2, r3
     ede:	d00b      	beq.n	ef8 <check_elem+0x84>
/home/zhangzj/secure/optee_gerrit/optee_os/lib/libutee/tee_user_mem.c:227
     ee0:	490d      	ldr	r1, [pc, #52]	; (f18 <check_elem+0xa4>)
     ee2:	9000      	str	r0, [sp, #0]
     ee4:	22e3      	movs	r2, #227	; 0xe3
     ee6:	4b0d      	ldr	r3, [pc, #52]	; (f1c <check_elem+0xa8>)
     ee8:	2001      	movs	r0, #1
     eea:	4479      	add	r1, pc
     eec:	310b      	adds	r1, #11
     eee:	447b      	add	r3, pc
     ef0:	f7ff ffa4 	bl	e3c <print_buf>
/home/zhangzj/secure/optee_gerrit/optee_os/lib/libutee/tee_user_mem.c:228
     ef4:	2000      	movs	r0, #0
     ef6:	e000      	b.n	efa <check_elem+0x86>
/home/zhangzj/secure/optee_gerrit/optee_os/lib/libutee/tee_user_mem.c:231
     ef8:	2001      	movs	r0, #1
check_elem():
/home/zhangzj/secure/optee_gerrit/optee_os/lib/libutee/tee_user_mem.c:257
     efa:	b002      	add	sp, #8
     efc:	bd10      	pop	{r4, pc}
     efe:	bf00      	nop
     f00:	00008fc0 	.word	0x00008fc0
     f04:	00008fda 	.word	0x00008fda
     f08:	00008f0f 	.word	0x00008f0f
     f0c:	00008fd1 	.word	0x00008fd1
     f10:	00008ef1 	.word	0x00008ef1
     f14:	00008fb3 	.word	0x00008fb3
     f18:	00008ecf 	.word	0x00008ecf
     f1c:	00008f9a 	.word	0x00008f9a

00000f20 <tee_user_mem_alloc>:
tee_user_mem_alloc():
/home/zhangzj/secure/optee_gerrit/optee_os/lib/libutee/tee_user_mem.c:293
     f20:	b5f7      	push	{r0, r1, r2, r4, r5, r6, r7, lr}
/home/zhangzj/secure/optee_gerrit/optee_os/lib/libutee/tee_user_mem.c:302
     f22:	1e06      	subs	r6, r0, #0
/home/zhangzj/secure/optee_gerrit/optee_os/lib/libutee/tee_user_mem.c:293
     f24:	460d      	mov	r5, r1
/home/zhangzj/secure/optee_gerrit/optee_os/lib/libutee/tee_user_mem.c:302
     f26:	db11      	blt.n	f4c <tee_user_mem_alloc+0x2c>
/home/zhangzj/secure/optee_gerrit/optee_os/lib/libutee/tee_user_mem.c:307
     f28:	d04f      	beq.n	fca <tee_user_mem_alloc+0xaa>
/home/zhangzj/secure/optee_gerrit/optee_os/lib/libutee/tee_user_mem.c:313
     f2a:	b189      	cbz	r1, f50 <tee_user_mem_alloc+0x30>
     f2c:	f1b1 4f00 	cmp.w	r1, #2147483648	; 0x80000000
     f30:	d00e      	beq.n	f50 <tee_user_mem_alloc+0x30>
/home/zhangzj/secure/optee_gerrit/optee_os/lib/libutee/tee_user_mem.c:318
     f32:	4b27      	ldr	r3, [pc, #156]	; (fd0 <tee_user_mem_alloc+0xb0>)
     f34:	2201      	movs	r2, #1
     f36:	4827      	ldr	r0, [pc, #156]	; (fd4 <tee_user_mem_alloc+0xb4>)
     f38:	447b      	add	r3, pc
     f3a:	4478      	add	r0, pc
     f3c:	e9cd 3100 	strd	r3, r1, [sp]
     f40:	301a      	adds	r0, #26
     f42:	f44f 719f 	mov.w	r1, #318	; 0x13e
     f46:	4613      	mov	r3, r2
     f48:	f003 f878 	bl	403c <trace_printf>
/home/zhangzj/secure/optee_gerrit/optee_os/lib/libutee/tee_user_mem.c:320
     f4c:	2000      	movs	r0, #0
     f4e:	e03d      	b.n	fcc <tee_user_mem_alloc+0xac>
/home/zhangzj/secure/optee_gerrit/optee_os/lib/libutee/tee_user_mem.c:296
     f50:	f106 0711 	add.w	r7, r6, #17
/home/zhangzj/secure/optee_gerrit/optee_os/lib/libutee/tee_user_mem.c:323
     f54:	4638      	mov	r0, r7
     f56:	f007 fc79 	bl	884c <utee_malloc>
/home/zhangzj/secure/optee_gerrit/optee_os/lib/libutee/tee_user_mem.c:324
     f5a:	4604      	mov	r4, r0
     f5c:	2800      	cmp	r0, #0
     f5e:	d0f5      	beq.n	f4c <tee_user_mem_alloc+0x2c>
heap_inc():
/home/zhangzj/secure/optee_gerrit/optee_os/lib/libutee/tee_user_mem.c:196
     f60:	4b1d      	ldr	r3, [pc, #116]	; (fd8 <tee_user_mem_alloc+0xb8>)
tee_user_mem_alloc():
/home/zhangzj/secure/optee_gerrit/optee_os/lib/libutee/tee_user_mem.c:326
     f62:	6087      	str	r7, [r0, #8]
buf_addr():
/home/zhangzj/secure/optee_gerrit/optee_os/lib/libutee/tee_user_mem.c:130
     f64:	3410      	adds	r4, #16
tee_user_mem_alloc():
/home/zhangzj/secure/optee_gerrit/optee_os/lib/libutee/tee_user_mem.c:327
     f66:	60c5      	str	r5, [r0, #12]
/home/zhangzj/secure/optee_gerrit/optee_os/lib/libutee/tee_user_mem.c:339
     f68:	491c      	ldr	r1, [pc, #112]	; (fdc <tee_user_mem_alloc+0xbc>)
heap_inc():
/home/zhangzj/secure/optee_gerrit/optee_os/lib/libutee/tee_user_mem.c:196
     f6a:	447b      	add	r3, pc
     f6c:	681a      	ldr	r2, [r3, #0]
tee_user_mem_alloc():
/home/zhangzj/secure/optee_gerrit/optee_os/lib/libutee/tee_user_mem.c:339
     f6e:	4479      	add	r1, pc
     f70:	311a      	adds	r1, #26
heap_inc():
/home/zhangzj/secure/optee_gerrit/optee_os/lib/libutee/tee_user_mem.c:196
     f72:	443a      	add	r2, r7
     f74:	601a      	str	r2, [r3, #0]
/home/zhangzj/secure/optee_gerrit/optee_os/lib/libutee/tee_user_mem.c:198
     f76:	685a      	ldr	r2, [r3, #4]
     f78:	3201      	adds	r2, #1
     f7a:	605a      	str	r2, [r3, #4]
/home/zhangzj/secure/optee_gerrit/optee_os/lib/libutee/tee_user_mem.c:199
     f7c:	689a      	ldr	r2, [r3, #8]
     f7e:	4417      	add	r7, r2
     f80:	609f      	str	r7, [r3, #8]
tee_user_mem_alloc():
/home/zhangzj/secure/optee_gerrit/optee_os/lib/libutee/tee_user_mem.c:331
     f82:	2300      	movs	r3, #0
     f84:	6003      	str	r3, [r0, #0]
     f86:	4b16      	ldr	r3, [pc, #88]	; (fe0 <tee_user_mem_alloc+0xc0>)
     f88:	447b      	add	r3, pc
     f8a:	685a      	ldr	r2, [r3, #4]
     f8c:	6042      	str	r2, [r0, #4]
     f8e:	6010      	str	r0, [r2, #0]
/home/zhangzj/secure/optee_gerrit/optee_os/lib/libutee/tee_user_mem.c:335
     f90:	f080 02c5 	eor.w	r2, r0, #197	; 0xc5
/home/zhangzj/secure/optee_gerrit/optee_os/lib/libutee/tee_user_mem.c:331
     f94:	6058      	str	r0, [r3, #4]
/home/zhangzj/secure/optee_gerrit/optee_os/lib/libutee/tee_user_mem.c:335
     f96:	1983      	adds	r3, r0, r6
     f98:	741a      	strb	r2, [r3, #16]
/home/zhangzj/secure/optee_gerrit/optee_os/lib/libutee/tee_user_mem.c:339
     f9a:	4b12      	ldr	r3, [pc, #72]	; (fe4 <tee_user_mem_alloc+0xc4>)
     f9c:	f240 1253 	movw	r2, #339	; 0x153
     fa0:	9000      	str	r0, [sp, #0]
     fa2:	2003      	movs	r0, #3
     fa4:	447b      	add	r3, pc
     fa6:	f7ff ff49 	bl	e3c <print_buf>
/home/zhangzj/secure/optee_gerrit/optee_os/lib/libutee/tee_user_mem.c:344
     faa:	4620      	mov	r0, r4
/home/zhangzj/secure/optee_gerrit/optee_os/lib/libutee/tee_user_mem.c:343
     fac:	b925      	cbnz	r5, fb8 <tee_user_mem_alloc+0x98>
/home/zhangzj/secure/optee_gerrit/optee_os/lib/libutee/tee_user_mem.c:344
     fae:	4629      	mov	r1, r5
     fb0:	4632      	mov	r2, r6
     fb2:	f001 ffe5 	bl	2f80 <memset>
     fb6:	e006      	b.n	fc6 <tee_user_mem_alloc+0xa6>
/home/zhangzj/secure/optee_gerrit/optee_os/lib/libutee/tee_user_mem.c:346
     fb8:	f1b5 4f00 	cmp.w	r5, #2147483648	; 0x80000000
     fbc:	d106      	bne.n	fcc <tee_user_mem_alloc+0xac>
/home/zhangzj/secure/optee_gerrit/optee_os/lib/libutee/tee_user_mem.c:348
     fbe:	21bb      	movs	r1, #187	; 0xbb
     fc0:	4632      	mov	r2, r6
     fc2:	f001 ffdd 	bl	2f80 <memset>
     fc6:	4620      	mov	r0, r4
     fc8:	e000      	b.n	fcc <tee_user_mem_alloc+0xac>
/home/zhangzj/secure/optee_gerrit/optee_os/lib/libutee/tee_user_mem.c:309
     fca:	2010      	movs	r0, #16
/home/zhangzj/secure/optee_gerrit/optee_os/lib/libutee/tee_user_mem.c:354
     fcc:	b003      	add	sp, #12
     fce:	bdf0      	pop	{r4, r5, r6, r7, pc}
     fd0:	00008f5c 	.word	0x00008f5c
     fd4:	00008e7f 	.word	0x00008e7f
     fd8:	00012166 	.word	0x00012166
     fdc:	00008e4b 	.word	0x00008e4b
     fe0:	0000a100 	.word	0x0000a100
     fe4:	00008f0a 	.word	0x00008f0a

00000fe8 <tee_user_mem_free>:
tee_user_mem_free():
/home/zhangzj/secure/optee_gerrit/optee_os/lib/libutee/tee_user_mem.c:419
     fe8:	b537      	push	{r0, r1, r2, r4, r5, lr}
/home/zhangzj/secure/optee_gerrit/optee_os/lib/libutee/tee_user_mem.c:426
     fea:	4605      	mov	r5, r0
     fec:	2800      	cmp	r0, #0
     fee:	d056      	beq.n	109e <tee_user_mem_free+0xb6>
/home/zhangzj/secure/optee_gerrit/optee_os/lib/libutee/tee_user_mem.c:426 (discriminator 1)
     ff0:	2810      	cmp	r0, #16
     ff2:	d054      	beq.n	109e <tee_user_mem_free+0xb6>
is_buffer_valid():
/home/zhangzj/secure/optee_gerrit/optee_os/lib/libutee/tee_user_mem.c:150
     ff4:	4b2b      	ldr	r3, [pc, #172]	; (10a4 <tee_user_mem_free+0xbc>)
     ff6:	447b      	add	r3, pc
     ff8:	681c      	ldr	r4, [r3, #0]
     ffa:	b12c      	cbz	r4, 1008 <tee_user_mem_free+0x20>
buf_addr():
/home/zhangzj/secure/optee_gerrit/optee_os/lib/libutee/tee_user_mem.c:130
     ffc:	f104 0310 	add.w	r3, r4, #16
is_buffer_valid():
/home/zhangzj/secure/optee_gerrit/optee_os/lib/libutee/tee_user_mem.c:151
    1000:	429d      	cmp	r5, r3
    1002:	d00f      	beq.n	1024 <tee_user_mem_free+0x3c>
/home/zhangzj/secure/optee_gerrit/optee_os/lib/libutee/tee_user_mem.c:150
    1004:	6824      	ldr	r4, [r4, #0]
    1006:	e7f8      	b.n	ffa <tee_user_mem_free+0x12>
tee_user_mem_free():
/home/zhangzj/secure/optee_gerrit/optee_os/lib/libutee/tee_user_mem.c:431
    1008:	4b27      	ldr	r3, [pc, #156]	; (10a8 <tee_user_mem_free+0xc0>)
    100a:	2201      	movs	r2, #1
    100c:	f240 11af 	movw	r1, #431	; 0x1af
    1010:	4826      	ldr	r0, [pc, #152]	; (10ac <tee_user_mem_free+0xc4>)
    1012:	447b      	add	r3, pc
    1014:	4478      	add	r0, pc
    1016:	e9cd 3500 	strd	r3, r5, [sp]
    101a:	302d      	adds	r0, #45	; 0x2d
    101c:	4613      	mov	r3, r2
    101e:	f003 f80d 	bl	403c <trace_printf>
/home/zhangzj/secure/optee_gerrit/optee_os/lib/libutee/tee_user_mem.c:432
    1022:	e03c      	b.n	109e <tee_user_mem_free+0xb6>
/home/zhangzj/secure/optee_gerrit/optee_os/lib/libutee/tee_user_mem.c:438
    1024:	4922      	ldr	r1, [pc, #136]	; (10b0 <tee_user_mem_free+0xc8>)
    1026:	2003      	movs	r0, #3
    1028:	9400      	str	r4, [sp, #0]
    102a:	4b22      	ldr	r3, [pc, #136]	; (10b4 <tee_user_mem_free+0xcc>)
    102c:	f44f 72db 	mov.w	r2, #438	; 0x1b6
    1030:	4479      	add	r1, pc
    1032:	312d      	adds	r1, #45	; 0x2d
    1034:	447b      	add	r3, pc
    1036:	f7ff ff01 	bl	e3c <print_buf>
/home/zhangzj/secure/optee_gerrit/optee_os/lib/libutee/tee_user_mem.c:441
    103a:	4620      	mov	r0, r4
    103c:	f7ff ff1a 	bl	e74 <check_elem>
    1040:	b948      	cbnz	r0, 1056 <tee_user_mem_free+0x6e>
    1042:	481d      	ldr	r0, [pc, #116]	; (10b8 <tee_user_mem_free+0xd0>)
    1044:	f240 12b9 	movw	r2, #441	; 0x1b9
    1048:	491c      	ldr	r1, [pc, #112]	; (10bc <tee_user_mem_free+0xd4>)
    104a:	4478      	add	r0, pc
    104c:	4479      	add	r1, pc
    104e:	f000 f8d3 	bl	11f8 <_assert_log>
    1052:	f000 f8e7 	bl	1224 <_assert_break>
/home/zhangzj/secure/optee_gerrit/optee_os/lib/libutee/tee_user_mem.c:444
    1056:	f855 3c10 	ldr.w	r3, [r5, #-16]
    105a:	f855 2c0c 	ldr.w	r2, [r5, #-12]
    105e:	b10b      	cbz	r3, 1064 <tee_user_mem_free+0x7c>
    1060:	605a      	str	r2, [r3, #4]
    1062:	e002      	b.n	106a <tee_user_mem_free+0x82>
    1064:	4916      	ldr	r1, [pc, #88]	; (10c0 <tee_user_mem_free+0xd8>)
    1066:	4479      	add	r1, pc
    1068:	604a      	str	r2, [r1, #4]
    106a:	f855 2c0c 	ldr.w	r2, [r5, #-12]
/home/zhangzj/secure/optee_gerrit/optee_os/lib/libutee/tee_user_mem.c:455
    106e:	4620      	mov	r0, r4
/home/zhangzj/secure/optee_gerrit/optee_os/lib/libutee/tee_user_mem.c:444
    1070:	6013      	str	r3, [r2, #0]
heap_dec():
/home/zhangzj/secure/optee_gerrit/optee_os/lib/libutee/tee_user_mem.c:206
    1072:	4b14      	ldr	r3, [pc, #80]	; (10c4 <tee_user_mem_free+0xdc>)
tee_user_mem_free():
/home/zhangzj/secure/optee_gerrit/optee_os/lib/libutee/tee_user_mem.c:446
    1074:	f855 2c08 	ldr.w	r2, [r5, #-8]
heap_dec():
/home/zhangzj/secure/optee_gerrit/optee_os/lib/libutee/tee_user_mem.c:206
    1078:	447b      	add	r3, pc
    107a:	6819      	ldr	r1, [r3, #0]
    107c:	1a89      	subs	r1, r1, r2
    107e:	6019      	str	r1, [r3, #0]
/home/zhangzj/secure/optee_gerrit/optee_os/lib/libutee/tee_user_mem.c:208
    1080:	6859      	ldr	r1, [r3, #4]
    1082:	3901      	subs	r1, #1
    1084:	6059      	str	r1, [r3, #4]
/home/zhangzj/secure/optee_gerrit/optee_os/lib/libutee/tee_user_mem.c:209
    1086:	6899      	ldr	r1, [r3, #8]
    1088:	1a89      	subs	r1, r1, r2
    108a:	6099      	str	r1, [r3, #8]
tee_user_mem_free():
/home/zhangzj/secure/optee_gerrit/optee_os/lib/libutee/tee_user_mem.c:455
    108c:	21aa      	movs	r1, #170	; 0xaa
    108e:	f001 ff77 	bl	2f80 <memset>
/home/zhangzj/secure/optee_gerrit/optee_os/lib/libutee/tee_user_mem.c:458
    1092:	4620      	mov	r0, r4
/home/zhangzj/secure/optee_gerrit/optee_os/lib/libutee/tee_user_mem.c:461
    1094:	b003      	add	sp, #12
    1096:	e8bd 4030 	ldmia.w	sp!, {r4, r5, lr}
/home/zhangzj/secure/optee_gerrit/optee_os/lib/libutee/tee_user_mem.c:458
    109a:	f007 bbe0 	b.w	885e <utee_free>
/home/zhangzj/secure/optee_gerrit/optee_os/lib/libutee/tee_user_mem.c:461
    109e:	b003      	add	sp, #12
    10a0:	bd30      	pop	{r4, r5, pc}
    10a2:	bf00      	nop
    10a4:	0000a092 	.word	0x0000a092
    10a8:	00008eb5 	.word	0x00008eb5
    10ac:	00008da5 	.word	0x00008da5
    10b0:	00008d89 	.word	0x00008d89
    10b4:	00008ead 	.word	0x00008ead
    10b8:	00008e6f 	.word	0x00008e6f
    10bc:	00008e16 	.word	0x00008e16
    10c0:	0000a022 	.word	0x0000a022
    10c4:	00012058 	.word	0x00012058

000010c8 <tee_user_mem_realloc>:
tee_user_mem_realloc():
/home/zhangzj/secure/optee_gerrit/optee_os/lib/libutee/tee_user_mem.c:363
    10c8:	b5f8      	push	{r3, r4, r5, r6, r7, lr}
/home/zhangzj/secure/optee_gerrit/optee_os/lib/libutee/tee_user_mem.c:370
    10ca:	1e0f      	subs	r7, r1, #0
/home/zhangzj/secure/optee_gerrit/optee_os/lib/libutee/tee_user_mem.c:363
    10cc:	4605      	mov	r5, r0
/home/zhangzj/secure/optee_gerrit/optee_os/lib/libutee/tee_user_mem.c:370
    10ce:	db11      	blt.n	10f4 <tee_user_mem_realloc+0x2c>
/home/zhangzj/secure/optee_gerrit/optee_os/lib/libutee/tee_user_mem.c:380
    10d0:	b150      	cbz	r0, 10e8 <tee_user_mem_realloc+0x20>
/home/zhangzj/secure/optee_gerrit/optee_os/lib/libutee/tee_user_mem.c:380 (discriminator 1)
    10d2:	2810      	cmp	r0, #16
    10d4:	d008      	beq.n	10e8 <tee_user_mem_realloc+0x20>
is_buffer_valid():
/home/zhangzj/secure/optee_gerrit/optee_os/lib/libutee/tee_user_mem.c:150
    10d6:	4b15      	ldr	r3, [pc, #84]	; (112c <tee_user_mem_realloc+0x64>)
    10d8:	447b      	add	r3, pc
    10da:	681b      	ldr	r3, [r3, #0]
    10dc:	b123      	cbz	r3, 10e8 <tee_user_mem_realloc+0x20>
buf_addr():
/home/zhangzj/secure/optee_gerrit/optee_os/lib/libutee/tee_user_mem.c:130
    10de:	f103 0010 	add.w	r0, r3, #16
is_buffer_valid():
/home/zhangzj/secure/optee_gerrit/optee_os/lib/libutee/tee_user_mem.c:151
    10e2:	42a8      	cmp	r0, r5
    10e4:	d1f9      	bne.n	10da <tee_user_mem_realloc+0x12>
    10e6:	e007      	b.n	10f8 <tee_user_mem_realloc+0x30>
tee_user_mem_realloc():
/home/zhangzj/secure/optee_gerrit/optee_os/lib/libutee/tee_user_mem.c:381
    10e8:	4638      	mov	r0, r7
    10ea:	2100      	movs	r1, #0
/home/zhangzj/secure/optee_gerrit/optee_os/lib/libutee/tee_user_mem.c:412
    10ec:	e8bd 40f8 	ldmia.w	sp!, {r3, r4, r5, r6, r7, lr}
/home/zhangzj/secure/optee_gerrit/optee_os/lib/libutee/tee_user_mem.c:381
    10f0:	f7ff bf16 	b.w	f20 <tee_user_mem_alloc>
/home/zhangzj/secure/optee_gerrit/optee_os/lib/libutee/tee_user_mem.c:372
    10f4:	2000      	movs	r0, #0
    10f6:	bdf8      	pop	{r3, r4, r5, r6, r7, pc}
buf_size():
/home/zhangzj/secure/optee_gerrit/optee_os/lib/libutee/tee_user_mem.c:135
    10f8:	f855 6c08 	ldr.w	r6, [r5, #-8]
    10fc:	3e11      	subs	r6, #17
tee_user_mem_realloc():
/home/zhangzj/secure/optee_gerrit/optee_os/lib/libutee/tee_user_mem.c:392
    10fe:	42b7      	cmp	r7, r6
    1100:	d012      	beq.n	1128 <tee_user_mem_realloc+0x60>
/home/zhangzj/secure/optee_gerrit/optee_os/lib/libutee/tee_user_mem.c:402
    1102:	4638      	mov	r0, r7
    1104:	f855 1c04 	ldr.w	r1, [r5, #-4]
    1108:	f7ff ff0a 	bl	f20 <tee_user_mem_alloc>
/home/zhangzj/secure/optee_gerrit/optee_os/lib/libutee/tee_user_mem.c:403
    110c:	4604      	mov	r4, r0
    110e:	b148      	cbz	r0, 1124 <tee_user_mem_realloc+0x5c>
/home/zhangzj/secure/optee_gerrit/optee_os/lib/libutee/tee_user_mem.c:404
    1110:	42be      	cmp	r6, r7
    1112:	4632      	mov	r2, r6
    1114:	4629      	mov	r1, r5
    1116:	bf28      	it	cs
    1118:	463a      	movcs	r2, r7
    111a:	f001 fe3d 	bl	2d98 <memcpy>
/home/zhangzj/secure/optee_gerrit/optee_os/lib/libutee/tee_user_mem.c:407
    111e:	4628      	mov	r0, r5
    1120:	f7ff ff62 	bl	fe8 <tee_user_mem_free>
    1124:	4620      	mov	r0, r4
    1126:	bdf8      	pop	{r3, r4, r5, r6, r7, pc}
/home/zhangzj/secure/optee_gerrit/optee_os/lib/libutee/tee_user_mem.c:412
    1128:	bdf8      	pop	{r3, r4, r5, r6, r7, pc}
    112a:	bf00      	nop
    112c:	00009fb0 	.word	0x00009fb0

00001130 <tee_user_mem_mark_heap>:
tee_user_mem_mark_heap():
/home/zhangzj/secure/optee_gerrit/optee_os/lib/libutee/tee_user_mem.c:471
    1130:	4b02      	ldr	r3, [pc, #8]	; (113c <tee_user_mem_mark_heap+0xc>)
    1132:	2200      	movs	r2, #0
    1134:	447b      	add	r3, pc
    1136:	601a      	str	r2, [r3, #0]
    1138:	4770      	bx	lr
    113a:	bf00      	nop
    113c:	00011f9c 	.word	0x00011f9c

00001140 <tee_user_mem_check_heap>:
tee_user_mem_check_heap():
/home/zhangzj/secure/optee_gerrit/optee_os/lib/libutee/tee_user_mem.c:481
    1140:	b537      	push	{r0, r1, r2, r4, r5, lr}
/home/zhangzj/secure/optee_gerrit/optee_os/lib/libutee/tee_user_mem.c:485
    1142:	4d15      	ldr	r5, [pc, #84]	; (1198 <tee_user_mem_check_heap+0x58>)
    1144:	447d      	add	r5, pc
    1146:	682c      	ldr	r4, [r5, #0]
    1148:	b174      	cbz	r4, 1168 <tee_user_mem_check_heap+0x28>
/home/zhangzj/secure/optee_gerrit/optee_os/lib/libutee/tee_user_mem.c:486
    114a:	4b14      	ldr	r3, [pc, #80]	; (119c <tee_user_mem_check_heap+0x5c>)
    114c:	2201      	movs	r2, #1
    114e:	f44f 71f3 	mov.w	r1, #486	; 0x1e6
    1152:	4813      	ldr	r0, [pc, #76]	; (11a0 <tee_user_mem_check_heap+0x60>)
    1154:	447b      	add	r3, pc
    1156:	4478      	add	r0, pc
    1158:	e9cd 3400 	strd	r3, r4, [sp]
    115c:	303f      	adds	r0, #63	; 0x3f
    115e:	4613      	mov	r3, r2
    1160:	f002 ff6c 	bl	403c <trace_printf>
/home/zhangzj/secure/optee_gerrit/optee_os/lib/libutee/tee_user_mem.c:488
    1164:	682c      	ldr	r4, [r5, #0]
    1166:	e013      	b.n	1190 <tee_user_mem_check_heap+0x50>
is_mem_coherent():
/home/zhangzj/secure/optee_gerrit/optee_os/lib/libutee/tee_user_mem.c:264
    1168:	4b0e      	ldr	r3, [pc, #56]	; (11a4 <tee_user_mem_check_heap+0x64>)
    116a:	447b      	add	r3, pc
    116c:	681d      	ldr	r5, [r3, #0]
    116e:	b17d      	cbz	r5, 1190 <tee_user_mem_check_heap+0x50>
/home/zhangzj/secure/optee_gerrit/optee_os/lib/libutee/tee_user_mem.c:265
    1170:	4628      	mov	r0, r5
    1172:	f7ff fe7f 	bl	e74 <check_elem>
    1176:	b948      	cbnz	r0, 118c <tee_user_mem_check_heap+0x4c>
/home/zhangzj/secure/optee_gerrit/optee_os/lib/libutee/tee_user_mem.c:266
    1178:	480b      	ldr	r0, [pc, #44]	; (11a8 <tee_user_mem_check_heap+0x68>)
    117a:	f44f 7285 	mov.w	r2, #266	; 0x10a
    117e:	490b      	ldr	r1, [pc, #44]	; (11ac <tee_user_mem_check_heap+0x6c>)
    1180:	4478      	add	r0, pc
    1182:	4479      	add	r1, pc
    1184:	f000 f838 	bl	11f8 <_assert_log>
    1188:	f000 f84c 	bl	1224 <_assert_break>
/home/zhangzj/secure/optee_gerrit/optee_os/lib/libutee/tee_user_mem.c:264
    118c:	682d      	ldr	r5, [r5, #0]
    118e:	e7ee      	b.n	116e <tee_user_mem_check_heap+0x2e>
tee_user_mem_check_heap():
/home/zhangzj/secure/optee_gerrit/optee_os/lib/libutee/tee_user_mem.c:495
    1190:	4620      	mov	r0, r4
    1192:	b003      	add	sp, #12
    1194:	bd30      	pop	{r4, r5, pc}
    1196:	bf00      	nop
    1198:	00011f8c 	.word	0x00011f8c
    119c:	00008d94 	.word	0x00008d94
    11a0:	00008c63 	.word	0x00008c63
    11a4:	00009f1e 	.word	0x00009f1e
    11a8:	00008ce0 	.word	0x00008ce0
    11ac:	00008ce0 	.word	0x00008ce0

000011b0 <tee_user_mem_garbage>:
tee_user_mem_status():
/home/zhangzj/secure/optee_gerrit/optee_os/lib/libutee/tee_user_mem.c:511
    11b0:	4b0d      	ldr	r3, [pc, #52]	; (11e8 <tee_user_mem_garbage+0x38>)
tee_user_mem_garbage():
/home/zhangzj/secure/optee_gerrit/optee_os/lib/libutee/tee_user_mem.c:530
    11b2:	b513      	push	{r0, r1, r4, lr}
tee_user_mem_status():
/home/zhangzj/secure/optee_gerrit/optee_os/lib/libutee/tee_user_mem.c:511
    11b4:	447b      	add	r3, pc
    11b6:	681c      	ldr	r4, [r3, #0]
    11b8:	b164      	cbz	r4, 11d4 <tee_user_mem_garbage+0x24>
/home/zhangzj/secure/optee_gerrit/optee_os/lib/libutee/tee_user_mem.c:512
    11ba:	490c      	ldr	r1, [pc, #48]	; (11ec <tee_user_mem_garbage+0x3c>)
    11bc:	9400      	str	r4, [sp, #0]
    11be:	2001      	movs	r0, #1
    11c0:	4b0b      	ldr	r3, [pc, #44]	; (11f0 <tee_user_mem_garbage+0x40>)
    11c2:	f44f 7200 	mov.w	r2, #512	; 0x200
    11c6:	4479      	add	r1, pc
    11c8:	3157      	adds	r1, #87	; 0x57
    11ca:	447b      	add	r3, pc
    11cc:	f7ff fe36 	bl	e3c <print_buf>
/home/zhangzj/secure/optee_gerrit/optee_os/lib/libutee/tee_user_mem.c:511
    11d0:	6824      	ldr	r4, [r4, #0]
    11d2:	e7f1      	b.n	11b8 <tee_user_mem_garbage+0x8>
tee_user_mem_garbage():
/home/zhangzj/secure/optee_gerrit/optee_os/lib/libutee/tee_user_mem.c:535
    11d4:	4b07      	ldr	r3, [pc, #28]	; (11f4 <tee_user_mem_garbage+0x44>)
    11d6:	447b      	add	r3, pc
    11d8:	6818      	ldr	r0, [r3, #0]
    11da:	b118      	cbz	r0, 11e4 <tee_user_mem_garbage+0x34>
/home/zhangzj/secure/optee_gerrit/optee_os/lib/libutee/tee_user_mem.c:536
    11dc:	3010      	adds	r0, #16
    11de:	f7ff ff03 	bl	fe8 <tee_user_mem_free>
    11e2:	e7f7      	b.n	11d4 <tee_user_mem_garbage+0x24>
/home/zhangzj/secure/optee_gerrit/optee_os/lib/libutee/tee_user_mem.c:537
    11e4:	b002      	add	sp, #8
    11e6:	bd10      	pop	{r4, pc}
    11e8:	00009ed4 	.word	0x00009ed4
    11ec:	00008bf3 	.word	0x00008bf3
    11f0:	00008e10 	.word	0x00008e10
    11f4:	00009eb2 	.word	0x00009eb2

000011f8 <_assert_log>:
_assert_log():
/home/zhangzj/secure/optee_gerrit/optee_os/lib/libutee/assert.c:35
    11f8:	b51f      	push	{r0, r1, r2, r3, r4, lr}
/home/zhangzj/secure/optee_gerrit/optee_os/lib/libutee/assert.c:36
    11fa:	4b08      	ldr	r3, [pc, #32]	; (121c <_assert_log+0x24>)
    11fc:	9001      	str	r0, [sp, #4]
    11fe:	4808      	ldr	r0, [pc, #32]	; (1220 <_assert_log+0x28>)
    1200:	9203      	str	r2, [sp, #12]
    1202:	2201      	movs	r2, #1
    1204:	9102      	str	r1, [sp, #8]
    1206:	2124      	movs	r1, #36	; 0x24
    1208:	447b      	add	r3, pc
    120a:	4478      	add	r0, pc
    120c:	9300      	str	r3, [sp, #0]
    120e:	4613      	mov	r3, r2
    1210:	f002 ff14 	bl	403c <trace_printf>
/home/zhangzj/secure/optee_gerrit/optee_os/lib/libutee/assert.c:37
    1214:	b005      	add	sp, #20
    1216:	f85d fb04 	ldr.w	pc, [sp], #4
    121a:	bf00      	nop
    121c:	00008d09 	.word	0x00008d09
    1220:	00008cfb 	.word	0x00008cfb

00001224 <_assert_break>:
_assert_break():
/home/zhangzj/secure/optee_gerrit/optee_os/lib/libutee/assert.c:40
    1224:	b508      	push	{r3, lr}
/home/zhangzj/secure/optee_gerrit/optee_os/lib/libutee/assert.c:41
    1226:	4801      	ldr	r0, [pc, #4]	; (122c <_assert_break+0x8>)
    1228:	f7ff eb0a 	blx	840 <utee_panic>
    122c:	ffff0000 	.word	0xffff0000

00001230 <_TEE_MathAPI_Init>:
_TEE_MathAPI_Init():
/home/zhangzj/secure/optee_gerrit/optee_os/lib/libutee/tee_api_arith.c:78
    1230:	b513      	push	{r0, r1, r4, lr}
/home/zhangzj/secure/optee_gerrit/optee_os/lib/libutee/tee_api_arith.c:79
    1232:	f44f 6200 	mov.w	r2, #2048	; 0x800
    1236:	4808      	ldr	r0, [pc, #32]	; (1258 <_TEE_MathAPI_Init+0x28>)
    1238:	f44f 51d8 	mov.w	r1, #6912	; 0x1b00
/home/zhangzj/secure/optee_gerrit/optee_os/lib/libutee/tee_api_arith.c:78
    123c:	4c07      	ldr	r4, [pc, #28]	; (125c <_TEE_MathAPI_Init+0x2c>)
/home/zhangzj/secure/optee_gerrit/optee_os/lib/libutee/tee_api_arith.c:79
    123e:	4478      	add	r0, pc
    1240:	f005 f87c 	bl	633c <mpa_init_scratch_mem>
/home/zhangzj/secure/optee_gerrit/optee_os/lib/libutee/tee_api_arith.c:81
    1244:	4b06      	ldr	r3, [pc, #24]	; (1260 <_TEE_MathAPI_Init+0x30>)
/home/zhangzj/secure/optee_gerrit/optee_os/lib/libutee/tee_api_arith.c:78
    1246:	447c      	add	r4, pc
/home/zhangzj/secure/optee_gerrit/optee_os/lib/libutee/tee_api_arith.c:81
    1248:	58e3      	ldr	r3, [r4, r3]
    124a:	4618      	mov	r0, r3
    124c:	9301      	str	r3, [sp, #4]
/home/zhangzj/secure/optee_gerrit/optee_os/lib/libutee/tee_api_arith.c:82
    124e:	b002      	add	sp, #8
    1250:	e8bd 4010 	ldmia.w	sp!, {r4, lr}
/home/zhangzj/secure/optee_gerrit/optee_os/lib/libutee/tee_api_arith.c:81
    1254:	f005 bb50 	b.w	68f8 <mpa_set_random_generator>
    1258:	00011e9e 	.word	0x00011e9e
    125c:	00008d96 	.word	0x00008d96
    1260:	00000014 	.word	0x00000014

00001264 <TEE_BigIntInit>:
TEE_BigIntInit():
/home/zhangzj/secure/optee_gerrit/optee_os/lib/libutee/tee_api_arith.c:89
    1264:	f006 bd1a 	b.w	7c9c <mpa_init_static>

00001268 <TEE_BigIntInitFMM>:
TEE_BigIntInitFMM():
/home/zhangzj/secure/optee_gerrit/optee_os/lib/libutee/tee_api_arith.c:99
    1268:	0089      	lsls	r1, r1, #2
/home/zhangzj/secure/optee_gerrit/optee_os/lib/libutee/tee_api_arith.c:100
    126a:	2300      	movs	r3, #0
/home/zhangzj/secure/optee_gerrit/optee_os/lib/libutee/tee_api_arith.c:99
    126c:	3905      	subs	r1, #5
/home/zhangzj/secure/optee_gerrit/optee_os/lib/libutee/tee_api_arith.c:100
    126e:	6043      	str	r3, [r0, #4]
/home/zhangzj/secure/optee_gerrit/optee_os/lib/libutee/tee_api_arith.c:99
    1270:	0889      	lsrs	r1, r1, #2
    1272:	6001      	str	r1, [r0, #0]
/home/zhangzj/secure/optee_gerrit/optee_os/lib/libutee/tee_api_arith.c:100
    1274:	4770      	bx	lr

00001276 <TEE_BigIntInitFMMContext>:
TEE_BigIntInitFMMContext():
/home/zhangzj/secure/optee_gerrit/optee_os/lib/libutee/tee_api_arith.c:108
    1276:	b537      	push	{r0, r1, r2, r4, r5, lr}
    1278:	4604      	mov	r4, r0
    127a:	4615      	mov	r5, r2
/home/zhangzj/secure/optee_gerrit/optee_os/lib/libutee/tee_api_arith.c:112
    127c:	f006 fd2c 	bl	7cd8 <mpa_init_static_fmm_context>
/home/zhangzj/secure/optee_gerrit/optee_os/lib/libutee/tee_api_arith.c:113
    1280:	4b05      	ldr	r3, [pc, #20]	; (1298 <TEE_BigIntInitFMMContext+0x22>)
    1282:	4628      	mov	r0, r5
    1284:	e9d4 1200 	ldrd	r1, r2, [r4]
    1288:	447b      	add	r3, pc
    128a:	9300      	str	r3, [sp, #0]
    128c:	f104 0308 	add.w	r3, r4, #8
    1290:	f003 fc34 	bl	4afc <mpa_compute_fmm_context>
/home/zhangzj/secure/optee_gerrit/optee_os/lib/libutee/tee_api_arith.c:116
    1294:	b003      	add	sp, #12
    1296:	bd30      	pop	{r4, r5, pc}
    1298:	00011e54 	.word	0x00011e54

0000129c <TEE_BigIntFMMSizeInU32>:
TEE_BigIntFMMSizeInU32():
/home/zhangzj/secure/optee_gerrit/optee_os/lib/libutee/tee_api_arith.c:127
    129c:	301f      	adds	r0, #31
    129e:	0940      	lsrs	r0, r0, #5
/home/zhangzj/secure/optee_gerrit/optee_os/lib/libutee/tee_api_arith.c:128
    12a0:	3003      	adds	r0, #3
    12a2:	4770      	bx	lr

000012a4 <TEE_BigIntFMMContextSizeInU32>:
TEE_BigIntFMMContextSizeInU32():
/home/zhangzj/secure/optee_gerrit/optee_os/lib/libutee/tee_api_arith.c:135
    12a4:	301f      	adds	r0, #31
    12a6:	0940      	lsrs	r0, r0, #5
    12a8:	0040      	lsls	r0, r0, #1
/home/zhangzj/secure/optee_gerrit/optee_os/lib/libutee/tee_api_arith.c:136
    12aa:	300b      	adds	r0, #11
    12ac:	4770      	bx	lr

000012ae <TEE_BigIntConvertFromOctetString>:
TEE_BigIntConvertFromOctetString():
/home/zhangzj/secure/optee_gerrit/optee_os/lib/libutee/tee_api_arith.c:149
    12ae:	b508      	push	{r3, lr}
/home/zhangzj/secure/optee_gerrit/optee_os/lib/libutee/tee_api_arith.c:154
    12b0:	0fdb      	lsrs	r3, r3, #31
    12b2:	f007 f8cb 	bl	844c <mpa_set_oct_str>
    12b6:	2800      	cmp	r0, #0
/home/zhangzj/secure/optee_gerrit/optee_os/lib/libutee/tee_api_arith.c:164
    12b8:	4801      	ldr	r0, [pc, #4]	; (12c0 <TEE_BigIntConvertFromOctetString+0x12>)
    12ba:	bf08      	it	eq
    12bc:	2000      	moveq	r0, #0
    12be:	bd08      	pop	{r3, pc}
    12c0:	ffff300f 	.word	0xffff300f

000012c4 <TEE_BigIntConvertToOctetString>:
TEE_BigIntConvertToOctetString():
/home/zhangzj/secure/optee_gerrit/optee_os/lib/libutee/tee_api_arith.c:174
    12c4:	680b      	ldr	r3, [r1, #0]
/home/zhangzj/secure/optee_gerrit/optee_os/lib/libutee/tee_api_arith.c:172
    12c6:	b530      	push	{r4, r5, lr}
    12c8:	b085      	sub	sp, #20
    12ca:	460d      	mov	r5, r1
/home/zhangzj/secure/optee_gerrit/optee_os/lib/libutee/tee_api_arith.c:174
    12cc:	a904      	add	r1, sp, #16
    12ce:	f841 3d04 	str.w	r3, [r1, #-4]!
/home/zhangzj/secure/optee_gerrit/optee_os/lib/libutee/tee_api_arith.c:177
    12d2:	f007 f93f 	bl	8554 <mpa_get_oct_str>
/home/zhangzj/secure/optee_gerrit/optee_os/lib/libutee/tee_api_arith.c:180
    12d6:	4b0e      	ldr	r3, [pc, #56]	; (1310 <TEE_BigIntConvertToOctetString+0x4c>)
    12d8:	2800      	cmp	r0, #0
/home/zhangzj/secure/optee_gerrit/optee_os/lib/libutee/tee_api_arith.c:182
    12da:	9a03      	ldr	r2, [sp, #12]
/home/zhangzj/secure/optee_gerrit/optee_os/lib/libutee/tee_api_arith.c:180
    12dc:	bf0c      	ite	eq
    12de:	2400      	moveq	r4, #0
    12e0:	461c      	movne	r4, r3
/home/zhangzj/secure/optee_gerrit/optee_os/lib/libutee/tee_api_arith.c:182
    12e2:	602a      	str	r2, [r5, #0]
/home/zhangzj/secure/optee_gerrit/optee_os/lib/libutee/tee_api_arith.c:184
    12e4:	b184      	cbz	r4, 1308 <TEE_BigIntConvertToOctetString+0x44>
/home/zhangzj/secure/optee_gerrit/optee_os/lib/libutee/tee_api_arith.c:184 (discriminator 1)
    12e6:	429c      	cmp	r4, r3
    12e8:	d00e      	beq.n	1308 <TEE_BigIntConvertToOctetString+0x44>
/home/zhangzj/secure/optee_gerrit/optee_os/lib/libutee/tee_api_arith.c:186
    12ea:	4b0a      	ldr	r3, [pc, #40]	; (1314 <TEE_BigIntConvertToOctetString+0x50>)
    12ec:	2201      	movs	r2, #1
    12ee:	21ba      	movs	r1, #186	; 0xba
    12f0:	4809      	ldr	r0, [pc, #36]	; (1318 <TEE_BigIntConvertToOctetString+0x54>)
    12f2:	447b      	add	r3, pc
    12f4:	4478      	add	r0, pc
    12f6:	e9cd 3400 	strd	r3, r4, [sp]
    12fa:	3011      	adds	r0, #17
    12fc:	4613      	mov	r3, r2
    12fe:	f002 fe9d 	bl	403c <trace_printf>
    1302:	4620      	mov	r0, r4
    1304:	f007 fa9a 	bl	883c <__TEE_Panic>
/home/zhangzj/secure/optee_gerrit/optee_os/lib/libutee/tee_api_arith.c:189
    1308:	4620      	mov	r0, r4
    130a:	b005      	add	sp, #20
    130c:	bd30      	pop	{r4, r5, pc}
    130e:	bf00      	nop
    1310:	ffff0010 	.word	0xffff0010
    1314:	00008aaf 	.word	0x00008aaf
    1318:	00008c3c 	.word	0x00008c3c

0000131c <TEE_BigIntConvertFromS32>:
TEE_BigIntConvertFromS32():
/home/zhangzj/secure/optee_gerrit/optee_os/lib/libutee/tee_api_arith.c:199
    131c:	f003 bea2 	b.w	5064 <mpa_set_S32>

00001320 <TEE_BigIntConvertToS32>:
TEE_BigIntConvertToS32():
/home/zhangzj/secure/optee_gerrit/optee_os/lib/libutee/tee_api_arith.c:209
    1320:	b508      	push	{r3, lr}
/home/zhangzj/secure/optee_gerrit/optee_os/lib/libutee/tee_api_arith.c:213
    1322:	f003 fec1 	bl	50a8 <mpa_get_S32>
    1326:	2800      	cmp	r0, #0
/home/zhangzj/secure/optee_gerrit/optee_os/lib/libutee/tee_api_arith.c:223
    1328:	4801      	ldr	r0, [pc, #4]	; (1330 <TEE_BigIntConvertToS32+0x10>)
    132a:	bf08      	it	eq
    132c:	2000      	moveq	r0, #0
    132e:	bd08      	pop	{r3, pc}
    1330:	ffff300f 	.word	0xffff300f

00001334 <TEE_BigIntCmp>:
TEE_BigIntCmp():
/home/zhangzj/secure/optee_gerrit/optee_os/lib/libutee/tee_api_arith.c:237
    1334:	f006 bb8a 	b.w	7a4c <mpa_cmp>

00001338 <TEE_BigIntCmpS32>:
TEE_BigIntCmpS32():
/home/zhangzj/secure/optee_gerrit/optee_os/lib/libutee/tee_api_arith.c:247
    1338:	f006 bbc8 	b.w	7acc <mpa_cmp_short>

0000133c <TEE_BigIntShiftRight>:
TEE_BigIntShiftRight():
/home/zhangzj/secure/optee_gerrit/optee_os/lib/libutee/tee_api_arith.c:259
    133c:	f005 bd1c 	b.w	6d78 <mpa_shift_right>

00001340 <TEE_BigIntGetBit>:
TEE_BigIntGetBit():
/home/zhangzj/secure/optee_gerrit/optee_os/lib/libutee/tee_api_arith.c:266
    1340:	b508      	push	{r3, lr}
/home/zhangzj/secure/optee_gerrit/optee_os/lib/libutee/tee_api_arith.c:269
    1342:	f003 f9db 	bl	46fc <mpa_get_bit>
/home/zhangzj/secure/optee_gerrit/optee_os/lib/libutee/tee_api_arith.c:270
    1346:	3000      	adds	r0, #0
    1348:	bf18      	it	ne
    134a:	2001      	movne	r0, #1
    134c:	bd08      	pop	{r3, pc}

0000134e <TEE_BigIntGetBitCount>:
TEE_BigIntGetBitCount():
/home/zhangzj/secure/optee_gerrit/optee_os/lib/libutee/tee_api_arith.c:276
    134e:	b508      	push	{r3, lr}
/home/zhangzj/secure/optee_gerrit/optee_os/lib/libutee/tee_api_arith.c:279
    1350:	f003 f99c 	bl	468c <mpa_highest_bit_index>
/home/zhangzj/secure/optee_gerrit/optee_os/lib/libutee/tee_api_arith.c:280
    1354:	3001      	adds	r0, #1
    1356:	bd08      	pop	{r3, pc}

00001358 <TEE_BigIntAdd>:
TEE_BigIntAdd():
/home/zhangzj/secure/optee_gerrit/optee_os/lib/libutee/tee_api_arith.c:296
    1358:	4b01      	ldr	r3, [pc, #4]	; (1360 <TEE_BigIntAdd+0x8>)
    135a:	447b      	add	r3, pc
    135c:	f005 bfc4 	b.w	72e8 <mpa_add>
    1360:	00011d82 	.word	0x00011d82

00001364 <TEE_BigIntSub>:
TEE_BigIntSub():
/home/zhangzj/secure/optee_gerrit/optee_os/lib/libutee/tee_api_arith.c:309
    1364:	4b01      	ldr	r3, [pc, #4]	; (136c <TEE_BigIntSub+0x8>)
    1366:	447b      	add	r3, pc
    1368:	f006 b89e 	b.w	74a8 <mpa_sub>
    136c:	00011d76 	.word	0x00011d76

00001370 <TEE_BigIntNeg>:
TEE_BigIntNeg():
/home/zhangzj/secure/optee_gerrit/optee_os/lib/libutee/tee_api_arith.c:320
    1370:	f006 b98c 	b.w	768c <mpa_neg>

00001374 <TEE_BigIntMul>:
TEE_BigIntMul():
/home/zhangzj/secure/optee_gerrit/optee_os/lib/libutee/tee_api_arith.c:333
    1374:	4b01      	ldr	r3, [pc, #4]	; (137c <TEE_BigIntMul+0x8>)
    1376:	447b      	add	r3, pc
    1378:	f005 ba10 	b.w	679c <mpa_mul>
    137c:	00011d66 	.word	0x00011d66

00001380 <TEE_BigIntSquare>:
TEE_BigIntSquare():
/home/zhangzj/secure/optee_gerrit/optee_os/lib/libutee/tee_api_arith.c:344
    1380:	4b02      	ldr	r3, [pc, #8]	; (138c <TEE_BigIntSquare+0xc>)
    1382:	460a      	mov	r2, r1
    1384:	447b      	add	r3, pc
    1386:	f005 ba09 	b.w	679c <mpa_mul>
    138a:	bf00      	nop
    138c:	00011d58 	.word	0x00011d58

00001390 <TEE_BigIntDiv>:
TEE_BigIntDiv():
/home/zhangzj/secure/optee_gerrit/optee_os/lib/libutee/tee_api_arith.c:352
    1390:	b5f7      	push	{r0, r1, r2, r4, r5, r6, r7, lr}
    1392:	4607      	mov	r7, r0
    1394:	460e      	mov	r6, r1
TEE_BigIntCmpS32():
/home/zhangzj/secure/optee_gerrit/optee_os/lib/libutee/tee_api_arith.c:247
    1396:	4618      	mov	r0, r3
    1398:	2100      	movs	r1, #0
TEE_BigIntDiv():
/home/zhangzj/secure/optee_gerrit/optee_os/lib/libutee/tee_api_arith.c:352
    139a:	4615      	mov	r5, r2
    139c:	461c      	mov	r4, r3
TEE_BigIntCmpS32():
/home/zhangzj/secure/optee_gerrit/optee_os/lib/libutee/tee_api_arith.c:247
    139e:	f006 fb95 	bl	7acc <mpa_cmp_short>
TEE_BigIntDiv():
/home/zhangzj/secure/optee_gerrit/optee_os/lib/libutee/tee_api_arith.c:358
    13a2:	b918      	cbnz	r0, 13ac <TEE_BigIntDiv+0x1c>
/home/zhangzj/secure/optee_gerrit/optee_os/lib/libutee/tee_api_arith.c:359
    13a4:	4807      	ldr	r0, [pc, #28]	; (13c4 <TEE_BigIntDiv+0x34>)
    13a6:	4478      	add	r0, pc
    13a8:	f000 f982 	bl	16b0 <TEE_BigInt_Panic>
/home/zhangzj/secure/optee_gerrit/optee_os/lib/libutee/tee_api_arith.c:361
    13ac:	4b06      	ldr	r3, [pc, #24]	; (13c8 <TEE_BigIntDiv+0x38>)
    13ae:	4638      	mov	r0, r7
    13b0:	4631      	mov	r1, r6
    13b2:	462a      	mov	r2, r5
    13b4:	447b      	add	r3, pc
    13b6:	9300      	str	r3, [sp, #0]
    13b8:	4623      	mov	r3, r4
    13ba:	f004 fb5f 	bl	5a7c <mpa_div>
/home/zhangzj/secure/optee_gerrit/optee_os/lib/libutee/tee_api_arith.c:362
    13be:	b003      	add	sp, #12
    13c0:	bdf0      	pop	{r4, r5, r6, r7, pc}
    13c2:	bf00      	nop
    13c4:	00008bc5 	.word	0x00008bc5
    13c8:	00011d28 	.word	0x00011d28

000013cc <TEE_BigIntMod>:
TEE_BigIntMod():
/home/zhangzj/secure/optee_gerrit/optee_os/lib/libutee/tee_api_arith.c:373
    13cc:	e92d 41f0 	stmdb	sp!, {r4, r5, r6, r7, r8, lr}
    13d0:	4605      	mov	r5, r0
    13d2:	460f      	mov	r7, r1
TEE_BigIntCmpS32():
/home/zhangzj/secure/optee_gerrit/optee_os/lib/libutee/tee_api_arith.c:247
    13d4:	4610      	mov	r0, r2
    13d6:	2102      	movs	r1, #2
TEE_BigIntMod():
/home/zhangzj/secure/optee_gerrit/optee_os/lib/libutee/tee_api_arith.c:373
    13d8:	4614      	mov	r4, r2
TEE_BigIntCmpS32():
/home/zhangzj/secure/optee_gerrit/optee_os/lib/libutee/tee_api_arith.c:247
    13da:	f006 fb77 	bl	7acc <mpa_cmp_short>
TEE_BigIntMod():
/home/zhangzj/secure/optee_gerrit/optee_os/lib/libutee/tee_api_arith.c:378
    13de:	2800      	cmp	r0, #0
    13e0:	da03      	bge.n	13ea <TEE_BigIntMod+0x1e>
/home/zhangzj/secure/optee_gerrit/optee_os/lib/libutee/tee_api_arith.c:379
    13e2:	480e      	ldr	r0, [pc, #56]	; (141c <TEE_BigIntMod+0x50>)
    13e4:	4478      	add	r0, pc
    13e6:	f000 f963 	bl	16b0 <TEE_BigInt_Panic>
/home/zhangzj/secure/optee_gerrit/optee_os/lib/libutee/tee_api_arith.c:381
    13ea:	4e0d      	ldr	r6, [pc, #52]	; (1420 <TEE_BigIntMod+0x54>)
    13ec:	4628      	mov	r0, r5
    13ee:	4639      	mov	r1, r7
    13f0:	4622      	mov	r2, r4
    13f2:	447e      	add	r6, pc
    13f4:	4633      	mov	r3, r6
    13f6:	f007 f92d 	bl	8654 <mpa_mod>
/home/zhangzj/secure/optee_gerrit/optee_os/lib/libutee/tee_api_arith.c:383
    13fa:	4628      	mov	r0, r5
    13fc:	2100      	movs	r1, #0
    13fe:	f006 fb65 	bl	7acc <mpa_cmp_short>
    1402:	2800      	cmp	r0, #0
    1404:	da07      	bge.n	1416 <TEE_BigIntMod+0x4a>
/home/zhangzj/secure/optee_gerrit/optee_os/lib/libutee/tee_api_arith.c:384
    1406:	4628      	mov	r0, r5
    1408:	4629      	mov	r1, r5
    140a:	4622      	mov	r2, r4
    140c:	4633      	mov	r3, r6
/home/zhangzj/secure/optee_gerrit/optee_os/lib/libutee/tee_api_arith.c:385
    140e:	e8bd 41f0 	ldmia.w	sp!, {r4, r5, r6, r7, r8, lr}
/home/zhangzj/secure/optee_gerrit/optee_os/lib/libutee/tee_api_arith.c:384
    1412:	f005 bf69 	b.w	72e8 <mpa_add>
    1416:	e8bd 81f0 	ldmia.w	sp!, {r4, r5, r6, r7, r8, pc}
    141a:	bf00      	nop
    141c:	00008b97 	.word	0x00008b97
    1420:	00011cea 	.word	0x00011cea

00001424 <TEE_BigIntAddMod>:
TEE_BigIntAddMod():
/home/zhangzj/secure/optee_gerrit/optee_os/lib/libutee/tee_api_arith.c:392
    1424:	e92d 41f3 	stmdb	sp!, {r0, r1, r4, r5, r6, r7, r8, lr}
    1428:	4605      	mov	r5, r0
    142a:	4688      	mov	r8, r1
TEE_BigIntCmpS32():
/home/zhangzj/secure/optee_gerrit/optee_os/lib/libutee/tee_api_arith.c:247
    142c:	4618      	mov	r0, r3
    142e:	2102      	movs	r1, #2
TEE_BigIntAddMod():
/home/zhangzj/secure/optee_gerrit/optee_os/lib/libutee/tee_api_arith.c:392
    1430:	4617      	mov	r7, r2
    1432:	461c      	mov	r4, r3
TEE_BigIntCmpS32():
/home/zhangzj/secure/optee_gerrit/optee_os/lib/libutee/tee_api_arith.c:247
    1434:	f006 fb4a 	bl	7acc <mpa_cmp_short>
TEE_BigIntAddMod():
/home/zhangzj/secure/optee_gerrit/optee_os/lib/libutee/tee_api_arith.c:398
    1438:	2800      	cmp	r0, #0
    143a:	da03      	bge.n	1444 <TEE_BigIntAddMod+0x20>
/home/zhangzj/secure/optee_gerrit/optee_os/lib/libutee/tee_api_arith.c:399
    143c:	480f      	ldr	r0, [pc, #60]	; (147c <TEE_BigIntAddMod+0x58>)
    143e:	4478      	add	r0, pc
    1440:	f000 f936 	bl	16b0 <TEE_BigInt_Panic>
/home/zhangzj/secure/optee_gerrit/optee_os/lib/libutee/tee_api_arith.c:401
    1444:	4e0e      	ldr	r6, [pc, #56]	; (1480 <TEE_BigIntAddMod+0x5c>)
    1446:	4628      	mov	r0, r5
    1448:	4641      	mov	r1, r8
    144a:	463a      	mov	r2, r7
    144c:	4623      	mov	r3, r4
    144e:	447e      	add	r6, pc
    1450:	9600      	str	r6, [sp, #0]
    1452:	f007 f913 	bl	867c <mpa_add_mod>
/home/zhangzj/secure/optee_gerrit/optee_os/lib/libutee/tee_api_arith.c:402
    1456:	4628      	mov	r0, r5
    1458:	2100      	movs	r1, #0
    145a:	f006 fb37 	bl	7acc <mpa_cmp_short>
    145e:	2800      	cmp	r0, #0
    1460:	da08      	bge.n	1474 <TEE_BigIntAddMod+0x50>
/home/zhangzj/secure/optee_gerrit/optee_os/lib/libutee/tee_api_arith.c:403
    1462:	4628      	mov	r0, r5
    1464:	4629      	mov	r1, r5
    1466:	4622      	mov	r2, r4
    1468:	4633      	mov	r3, r6
/home/zhangzj/secure/optee_gerrit/optee_os/lib/libutee/tee_api_arith.c:404
    146a:	b002      	add	sp, #8
    146c:	e8bd 41f0 	ldmia.w	sp!, {r4, r5, r6, r7, r8, lr}
/home/zhangzj/secure/optee_gerrit/optee_os/lib/libutee/tee_api_arith.c:403
    1470:	f005 bf3a 	b.w	72e8 <mpa_add>
/home/zhangzj/secure/optee_gerrit/optee_os/lib/libutee/tee_api_arith.c:404
    1474:	b002      	add	sp, #8
    1476:	e8bd 81f0 	ldmia.w	sp!, {r4, r5, r6, r7, r8, pc}
    147a:	bf00      	nop
    147c:	00008b3d 	.word	0x00008b3d
    1480:	00011c8e 	.word	0x00011c8e

00001484 <TEE_BigIntSubMod>:
TEE_BigIntSubMod():
/home/zhangzj/secure/optee_gerrit/optee_os/lib/libutee/tee_api_arith.c:411
    1484:	e92d 41f3 	stmdb	sp!, {r0, r1, r4, r5, r6, r7, r8, lr}
    1488:	4605      	mov	r5, r0
    148a:	4688      	mov	r8, r1
TEE_BigIntCmpS32():
/home/zhangzj/secure/optee_gerrit/optee_os/lib/libutee/tee_api_arith.c:247
    148c:	4618      	mov	r0, r3
    148e:	2102      	movs	r1, #2
TEE_BigIntSubMod():
/home/zhangzj/secure/optee_gerrit/optee_os/lib/libutee/tee_api_arith.c:411
    1490:	4617      	mov	r7, r2
    1492:	461c      	mov	r4, r3
TEE_BigIntCmpS32():
/home/zhangzj/secure/optee_gerrit/optee_os/lib/libutee/tee_api_arith.c:247
    1494:	f006 fb1a 	bl	7acc <mpa_cmp_short>
TEE_BigIntSubMod():
/home/zhangzj/secure/optee_gerrit/optee_os/lib/libutee/tee_api_arith.c:417
    1498:	2800      	cmp	r0, #0
    149a:	da03      	bge.n	14a4 <TEE_BigIntSubMod+0x20>
/home/zhangzj/secure/optee_gerrit/optee_os/lib/libutee/tee_api_arith.c:418
    149c:	480f      	ldr	r0, [pc, #60]	; (14dc <TEE_BigIntSubMod+0x58>)
    149e:	4478      	add	r0, pc
    14a0:	f000 f906 	bl	16b0 <TEE_BigInt_Panic>
/home/zhangzj/secure/optee_gerrit/optee_os/lib/libutee/tee_api_arith.c:420
    14a4:	4e0e      	ldr	r6, [pc, #56]	; (14e0 <TEE_BigIntSubMod+0x5c>)
    14a6:	4628      	mov	r0, r5
    14a8:	4641      	mov	r1, r8
    14aa:	463a      	mov	r2, r7
    14ac:	4623      	mov	r3, r4
    14ae:	447e      	add	r6, pc
    14b0:	9600      	str	r6, [sp, #0]
    14b2:	f007 f909 	bl	86c8 <mpa_sub_mod>
/home/zhangzj/secure/optee_gerrit/optee_os/lib/libutee/tee_api_arith.c:421
    14b6:	4628      	mov	r0, r5
    14b8:	2100      	movs	r1, #0
    14ba:	f006 fb07 	bl	7acc <mpa_cmp_short>
    14be:	2800      	cmp	r0, #0
    14c0:	da08      	bge.n	14d4 <TEE_BigIntSubMod+0x50>
/home/zhangzj/secure/optee_gerrit/optee_os/lib/libutee/tee_api_arith.c:422
    14c2:	4628      	mov	r0, r5
    14c4:	4629      	mov	r1, r5
    14c6:	4622      	mov	r2, r4
    14c8:	4633      	mov	r3, r6
/home/zhangzj/secure/optee_gerrit/optee_os/lib/libutee/tee_api_arith.c:423
    14ca:	b002      	add	sp, #8
    14cc:	e8bd 41f0 	ldmia.w	sp!, {r4, r5, r6, r7, r8, lr}
/home/zhangzj/secure/optee_gerrit/optee_os/lib/libutee/tee_api_arith.c:422
    14d0:	f005 bf0a 	b.w	72e8 <mpa_add>
/home/zhangzj/secure/optee_gerrit/optee_os/lib/libutee/tee_api_arith.c:423
    14d4:	b002      	add	sp, #8
    14d6:	e8bd 81f0 	ldmia.w	sp!, {r4, r5, r6, r7, r8, pc}
    14da:	bf00      	nop
    14dc:	00008add 	.word	0x00008add
    14e0:	00011c2e 	.word	0x00011c2e

000014e4 <TEE_BigIntMulMod>:
TEE_BigIntMulMod():
/home/zhangzj/secure/optee_gerrit/optee_os/lib/libutee/tee_api_arith.c:430
    14e4:	e92d 43f0 	stmdb	sp!, {r4, r5, r6, r7, r8, r9, lr}
    14e8:	4607      	mov	r7, r0
    14ea:	b085      	sub	sp, #20
    14ec:	4689      	mov	r9, r1
TEE_BigIntCmpS32():
/home/zhangzj/secure/optee_gerrit/optee_os/lib/libutee/tee_api_arith.c:247
    14ee:	4618      	mov	r0, r3
    14f0:	2102      	movs	r1, #2
TEE_BigIntMulMod():
/home/zhangzj/secure/optee_gerrit/optee_os/lib/libutee/tee_api_arith.c:430
    14f2:	4690      	mov	r8, r2
    14f4:	461d      	mov	r5, r3
TEE_BigIntCmpS32():
/home/zhangzj/secure/optee_gerrit/optee_os/lib/libutee/tee_api_arith.c:247
    14f6:	f006 fae9 	bl	7acc <mpa_cmp_short>
TEE_BigIntMulMod():
/home/zhangzj/secure/optee_gerrit/optee_os/lib/libutee/tee_api_arith.c:437
    14fa:	2800      	cmp	r0, #0
    14fc:	da03      	bge.n	1506 <TEE_BigIntMulMod+0x22>
/home/zhangzj/secure/optee_gerrit/optee_os/lib/libutee/tee_api_arith.c:438
    14fe:	4815      	ldr	r0, [pc, #84]	; (1554 <TEE_BigIntMulMod+0x70>)
    1500:	4478      	add	r0, pc
    1502:	f000 f8d5 	bl	16b0 <TEE_BigInt_Panic>
/home/zhangzj/secure/optee_gerrit/optee_os/lib/libutee/tee_api_arith.c:448
    1506:	4c14      	ldr	r4, [pc, #80]	; (1558 <TEE_BigIntMulMod+0x74>)
    1508:	ae03      	add	r6, sp, #12
    150a:	4630      	mov	r0, r6
    150c:	447c      	add	r4, pc
    150e:	4621      	mov	r1, r4
    1510:	f004 ffb4 	bl	647c <mpa_alloc_static_temp_var>
/home/zhangzj/secure/optee_gerrit/optee_os/lib/libutee/tee_api_arith.c:449
    1514:	9803      	ldr	r0, [sp, #12]
    1516:	4649      	mov	r1, r9
    1518:	4642      	mov	r2, r8
    151a:	462b      	mov	r3, r5
    151c:	9400      	str	r4, [sp, #0]
    151e:	f007 f8f9 	bl	8714 <mpa_mul_mod>
/home/zhangzj/secure/optee_gerrit/optee_os/lib/libutee/tee_api_arith.c:450
    1522:	9803      	ldr	r0, [sp, #12]
    1524:	2100      	movs	r1, #0
    1526:	f006 fad1 	bl	7acc <mpa_cmp_short>
    152a:	2800      	cmp	r0, #0
    152c:	da05      	bge.n	153a <TEE_BigIntMulMod+0x56>
/home/zhangzj/secure/optee_gerrit/optee_os/lib/libutee/tee_api_arith.c:451
    152e:	9803      	ldr	r0, [sp, #12]
    1530:	462a      	mov	r2, r5
    1532:	4623      	mov	r3, r4
    1534:	4601      	mov	r1, r0
    1536:	f005 fed7 	bl	72e8 <mpa_add>
/home/zhangzj/secure/optee_gerrit/optee_os/lib/libutee/tee_api_arith.c:452
    153a:	4638      	mov	r0, r7
    153c:	9903      	ldr	r1, [sp, #12]
    153e:	f003 f86b 	bl	4618 <mpa_copy>
/home/zhangzj/secure/optee_gerrit/optee_os/lib/libutee/tee_api_arith.c:453
    1542:	4906      	ldr	r1, [pc, #24]	; (155c <TEE_BigIntMulMod+0x78>)
    1544:	4630      	mov	r0, r6
    1546:	4479      	add	r1, pc
    1548:	f004 ffaa 	bl	64a0 <mpa_free_static_temp_var>
/home/zhangzj/secure/optee_gerrit/optee_os/lib/libutee/tee_api_arith.c:454
    154c:	b005      	add	sp, #20
    154e:	e8bd 83f0 	ldmia.w	sp!, {r4, r5, r6, r7, r8, r9, pc}
    1552:	bf00      	nop
    1554:	00008a7b 	.word	0x00008a7b
    1558:	00011bd0 	.word	0x00011bd0
    155c:	00011b96 	.word	0x00011b96

00001560 <TEE_BigIntSquareMod>:
TEE_BigIntSquareMod():
/home/zhangzj/secure/optee_gerrit/optee_os/lib/libutee/tee_api_arith.c:461
    1560:	4613      	mov	r3, r2
/home/zhangzj/secure/optee_gerrit/optee_os/lib/libutee/tee_api_arith.c:462
    1562:	460a      	mov	r2, r1
    1564:	f7ff bfbe 	b.w	14e4 <TEE_BigIntMulMod>

00001568 <TEE_BigIntInvMod>:
TEE_BigIntInvMod():
/home/zhangzj/secure/optee_gerrit/optee_os/lib/libutee/tee_api_arith.c:470
    1568:	b570      	push	{r4, r5, r6, lr}
    156a:	4606      	mov	r6, r0
    156c:	460d      	mov	r5, r1
TEE_BigIntCmpS32():
/home/zhangzj/secure/optee_gerrit/optee_os/lib/libutee/tee_api_arith.c:247
    156e:	4610      	mov	r0, r2
    1570:	2102      	movs	r1, #2
TEE_BigIntInvMod():
/home/zhangzj/secure/optee_gerrit/optee_os/lib/libutee/tee_api_arith.c:470
    1572:	4614      	mov	r4, r2
TEE_BigIntCmpS32():
/home/zhangzj/secure/optee_gerrit/optee_os/lib/libutee/tee_api_arith.c:247
    1574:	f006 faaa 	bl	7acc <mpa_cmp_short>
TEE_BigIntInvMod():
/home/zhangzj/secure/optee_gerrit/optee_os/lib/libutee/tee_api_arith.c:475
    1578:	2800      	cmp	r0, #0
    157a:	da03      	bge.n	1584 <TEE_BigIntInvMod+0x1c>
/home/zhangzj/secure/optee_gerrit/optee_os/lib/libutee/tee_api_arith.c:476
    157c:	4809      	ldr	r0, [pc, #36]	; (15a4 <TEE_BigIntInvMod+0x3c>)
    157e:	4478      	add	r0, pc
    1580:	f000 f896 	bl	16b0 <TEE_BigInt_Panic>
TEE_BigIntCmpS32():
/home/zhangzj/secure/optee_gerrit/optee_os/lib/libutee/tee_api_arith.c:247
    1584:	4628      	mov	r0, r5
    1586:	2100      	movs	r1, #0
    1588:	f006 faa0 	bl	7acc <mpa_cmp_short>
TEE_BigIntInvMod():
/home/zhangzj/secure/optee_gerrit/optee_os/lib/libutee/tee_api_arith.c:475
    158c:	2800      	cmp	r0, #0
    158e:	d0f5      	beq.n	157c <TEE_BigIntInvMod+0x14>
/home/zhangzj/secure/optee_gerrit/optee_os/lib/libutee/tee_api_arith.c:478
    1590:	4b05      	ldr	r3, [pc, #20]	; (15a8 <TEE_BigIntInvMod+0x40>)
    1592:	4630      	mov	r0, r6
    1594:	4629      	mov	r1, r5
    1596:	4622      	mov	r2, r4
/home/zhangzj/secure/optee_gerrit/optee_os/lib/libutee/tee_api_arith.c:479
    1598:	e8bd 4070 	ldmia.w	sp!, {r4, r5, r6, lr}
/home/zhangzj/secure/optee_gerrit/optee_os/lib/libutee/tee_api_arith.c:478
    159c:	447b      	add	r3, pc
    159e:	f007 b8df 	b.w	8760 <mpa_inv_mod>
    15a2:	bf00      	nop
    15a4:	00008a12 	.word	0x00008a12
    15a8:	00011b40 	.word	0x00011b40

000015ac <TEE_BigIntRelativePrime>:
TEE_BigIntRelativePrime():
/home/zhangzj/secure/optee_gerrit/optee_os/lib/libutee/tee_api_arith.c:489
    15ac:	b5f7      	push	{r0, r1, r2, r4, r5, r6, r7, lr}
/home/zhangzj/secure/optee_gerrit/optee_os/lib/libutee/tee_api_arith.c:495
    15ae:	ad01      	add	r5, sp, #4
    15b0:	4c0d      	ldr	r4, [pc, #52]	; (15e8 <TEE_BigIntRelativePrime+0x3c>)
/home/zhangzj/secure/optee_gerrit/optee_os/lib/libutee/tee_api_arith.c:489
    15b2:	4607      	mov	r7, r0
    15b4:	460e      	mov	r6, r1
/home/zhangzj/secure/optee_gerrit/optee_os/lib/libutee/tee_api_arith.c:495
    15b6:	4628      	mov	r0, r5
    15b8:	447c      	add	r4, pc
    15ba:	4621      	mov	r1, r4
    15bc:	f004 ff5e 	bl	647c <mpa_alloc_static_temp_var>
/home/zhangzj/secure/optee_gerrit/optee_os/lib/libutee/tee_api_arith.c:497
    15c0:	4632      	mov	r2, r6
    15c2:	4623      	mov	r3, r4
    15c4:	9801      	ldr	r0, [sp, #4]
    15c6:	4639      	mov	r1, r7
    15c8:	f004 fd4e 	bl	6068 <mpa_gcd>
/home/zhangzj/secure/optee_gerrit/optee_os/lib/libutee/tee_api_arith.c:498
    15cc:	9801      	ldr	r0, [sp, #4]
    15ce:	2101      	movs	r1, #1
    15d0:	f006 fa7c 	bl	7acc <mpa_cmp_short>
    15d4:	4606      	mov	r6, r0
/home/zhangzj/secure/optee_gerrit/optee_os/lib/libutee/tee_api_arith.c:500
    15d6:	4621      	mov	r1, r4
    15d8:	4628      	mov	r0, r5
    15da:	f004 ff61 	bl	64a0 <mpa_free_static_temp_var>
/home/zhangzj/secure/optee_gerrit/optee_os/lib/libutee/tee_api_arith.c:503
    15de:	fab6 f086 	clz	r0, r6
    15e2:	0940      	lsrs	r0, r0, #5
    15e4:	b003      	add	sp, #12
    15e6:	bdf0      	pop	{r4, r5, r6, r7, pc}
    15e8:	00011b24 	.word	0x00011b24

000015ec <TEE_BigIntComputeExtendedGcd>:
TEE_BigIntComputeExtendedGcd():
/home/zhangzj/secure/optee_gerrit/optee_os/lib/libutee/tee_api_arith.c:511
    15ec:	b513      	push	{r0, r1, r4, lr}
/home/zhangzj/secure/optee_gerrit/optee_os/lib/libutee/tee_api_arith.c:518
    15ee:	9c04      	ldr	r4, [sp, #16]
    15f0:	9400      	str	r4, [sp, #0]
    15f2:	4c03      	ldr	r4, [pc, #12]	; (1600 <TEE_BigIntComputeExtendedGcd+0x14>)
    15f4:	447c      	add	r4, pc
    15f6:	9401      	str	r4, [sp, #4]
    15f8:	f004 fda2 	bl	6140 <mpa_extended_gcd>
/home/zhangzj/secure/optee_gerrit/optee_os/lib/libutee/tee_api_arith.c:519
    15fc:	b002      	add	sp, #8
    15fe:	bd10      	pop	{r4, pc}
    1600:	00011ae8 	.word	0x00011ae8

00001604 <TEE_BigIntIsProbablePrime>:
TEE_BigIntIsProbablePrime():
/home/zhangzj/secure/optee_gerrit/optee_os/lib/libutee/tee_api_arith.c:529
    1604:	294f      	cmp	r1, #79	; 0x4f
    1606:	d905      	bls.n	1614 <TEE_BigIntIsProbablePrime+0x10>
/home/zhangzj/secure/optee_gerrit/optee_os/lib/libutee/tee_api_arith.c:532
    1608:	f5b1 7f80 	cmp.w	r1, #256	; 0x100
/home/zhangzj/secure/optee_gerrit/optee_os/lib/libutee/tee_api_arith.c:533
    160c:	bf88      	it	hi
    160e:	f44f 7180 	movhi.w	r1, #256	; 0x100
    1612:	e000      	b.n	1616 <TEE_BigIntIsProbablePrime+0x12>
/home/zhangzj/secure/optee_gerrit/optee_os/lib/libutee/tee_api_arith.c:530
    1614:	2150      	movs	r1, #80	; 0x50
/home/zhangzj/secure/optee_gerrit/optee_os/lib/libutee/tee_api_arith.c:535
    1616:	4a02      	ldr	r2, [pc, #8]	; (1620 <TEE_BigIntIsProbablePrime+0x1c>)
    1618:	447a      	add	r2, pc
    161a:	f003 bb21 	b.w	4c60 <mpa_is_prob_prime>
    161e:	bf00      	nop
    1620:	00011ac4 	.word	0x00011ac4

00001624 <TEE_BigIntConvertToFMM>:
TEE_BigIntConvertToFMM():
/home/zhangzj/secure/optee_gerrit/optee_os/lib/libutee/tee_api_arith.c:549
    1624:	b513      	push	{r0, r1, r4, lr}
    1626:	4614      	mov	r4, r2
/home/zhangzj/secure/optee_gerrit/optee_os/lib/libutee/tee_api_arith.c:556
    1628:	689a      	ldr	r2, [r3, #8]
    162a:	9200      	str	r2, [sp, #0]
    162c:	4a04      	ldr	r2, [pc, #16]	; (1640 <TEE_BigIntConvertToFMM+0x1c>)
    162e:	447a      	add	r2, pc
    1630:	9201      	str	r2, [sp, #4]
    1632:	685a      	ldr	r2, [r3, #4]
    1634:	4623      	mov	r3, r4
    1636:	f003 faed 	bl	4c14 <mpa_montgomery_mul>
/home/zhangzj/secure/optee_gerrit/optee_os/lib/libutee/tee_api_arith.c:558
    163a:	b002      	add	sp, #8
    163c:	bd10      	pop	{r4, pc}
    163e:	bf00      	nop
    1640:	00011aae 	.word	0x00011aae

00001644 <TEE_BigIntConvertFromFMM>:
TEE_BigIntConvertFromFMM():
/home/zhangzj/secure/optee_gerrit/optee_os/lib/libutee/tee_api_arith.c:567
    1644:	e92d 47ff 	stmdb	sp!, {r0, r1, r2, r3, r4, r5, r6, r7, r8, r9, sl, lr}
/home/zhangzj/secure/optee_gerrit/optee_os/lib/libutee/tee_api_arith.c:579
    1648:	ad03      	add	r5, sp, #12
    164a:	4c11      	ldr	r4, [pc, #68]	; (1690 <TEE_BigIntConvertFromFMM+0x4c>)
/home/zhangzj/secure/optee_gerrit/optee_os/lib/libutee/tee_api_arith.c:567
    164c:	469a      	mov	sl, r3
    164e:	4606      	mov	r6, r0
    1650:	4688      	mov	r8, r1
/home/zhangzj/secure/optee_gerrit/optee_os/lib/libutee/tee_api_arith.c:579
    1652:	4628      	mov	r0, r5
/home/zhangzj/secure/optee_gerrit/optee_os/lib/libutee/tee_api_arith.c:567
    1654:	4617      	mov	r7, r2
/home/zhangzj/secure/optee_gerrit/optee_os/lib/libutee/tee_api_arith.c:579
    1656:	447c      	add	r4, pc
    1658:	4621      	mov	r1, r4
    165a:	f004 ff0f 	bl	647c <mpa_alloc_static_temp_var>
/home/zhangzj/secure/optee_gerrit/optee_os/lib/libutee/tee_api_arith.c:582
    165e:	f8dd 900c 	ldr.w	r9, [sp, #12]
    1662:	f003 f8a7 	bl	47b4 <mpa_constant_one>
    1666:	f8da 3008 	ldr.w	r3, [sl, #8]
    166a:	4642      	mov	r2, r8
    166c:	4601      	mov	r1, r0
    166e:	4648      	mov	r0, r9
    1670:	e9cd 3400 	strd	r3, r4, [sp]
    1674:	463b      	mov	r3, r7
    1676:	f003 facd 	bl	4c14 <mpa_montgomery_mul>
/home/zhangzj/secure/optee_gerrit/optee_os/lib/libutee/tee_api_arith.c:585
    167a:	4630      	mov	r0, r6
    167c:	9903      	ldr	r1, [sp, #12]
    167e:	f002 ffcb 	bl	4618 <mpa_copy>
/home/zhangzj/secure/optee_gerrit/optee_os/lib/libutee/tee_api_arith.c:586
    1682:	4628      	mov	r0, r5
    1684:	4621      	mov	r1, r4
    1686:	f004 ff0b 	bl	64a0 <mpa_free_static_temp_var>
/home/zhangzj/secure/optee_gerrit/optee_os/lib/libutee/tee_api_arith.c:587
    168a:	b004      	add	sp, #16
    168c:	e8bd 87f0 	ldmia.w	sp!, {r4, r5, r6, r7, r8, r9, sl, pc}
    1690:	00011a86 	.word	0x00011a86

00001694 <TEE_BigIntComputeFMM>:
TEE_BigIntComputeFMM():
/home/zhangzj/secure/optee_gerrit/optee_os/lib/libutee/tee_api_arith.c:597
    1694:	b513      	push	{r0, r1, r4, lr}
/home/zhangzj/secure/optee_gerrit/optee_os/lib/libutee/tee_api_arith.c:604
    1696:	9c04      	ldr	r4, [sp, #16]
    1698:	68a4      	ldr	r4, [r4, #8]
    169a:	9400      	str	r4, [sp, #0]
    169c:	4c03      	ldr	r4, [pc, #12]	; (16ac <TEE_BigIntComputeFMM+0x18>)
    169e:	447c      	add	r4, pc
    16a0:	9401      	str	r4, [sp, #4]
    16a2:	f003 fab7 	bl	4c14 <mpa_montgomery_mul>
/home/zhangzj/secure/optee_gerrit/optee_os/lib/libutee/tee_api_arith.c:606
    16a6:	b002      	add	sp, #8
    16a8:	bd10      	pop	{r4, pc}
    16aa:	bf00      	nop
    16ac:	00011a3e 	.word	0x00011a3e

000016b0 <TEE_BigInt_Panic>:
TEE_BigInt_Panic():
/home/zhangzj/secure/optee_gerrit/optee_os/lib/libutee/tee_api_arith.c:63
    16b0:	b507      	push	{r0, r1, r2, lr}
    16b2:	4601      	mov	r1, r0
/home/zhangzj/secure/optee_gerrit/optee_os/lib/libutee/tee_api_arith.c:64
    16b4:	480a      	ldr	r0, [pc, #40]	; (16e0 <TEE_BigInt_Panic+0x30>)
/home/zhangzj/secure/optee_gerrit/optee_os/lib/libutee/tee_api_arith.c:65
    16b6:	4c09      	ldr	r4, [pc, #36]	; (16dc <TEE_BigInt_Panic+0x2c>)
/home/zhangzj/secure/optee_gerrit/optee_os/lib/libutee/tee_api_arith.c:64
    16b8:	4478      	add	r0, pc
    16ba:	f000 f82f 	bl	171c <printf>
/home/zhangzj/secure/optee_gerrit/optee_os/lib/libutee/tee_api_arith.c:65
    16be:	4b09      	ldr	r3, [pc, #36]	; (16e4 <TEE_BigInt_Panic+0x34>)
    16c0:	2201      	movs	r2, #1
    16c2:	9401      	str	r4, [sp, #4]
    16c4:	4808      	ldr	r0, [pc, #32]	; (16e8 <TEE_BigInt_Panic+0x38>)
    16c6:	2141      	movs	r1, #65	; 0x41
    16c8:	447b      	add	r3, pc
    16ca:	4478      	add	r0, pc
    16cc:	9300      	str	r3, [sp, #0]
    16ce:	4613      	mov	r3, r2
    16d0:	f002 fcb4 	bl	403c <trace_printf>
    16d4:	4620      	mov	r0, r4
    16d6:	f007 f8b1 	bl	883c <__TEE_Panic>
/home/zhangzj/secure/optee_gerrit/optee_os/lib/libutee/tee_api_arith.c:67 (discriminator 1)
    16da:	e7fe      	b.n	16da <TEE_BigInt_Panic+0x2a>
    16dc:	00b16127 	.word	0x00b16127
    16e0:	000088a8 	.word	0x000088a8
    16e4:	000086d9 	.word	0x000086d9
    16e8:	00008866 	.word	0x00008866

000016ec <trace_ext_puts>:
trace_ext_puts():
/home/zhangzj/secure/optee_gerrit/optee_os/lib/libutee/trace_ext.c:39
    16ec:	b510      	push	{r4, lr}
    16ee:	4604      	mov	r4, r0
/home/zhangzj/secure/optee_gerrit/optee_os/lib/libutee/trace_ext.c:40
    16f0:	f001 fcc2 	bl	3078 <strlen>
    16f4:	4601      	mov	r1, r0
    16f6:	4620      	mov	r0, r4
/home/zhangzj/secure/optee_gerrit/optee_os/lib/libutee/trace_ext.c:41
    16f8:	e8bd 4010 	ldmia.w	sp!, {r4, lr}
/home/zhangzj/secure/optee_gerrit/optee_os/lib/libutee/trace_ext.c:40
    16fc:	f007 b8cc 	b.w	8898 <__utee_log_from_thumb>

00001700 <trace_ext_get_thread_id>:
trace_ext_get_thread_id():
/home/zhangzj/secure/optee_gerrit/optee_os/lib/libutee/trace_ext.c:46
    1700:	f04f 30ff 	mov.w	r0, #4294967295	; 0xffffffff
    1704:	4770      	bx	lr

00001706 <puts>:
puts():
/home/zhangzj/secure/optee_gerrit/optee_os/lib/libutee/trace_ext.c:93
    1706:	b510      	push	{r4, lr}
    1708:	4604      	mov	r4, r0
/home/zhangzj/secure/optee_gerrit/optee_os/lib/libutee/trace_ext.c:94
    170a:	f002 fc5b 	bl	3fc4 <trace_get_level>
    170e:	2800      	cmp	r0, #0
    1710:	dd02      	ble.n	1718 <puts+0x12>
/home/zhangzj/secure/optee_gerrit/optee_os/lib/libutee/trace_ext.c:95
    1712:	4620      	mov	r0, r4
    1714:	f7ff ffea 	bl	16ec <trace_ext_puts>
/home/zhangzj/secure/optee_gerrit/optee_os/lib/libutee/trace_ext.c:97
    1718:	2001      	movs	r0, #1
    171a:	bd10      	pop	{r4, pc}

0000171c <printf>:
printf():
/home/zhangzj/secure/optee_gerrit/optee_os/lib/libutee/trace_ext.c:56
    171c:	b40f      	push	{r0, r1, r2, r3}
    171e:	b570      	push	{r4, r5, r6, lr}
    1720:	b0c2      	sub	sp, #264	; 0x108
/home/zhangzj/secure/optee_gerrit/optee_os/lib/libutee/trace_ext.c:64
    1722:	f002 fc4f 	bl	3fc4 <trace_get_level>
    1726:	2800      	cmp	r0, #0
    1728:	dd2c      	ble.n	1784 <printf+0x68>
/home/zhangzj/secure/optee_gerrit/optee_os/lib/libutee/trace_ext.c:67
    172a:	4e19      	ldr	r6, [pc, #100]	; (1790 <printf+0x74>)
    172c:	ad02      	add	r5, sp, #8
    172e:	f44f 7280 	mov.w	r2, #256	; 0x100
    1732:	4628      	mov	r0, r5
    1734:	447e      	add	r6, pc
    1736:	4631      	mov	r1, r6
    1738:	f002 fbea 	bl	3f10 <strlcpy>
/home/zhangzj/secure/optee_gerrit/optee_os/lib/libutee/trace_ext.c:68
    173c:	28ff      	cmp	r0, #255	; 0xff
/home/zhangzj/secure/optee_gerrit/optee_os/lib/libutee/trace_ext.c:67
    173e:	4601      	mov	r1, r0
/home/zhangzj/secure/optee_gerrit/optee_os/lib/libutee/trace_ext.c:68
    1740:	d904      	bls.n	174c <printf+0x30>
/home/zhangzj/secure/optee_gerrit/optee_os/lib/libutee/trace_ext.c:69
    1742:	f106 000a 	add.w	r0, r6, #10
    1746:	f7ff ffde 	bl	1706 <puts>
    174a:	e01b      	b.n	1784 <printf+0x68>
/home/zhangzj/secure/optee_gerrit/optee_os/lib/libutee/trace_ext.c:73
    174c:	ab47      	add	r3, sp, #284	; 0x11c
/home/zhangzj/secure/optee_gerrit/optee_os/lib/libutee/trace_ext.c:74
    174e:	1828      	adds	r0, r5, r0
    1750:	9a46      	ldr	r2, [sp, #280]	; 0x118
    1752:	f5c1 7180 	rsb	r1, r1, #256	; 0x100
/home/zhangzj/secure/optee_gerrit/optee_os/lib/libutee/trace_ext.c:73
    1756:	9301      	str	r3, [sp, #4]
/home/zhangzj/secure/optee_gerrit/optee_os/lib/libutee/trace_ext.c:74
    1758:	f001 fab6 	bl	2cc8 <vsnprintf>
/home/zhangzj/secure/optee_gerrit/optee_os/lib/libutee/trace_ext.c:77
    175c:	1e04      	subs	r4, r0, #0
    175e:	da02      	bge.n	1766 <printf+0x4a>
/home/zhangzj/secure/optee_gerrit/optee_os/lib/libutee/trace_ext.c:78
    1760:	f106 000a 	add.w	r0, r6, #10
    1764:	e00a      	b.n	177c <printf+0x60>
/home/zhangzj/secure/optee_gerrit/optee_os/lib/libutee/trace_ext.c:81
    1766:	2cf6      	cmp	r4, #246	; 0xf6
    1768:	dd07      	ble.n	177a <printf+0x5e>
/home/zhangzj/secure/optee_gerrit/optee_os/lib/libutee/trace_ext.c:82
    176a:	490a      	ldr	r1, [pc, #40]	; (1794 <printf+0x78>)
    176c:	f20d 1003 	addw	r0, sp, #259	; 0x103
    1770:	2205      	movs	r2, #5
/home/zhangzj/secure/optee_gerrit/optee_os/lib/libutee/trace_ext.c:84
    1772:	24f1      	movs	r4, #241	; 0xf1
/home/zhangzj/secure/optee_gerrit/optee_os/lib/libutee/trace_ext.c:82
    1774:	4479      	add	r1, pc
    1776:	f001 fb0f 	bl	2d98 <memcpy>
/home/zhangzj/secure/optee_gerrit/optee_os/lib/libutee/trace_ext.c:87
    177a:	4628      	mov	r0, r5
    177c:	f7ff ffc3 	bl	1706 <puts>
/home/zhangzj/secure/optee_gerrit/optee_os/lib/libutee/trace_ext.c:89
    1780:	4620      	mov	r0, r4
    1782:	e000      	b.n	1786 <printf+0x6a>
/home/zhangzj/secure/optee_gerrit/optee_os/lib/libutee/trace_ext.c:65
    1784:	2000      	movs	r0, #0
/home/zhangzj/secure/optee_gerrit/optee_os/lib/libutee/trace_ext.c:90
    1786:	b042      	add	sp, #264	; 0x108
    1788:	e8bd 4070 	ldmia.w	sp!, {r4, r5, r6, lr}
    178c:	b004      	add	sp, #16
    178e:	4770      	bx	lr
    1790:	00008887 	.word	0x00008887
    1794:	00008862 	.word	0x00008862

00001798 <bget>:
bget():
/home/csx/share/gerrit/optee_os/lib/libutils/isoc/bget.c:575
    1798:	e96d 7e02 	strd	r7, lr, [sp, #-8]!
    179c:	b088      	sub	sp, #32
    179e:	af00      	add	r7, sp, #0
    17a0:	6078      	str	r0, [r7, #4]
/home/csx/share/gerrit/optee_os/lib/libutils/isoc/bget.c:576
    17a2:	687b      	ldr	r3, [r7, #4]
    17a4:	61fb      	str	r3, [r7, #28]
/home/csx/share/gerrit/optee_os/lib/libutils/isoc/bget.c:586
    17a6:	69fb      	ldr	r3, [r7, #28]
    17a8:	2b00      	cmp	r3, #0
    17aa:	dc0b      	bgt.n	17c4 <bget+0x2c>
/home/csx/share/gerrit/optee_os/lib/libutils/isoc/bget.c:586 (discriminator 1)
    17ac:	4b6e      	ldr	r3, [pc, #440]	; (1968 <bget+0x1d0>)
    17ae:	447b      	add	r3, pc
    17b0:	4618      	mov	r0, r3
    17b2:	4b6e      	ldr	r3, [pc, #440]	; (196c <bget+0x1d4>)
    17b4:	447b      	add	r3, pc
    17b6:	4619      	mov	r1, r3
    17b8:	f240 224a 	movw	r2, #586	; 0x24a
    17bc:	f7ff fd1c 	bl	11f8 <_assert_log>
    17c0:	f7ff fd30 	bl	1224 <_assert_break>
/home/csx/share/gerrit/optee_os/lib/libutils/isoc/bget.c:588
    17c4:	69fb      	ldr	r3, [r7, #28]
    17c6:	2b07      	cmp	r3, #7
    17c8:	d801      	bhi.n	17ce <bget+0x36>
/home/csx/share/gerrit/optee_os/lib/libutils/isoc/bget.c:589
    17ca:	2308      	movs	r3, #8
    17cc:	61fb      	str	r3, [r7, #28]
/home/csx/share/gerrit/optee_os/lib/libutils/isoc/bget.c:593
    17ce:	69fb      	ldr	r3, [r7, #28]
    17d0:	3307      	adds	r3, #7
    17d2:	f023 0307 	bic.w	r3, r3, #7
    17d6:	61fb      	str	r3, [r7, #28]
/home/csx/share/gerrit/optee_os/lib/libutils/isoc/bget.c:597
    17d8:	69fb      	ldr	r3, [r7, #28]
    17da:	3308      	adds	r3, #8
    17dc:	61fb      	str	r3, [r7, #28]
/home/csx/share/gerrit/optee_os/lib/libutils/isoc/bget.c:607
    17de:	4b64      	ldr	r3, [pc, #400]	; (1970 <bget+0x1d8>)
    17e0:	447b      	add	r3, pc
    17e2:	689b      	ldr	r3, [r3, #8]
    17e4:	61bb      	str	r3, [r7, #24]
/home/csx/share/gerrit/optee_os/lib/libutils/isoc/bget.c:628
    17e6:	e0b4      	b.n	1952 <bget+0x1ba>
/home/csx/share/gerrit/optee_os/lib/libutils/isoc/bget.c:629
    17e8:	69bb      	ldr	r3, [r7, #24]
    17ea:	685a      	ldr	r2, [r3, #4]
    17ec:	69fb      	ldr	r3, [r7, #28]
    17ee:	429a      	cmp	r2, r3
    17f0:	f2c0 80ac 	blt.w	194c <bget+0x1b4>
/home/csx/share/gerrit/optee_os/lib/libutils/isoc/bget.c:640
    17f4:	69bb      	ldr	r3, [r7, #24]
    17f6:	685a      	ldr	r2, [r3, #4]
    17f8:	69fb      	ldr	r3, [r7, #28]
    17fa:	1ad3      	subs	r3, r2, r3
    17fc:	2b10      	cmp	r3, #16
    17fe:	d942      	bls.n	1886 <bget+0xee>
/home/csx/share/gerrit/optee_os/lib/libutils/isoc/bget.c:643
    1800:	69bb      	ldr	r3, [r7, #24]
    1802:	685a      	ldr	r2, [r3, #4]
    1804:	69fb      	ldr	r3, [r7, #28]
    1806:	1ad3      	subs	r3, r2, r3
    1808:	461a      	mov	r2, r3
    180a:	69bb      	ldr	r3, [r7, #24]
    180c:	4413      	add	r3, r2
    180e:	617b      	str	r3, [r7, #20]
/home/csx/share/gerrit/optee_os/lib/libutils/isoc/bget.c:644
    1810:	69fb      	ldr	r3, [r7, #28]
    1812:	697a      	ldr	r2, [r7, #20]
    1814:	4413      	add	r3, r2
    1816:	613b      	str	r3, [r7, #16]
/home/csx/share/gerrit/optee_os/lib/libutils/isoc/bget.c:645
    1818:	693b      	ldr	r3, [r7, #16]
    181a:	681a      	ldr	r2, [r3, #0]
    181c:	69bb      	ldr	r3, [r7, #24]
    181e:	685b      	ldr	r3, [r3, #4]
    1820:	429a      	cmp	r2, r3
    1822:	d00b      	beq.n	183c <bget+0xa4>
/home/csx/share/gerrit/optee_os/lib/libutils/isoc/bget.c:645 (discriminator 1)
    1824:	4b53      	ldr	r3, [pc, #332]	; (1974 <bget+0x1dc>)
    1826:	447b      	add	r3, pc
    1828:	4618      	mov	r0, r3
    182a:	4b53      	ldr	r3, [pc, #332]	; (1978 <bget+0x1e0>)
    182c:	447b      	add	r3, pc
    182e:	4619      	mov	r1, r3
    1830:	f240 2285 	movw	r2, #645	; 0x285
    1834:	f7ff fce0 	bl	11f8 <_assert_log>
    1838:	f7ff fcf4 	bl	1224 <_assert_break>
/home/csx/share/gerrit/optee_os/lib/libutils/isoc/bget.c:647
    183c:	69bb      	ldr	r3, [r7, #24]
    183e:	685a      	ldr	r2, [r3, #4]
    1840:	69fb      	ldr	r3, [r7, #28]
    1842:	1ad2      	subs	r2, r2, r3
    1844:	69bb      	ldr	r3, [r7, #24]
    1846:	605a      	str	r2, [r3, #4]
/home/csx/share/gerrit/optee_os/lib/libutils/isoc/bget.c:649
    1848:	69bb      	ldr	r3, [r7, #24]
    184a:	685a      	ldr	r2, [r3, #4]
    184c:	697b      	ldr	r3, [r7, #20]
    184e:	601a      	str	r2, [r3, #0]
/home/csx/share/gerrit/optee_os/lib/libutils/isoc/bget.c:651
    1850:	69fb      	ldr	r3, [r7, #28]
    1852:	425a      	negs	r2, r3
    1854:	697b      	ldr	r3, [r7, #20]
    1856:	605a      	str	r2, [r3, #4]
/home/csx/share/gerrit/optee_os/lib/libutils/isoc/bget.c:653
    1858:	693b      	ldr	r3, [r7, #16]
    185a:	2200      	movs	r2, #0
    185c:	601a      	str	r2, [r3, #0]
/home/csx/share/gerrit/optee_os/lib/libutils/isoc/bget.c:656
    185e:	4b47      	ldr	r3, [pc, #284]	; (197c <bget+0x1e4>)
    1860:	447b      	add	r3, pc
    1862:	681a      	ldr	r2, [r3, #0]
    1864:	69fb      	ldr	r3, [r7, #28]
    1866:	4413      	add	r3, r2
    1868:	4a45      	ldr	r2, [pc, #276]	; (1980 <bget+0x1e8>)
    186a:	447a      	add	r2, pc
    186c:	6013      	str	r3, [r2, #0]
/home/csx/share/gerrit/optee_os/lib/libutils/isoc/bget.c:657
    186e:	4b45      	ldr	r3, [pc, #276]	; (1984 <bget+0x1ec>)
    1870:	447b      	add	r3, pc
    1872:	681b      	ldr	r3, [r3, #0]
    1874:	3301      	adds	r3, #1
    1876:	4a44      	ldr	r2, [pc, #272]	; (1988 <bget+0x1f0>)
    1878:	447a      	add	r2, pc
    187a:	6013      	str	r3, [r2, #0]
/home/csx/share/gerrit/optee_os/lib/libutils/isoc/bget.c:659
    187c:	697b      	ldr	r3, [r7, #20]
    187e:	3308      	adds	r3, #8
    1880:	60fb      	str	r3, [r7, #12]
/home/csx/share/gerrit/optee_os/lib/libutils/isoc/bget.c:660
    1882:	68fb      	ldr	r3, [r7, #12]
    1884:	e06c      	b.n	1960 <bget+0x1c8>
/home/csx/share/gerrit/optee_os/lib/libutils/isoc/bget.c:664
    1886:	69bb      	ldr	r3, [r7, #24]
    1888:	685b      	ldr	r3, [r3, #4]
    188a:	461a      	mov	r2, r3
    188c:	69bb      	ldr	r3, [r7, #24]
    188e:	4413      	add	r3, r2
    1890:	60bb      	str	r3, [r7, #8]
/home/csx/share/gerrit/optee_os/lib/libutils/isoc/bget.c:665
    1892:	68bb      	ldr	r3, [r7, #8]
    1894:	681a      	ldr	r2, [r3, #0]
    1896:	69bb      	ldr	r3, [r7, #24]
    1898:	685b      	ldr	r3, [r3, #4]
    189a:	429a      	cmp	r2, r3
    189c:	d00b      	beq.n	18b6 <bget+0x11e>
/home/csx/share/gerrit/optee_os/lib/libutils/isoc/bget.c:665 (discriminator 1)
    189e:	4b3b      	ldr	r3, [pc, #236]	; (198c <bget+0x1f4>)
    18a0:	447b      	add	r3, pc
    18a2:	4618      	mov	r0, r3
    18a4:	4b3a      	ldr	r3, [pc, #232]	; (1990 <bget+0x1f8>)
    18a6:	447b      	add	r3, pc
    18a8:	4619      	mov	r1, r3
    18aa:	f240 2299 	movw	r2, #665	; 0x299
    18ae:	f7ff fca3 	bl	11f8 <_assert_log>
    18b2:	f7ff fcb7 	bl	1224 <_assert_break>
/home/csx/share/gerrit/optee_os/lib/libutils/isoc/bget.c:670
    18b6:	69bb      	ldr	r3, [r7, #24]
    18b8:	68db      	ldr	r3, [r3, #12]
    18ba:	689a      	ldr	r2, [r3, #8]
    18bc:	69bb      	ldr	r3, [r7, #24]
    18be:	429a      	cmp	r2, r3
    18c0:	d00b      	beq.n	18da <bget+0x142>
/home/csx/share/gerrit/optee_os/lib/libutils/isoc/bget.c:670 (discriminator 1)
    18c2:	4b34      	ldr	r3, [pc, #208]	; (1994 <bget+0x1fc>)
    18c4:	447b      	add	r3, pc
    18c6:	4618      	mov	r0, r3
    18c8:	4b33      	ldr	r3, [pc, #204]	; (1998 <bget+0x200>)
    18ca:	447b      	add	r3, pc
    18cc:	4619      	mov	r1, r3
    18ce:	f240 229e 	movw	r2, #670	; 0x29e
    18d2:	f7ff fc91 	bl	11f8 <_assert_log>
    18d6:	f7ff fca5 	bl	1224 <_assert_break>
/home/csx/share/gerrit/optee_os/lib/libutils/isoc/bget.c:671
    18da:	69bb      	ldr	r3, [r7, #24]
    18dc:	689b      	ldr	r3, [r3, #8]
    18de:	68da      	ldr	r2, [r3, #12]
    18e0:	69bb      	ldr	r3, [r7, #24]
    18e2:	429a      	cmp	r2, r3
    18e4:	d00b      	beq.n	18fe <bget+0x166>
/home/csx/share/gerrit/optee_os/lib/libutils/isoc/bget.c:671 (discriminator 1)
    18e6:	4b2d      	ldr	r3, [pc, #180]	; (199c <bget+0x204>)
    18e8:	447b      	add	r3, pc
    18ea:	4618      	mov	r0, r3
    18ec:	4b2c      	ldr	r3, [pc, #176]	; (19a0 <bget+0x208>)
    18ee:	447b      	add	r3, pc
    18f0:	4619      	mov	r1, r3
    18f2:	f240 229f 	movw	r2, #671	; 0x29f
    18f6:	f7ff fc7f 	bl	11f8 <_assert_log>
    18fa:	f7ff fc93 	bl	1224 <_assert_break>
/home/csx/share/gerrit/optee_os/lib/libutils/isoc/bget.c:672
    18fe:	69bb      	ldr	r3, [r7, #24]
    1900:	68db      	ldr	r3, [r3, #12]
    1902:	69ba      	ldr	r2, [r7, #24]
    1904:	6892      	ldr	r2, [r2, #8]
    1906:	609a      	str	r2, [r3, #8]
/home/csx/share/gerrit/optee_os/lib/libutils/isoc/bget.c:673
    1908:	69bb      	ldr	r3, [r7, #24]
    190a:	689b      	ldr	r3, [r3, #8]
    190c:	69ba      	ldr	r2, [r7, #24]
    190e:	68d2      	ldr	r2, [r2, #12]
    1910:	60da      	str	r2, [r3, #12]
/home/csx/share/gerrit/optee_os/lib/libutils/isoc/bget.c:676
    1912:	69bb      	ldr	r3, [r7, #24]
    1914:	685a      	ldr	r2, [r3, #4]
    1916:	4b23      	ldr	r3, [pc, #140]	; (19a4 <bget+0x20c>)
    1918:	447b      	add	r3, pc
    191a:	681b      	ldr	r3, [r3, #0]
    191c:	4413      	add	r3, r2
    191e:	4a22      	ldr	r2, [pc, #136]	; (19a8 <bget+0x210>)
    1920:	447a      	add	r2, pc
    1922:	6013      	str	r3, [r2, #0]
/home/csx/share/gerrit/optee_os/lib/libutils/isoc/bget.c:677
    1924:	4b21      	ldr	r3, [pc, #132]	; (19ac <bget+0x214>)
    1926:	447b      	add	r3, pc
    1928:	681b      	ldr	r3, [r3, #0]
    192a:	3301      	adds	r3, #1
    192c:	4a20      	ldr	r2, [pc, #128]	; (19b0 <bget+0x218>)
    192e:	447a      	add	r2, pc
    1930:	6013      	str	r3, [r2, #0]
/home/csx/share/gerrit/optee_os/lib/libutils/isoc/bget.c:680
    1932:	69bb      	ldr	r3, [r7, #24]
    1934:	685b      	ldr	r3, [r3, #4]
    1936:	425a      	negs	r2, r3
    1938:	69bb      	ldr	r3, [r7, #24]
    193a:	605a      	str	r2, [r3, #4]
/home/csx/share/gerrit/optee_os/lib/libutils/isoc/bget.c:684
    193c:	68bb      	ldr	r3, [r7, #8]
    193e:	2200      	movs	r2, #0
    1940:	601a      	str	r2, [r3, #0]
/home/csx/share/gerrit/optee_os/lib/libutils/isoc/bget.c:687
    1942:	69bb      	ldr	r3, [r7, #24]
    1944:	3308      	adds	r3, #8
    1946:	60fb      	str	r3, [r7, #12]
/home/csx/share/gerrit/optee_os/lib/libutils/isoc/bget.c:688
    1948:	68fb      	ldr	r3, [r7, #12]
    194a:	e009      	b.n	1960 <bget+0x1c8>
/home/csx/share/gerrit/optee_os/lib/libutils/isoc/bget.c:691
    194c:	69bb      	ldr	r3, [r7, #24]
    194e:	689b      	ldr	r3, [r3, #8]
    1950:	61bb      	str	r3, [r7, #24]
/home/csx/share/gerrit/optee_os/lib/libutils/isoc/bget.c:628
    1952:	69bb      	ldr	r3, [r7, #24]
    1954:	4a17      	ldr	r2, [pc, #92]	; (19b4 <bget+0x21c>)
    1956:	447a      	add	r2, pc
    1958:	4293      	cmp	r3, r2
    195a:	f47f af45 	bne.w	17e8 <bget+0x50>
/home/csx/share/gerrit/optee_os/lib/libutils/isoc/bget.c:752
    195e:	2300      	movs	r3, #0
/home/csx/share/gerrit/optee_os/lib/libutils/isoc/bget.c:753
    1960:	4618      	mov	r0, r3
    1962:	3720      	adds	r7, #32
    1964:	46bd      	mov	sp, r7
    1966:	bd80      	pop	{r7, pc}
    1968:	000072a6 	.word	0x000072a6
    196c:	000072ac 	.word	0x000072ac
    1970:	000098b0 	.word	0x000098b0
    1974:	00007256 	.word	0x00007256
    1978:	00007234 	.word	0x00007234
    197c:	0001337c 	.word	0x0001337c
    1980:	00013372 	.word	0x00013372
    1984:	00013370 	.word	0x00013370
    1988:	00013368 	.word	0x00013368
    198c:	000071f8 	.word	0x000071f8
    1990:	000071ba 	.word	0x000071ba
    1994:	000071f0 	.word	0x000071f0
    1998:	00007196 	.word	0x00007196
    199c:	000071e8 	.word	0x000071e8
    19a0:	00007172 	.word	0x00007172
    19a4:	000132c4 	.word	0x000132c4
    19a8:	000132bc 	.word	0x000132bc
    19ac:	000132ba 	.word	0x000132ba
    19b0:	000132b2 	.word	0x000132b2
    19b4:	0000973a 	.word	0x0000973a

000019b8 <bgetz>:
bgetz():
/home/csx/share/gerrit/optee_os/lib/libutils/isoc/bget.c:761
    19b8:	e96d 7e02 	strd	r7, lr, [sp, #-8]!
    19bc:	b086      	sub	sp, #24
    19be:	af00      	add	r7, sp, #0
    19c0:	6078      	str	r0, [r7, #4]
/home/csx/share/gerrit/optee_os/lib/libutils/isoc/bget.c:762
    19c2:	6878      	ldr	r0, [r7, #4]
    19c4:	f7ff fee8 	bl	1798 <bget>
    19c8:	6138      	str	r0, [r7, #16]
/home/csx/share/gerrit/optee_os/lib/libutils/isoc/bget.c:764
    19ca:	693b      	ldr	r3, [r7, #16]
    19cc:	2b00      	cmp	r3, #0
    19ce:	d02a      	beq.n	1a26 <bgetz+0x6e>
/home/csx/share/gerrit/optee_os/lib/libutils/isoc/bget.c:768
    19d0:	693b      	ldr	r3, [r7, #16]
    19d2:	3b08      	subs	r3, #8
    19d4:	60fb      	str	r3, [r7, #12]
/home/csx/share/gerrit/optee_os/lib/libutils/isoc/bget.c:769
    19d6:	68fb      	ldr	r3, [r7, #12]
    19d8:	685b      	ldr	r3, [r3, #4]
    19da:	425b      	negs	r3, r3
    19dc:	617b      	str	r3, [r7, #20]
/home/csx/share/gerrit/optee_os/lib/libutils/isoc/bget.c:770
    19de:	697b      	ldr	r3, [r7, #20]
    19e0:	2b00      	cmp	r3, #0
    19e2:	d107      	bne.n	19f4 <bgetz+0x3c>
/home/csx/share/gerrit/optee_os/lib/libutils/isoc/bget.c:773
    19e4:	693b      	ldr	r3, [r7, #16]
    19e6:	3b0c      	subs	r3, #12
    19e8:	60bb      	str	r3, [r7, #8]
/home/csx/share/gerrit/optee_os/lib/libutils/isoc/bget.c:774
    19ea:	68bb      	ldr	r3, [r7, #8]
    19ec:	681b      	ldr	r3, [r3, #0]
    19ee:	3b0c      	subs	r3, #12
    19f0:	617b      	str	r3, [r7, #20]
    19f2:	e002      	b.n	19fa <bgetz+0x42>
/home/csx/share/gerrit/optee_os/lib/libutils/isoc/bget.c:776
    19f4:	697b      	ldr	r3, [r7, #20]
    19f6:	3b08      	subs	r3, #8
    19f8:	617b      	str	r3, [r7, #20]
/home/csx/share/gerrit/optee_os/lib/libutils/isoc/bget.c:778
    19fa:	697a      	ldr	r2, [r7, #20]
    19fc:	687b      	ldr	r3, [r7, #4]
    19fe:	429a      	cmp	r2, r3
    1a00:	da0b      	bge.n	1a1a <bgetz+0x62>
/home/csx/share/gerrit/optee_os/lib/libutils/isoc/bget.c:778 (discriminator 1)
    1a02:	4b0b      	ldr	r3, [pc, #44]	; (1a30 <bgetz+0x78>)
    1a04:	447b      	add	r3, pc
    1a06:	4618      	mov	r0, r3
    1a08:	4b0a      	ldr	r3, [pc, #40]	; (1a34 <bgetz+0x7c>)
    1a0a:	447b      	add	r3, pc
    1a0c:	4619      	mov	r1, r3
    1a0e:	f240 320a 	movw	r2, #778	; 0x30a
    1a12:	f7ff fbf1 	bl	11f8 <_assert_log>
    1a16:	f7ff fc05 	bl	1224 <_assert_break>
/home/csx/share/gerrit/optee_os/lib/libutils/isoc/bget.c:779
    1a1a:	697b      	ldr	r3, [r7, #20]
    1a1c:	6938      	ldr	r0, [r7, #16]
    1a1e:	2100      	movs	r1, #0
    1a20:	461a      	mov	r2, r3
    1a22:	f001 faad 	bl	2f80 <memset>
/home/csx/share/gerrit/optee_os/lib/libutils/isoc/bget.c:781
    1a26:	693b      	ldr	r3, [r7, #16]
/home/csx/share/gerrit/optee_os/lib/libutils/isoc/bget.c:782
    1a28:	4618      	mov	r0, r3
    1a2a:	3718      	adds	r7, #24
    1a2c:	46bd      	mov	sp, r7
    1a2e:	bd80      	pop	{r7, pc}
    1a30:	000070e8 	.word	0x000070e8
    1a34:	00007056 	.word	0x00007056

00001a38 <bgetr>:
bgetr():
/home/csx/share/gerrit/optee_os/lib/libutils/isoc/bget.c:792
    1a38:	e96d 7e02 	strd	r7, lr, [sp, #-8]!
    1a3c:	b086      	sub	sp, #24
    1a3e:	af00      	add	r7, sp, #0
    1a40:	6078      	str	r0, [r7, #4]
    1a42:	6039      	str	r1, [r7, #0]
/home/csx/share/gerrit/optee_os/lib/libutils/isoc/bget.c:797
    1a44:	6838      	ldr	r0, [r7, #0]
    1a46:	f7ff fea7 	bl	1798 <bget>
    1a4a:	6178      	str	r0, [r7, #20]
    1a4c:	697b      	ldr	r3, [r7, #20]
    1a4e:	2b00      	cmp	r3, #0
    1a50:	d101      	bne.n	1a56 <bgetr+0x1e>
/home/csx/share/gerrit/optee_os/lib/libutils/isoc/bget.c:798
    1a52:	2300      	movs	r3, #0
    1a54:	e02b      	b.n	1aae <bgetr+0x76>
/home/csx/share/gerrit/optee_os/lib/libutils/isoc/bget.c:800
    1a56:	687b      	ldr	r3, [r7, #4]
    1a58:	2b00      	cmp	r3, #0
    1a5a:	d101      	bne.n	1a60 <bgetr+0x28>
/home/csx/share/gerrit/optee_os/lib/libutils/isoc/bget.c:801
    1a5c:	697b      	ldr	r3, [r7, #20]
    1a5e:	e026      	b.n	1aae <bgetr+0x76>
/home/csx/share/gerrit/optee_os/lib/libutils/isoc/bget.c:803
    1a60:	687b      	ldr	r3, [r7, #4]
    1a62:	3b08      	subs	r3, #8
    1a64:	613b      	str	r3, [r7, #16]
/home/csx/share/gerrit/optee_os/lib/libutils/isoc/bget.c:804
    1a66:	693b      	ldr	r3, [r7, #16]
    1a68:	685b      	ldr	r3, [r3, #4]
    1a6a:	425b      	negs	r3, r3
    1a6c:	60fb      	str	r3, [r7, #12]
/home/csx/share/gerrit/optee_os/lib/libutils/isoc/bget.c:814
    1a6e:	68fb      	ldr	r3, [r7, #12]
    1a70:	3b08      	subs	r3, #8
    1a72:	60fb      	str	r3, [r7, #12]
/home/csx/share/gerrit/optee_os/lib/libutils/isoc/bget.c:815
    1a74:	68fb      	ldr	r3, [r7, #12]
    1a76:	2b00      	cmp	r3, #0
    1a78:	dc0b      	bgt.n	1a92 <bgetr+0x5a>
/home/csx/share/gerrit/optee_os/lib/libutils/isoc/bget.c:815 (discriminator 1)
    1a7a:	4b0f      	ldr	r3, [pc, #60]	; (1ab8 <bgetr+0x80>)
    1a7c:	447b      	add	r3, pc
    1a7e:	4618      	mov	r0, r3
    1a80:	4b0e      	ldr	r3, [pc, #56]	; (1abc <bgetr+0x84>)
    1a82:	447b      	add	r3, pc
    1a84:	4619      	mov	r1, r3
    1a86:	f240 322f 	movw	r2, #815	; 0x32f
    1a8a:	f7ff fbb5 	bl	11f8 <_assert_log>
    1a8e:	f7ff fbc9 	bl	1224 <_assert_break>
/home/csx/share/gerrit/optee_os/lib/libutils/isoc/bget.c:817
    1a92:	68fa      	ldr	r2, [r7, #12]
    1a94:	683b      	ldr	r3, [r7, #0]
    1a96:	4293      	cmp	r3, r2
    1a98:	bfa8      	it	ge
    1a9a:	4613      	movge	r3, r2
/home/csx/share/gerrit/optee_os/lib/libutils/isoc/bget.c:816
    1a9c:	6978      	ldr	r0, [r7, #20]
    1a9e:	6879      	ldr	r1, [r7, #4]
    1aa0:	461a      	mov	r2, r3
    1aa2:	f001 f979 	bl	2d98 <memcpy>
/home/csx/share/gerrit/optee_os/lib/libutils/isoc/bget.c:818
    1aa6:	6878      	ldr	r0, [r7, #4]
    1aa8:	f000 f80a 	bl	1ac0 <brel>
/home/csx/share/gerrit/optee_os/lib/libutils/isoc/bget.c:819
    1aac:	697b      	ldr	r3, [r7, #20]
/home/csx/share/gerrit/optee_os/lib/libutils/isoc/bget.c:820
    1aae:	4618      	mov	r0, r3
    1ab0:	3718      	adds	r7, #24
    1ab2:	46bd      	mov	sp, r7
    1ab4:	bd80      	pop	{r7, pc}
    1ab6:	bf00      	nop
    1ab8:	00007080 	.word	0x00007080
    1abc:	00006fde 	.word	0x00006fde

00001ac0 <brel>:
brel():
/home/csx/share/gerrit/optee_os/lib/libutils/isoc/bget.c:826
    1ac0:	f84d 4d0c 	str.w	r4, [sp, #-12]!
    1ac4:	e9cd 7e01 	strd	r7, lr, [sp, #4]
    1ac8:	b085      	sub	sp, #20
    1aca:	af00      	add	r7, sp, #0
    1acc:	6078      	str	r0, [r7, #4]
/home/csx/share/gerrit/optee_os/lib/libutils/isoc/bget.c:829
    1ace:	687b      	ldr	r3, [r7, #4]
    1ad0:	3b08      	subs	r3, #8
    1ad2:	60fb      	str	r3, [r7, #12]
/home/csx/share/gerrit/optee_os/lib/libutils/isoc/bget.c:831
    1ad4:	4b9b      	ldr	r3, [pc, #620]	; (1d44 <brel+0x284>)
    1ad6:	447b      	add	r3, pc
    1ad8:	681b      	ldr	r3, [r3, #0]
    1ada:	3301      	adds	r3, #1
    1adc:	4a9a      	ldr	r2, [pc, #616]	; (1d48 <brel+0x288>)
    1ade:	447a      	add	r2, pc
    1ae0:	6013      	str	r3, [r2, #0]
/home/csx/share/gerrit/optee_os/lib/libutils/isoc/bget.c:833
    1ae2:	687b      	ldr	r3, [r7, #4]
    1ae4:	2b00      	cmp	r3, #0
    1ae6:	d10b      	bne.n	1b00 <brel+0x40>
/home/csx/share/gerrit/optee_os/lib/libutils/isoc/bget.c:833 (discriminator 1)
    1ae8:	4b98      	ldr	r3, [pc, #608]	; (1d4c <brel+0x28c>)
    1aea:	447b      	add	r3, pc
    1aec:	4618      	mov	r0, r3
    1aee:	4b98      	ldr	r3, [pc, #608]	; (1d50 <brel+0x290>)
    1af0:	447b      	add	r3, pc
    1af2:	4619      	mov	r1, r3
    1af4:	f240 3241 	movw	r2, #833	; 0x341
    1af8:	f7ff fb7e 	bl	11f8 <_assert_log>
    1afc:	f7ff fb92 	bl	1224 <_assert_break>
/home/csx/share/gerrit/optee_os/lib/libutils/isoc/bget.c:859
    1b00:	68fb      	ldr	r3, [r7, #12]
    1b02:	685b      	ldr	r3, [r3, #4]
    1b04:	2b00      	cmp	r3, #0
    1b06:	db01      	blt.n	1b0c <brel+0x4c>
/home/csx/share/gerrit/optee_os/lib/libutils/isoc/bget.c:860
    1b08:	2300      	movs	r3, #0
    1b0a:	60bb      	str	r3, [r7, #8]
/home/csx/share/gerrit/optee_os/lib/libutils/isoc/bget.c:862
    1b0c:	68fb      	ldr	r3, [r7, #12]
    1b0e:	685b      	ldr	r3, [r3, #4]
    1b10:	2b00      	cmp	r3, #0
    1b12:	db0b      	blt.n	1b2c <brel+0x6c>
/home/csx/share/gerrit/optee_os/lib/libutils/isoc/bget.c:862 (discriminator 1)
    1b14:	4b8f      	ldr	r3, [pc, #572]	; (1d54 <brel+0x294>)
    1b16:	447b      	add	r3, pc
    1b18:	4618      	mov	r0, r3
    1b1a:	4b8f      	ldr	r3, [pc, #572]	; (1d58 <brel+0x298>)
    1b1c:	447b      	add	r3, pc
    1b1e:	4619      	mov	r1, r3
    1b20:	f240 325e 	movw	r2, #862	; 0x35e
    1b24:	f7ff fb68 	bl	11f8 <_assert_log>
    1b28:	f7ff fb7c 	bl	1224 <_assert_break>
/home/csx/share/gerrit/optee_os/lib/libutils/isoc/bget.c:867
    1b2c:	68fb      	ldr	r3, [r7, #12]
    1b2e:	685b      	ldr	r3, [r3, #4]
    1b30:	425b      	negs	r3, r3
    1b32:	68fa      	ldr	r2, [r7, #12]
    1b34:	4413      	add	r3, r2
    1b36:	681b      	ldr	r3, [r3, #0]
    1b38:	2b00      	cmp	r3, #0
    1b3a:	d00b      	beq.n	1b54 <brel+0x94>
/home/csx/share/gerrit/optee_os/lib/libutils/isoc/bget.c:867 (discriminator 1)
    1b3c:	4b87      	ldr	r3, [pc, #540]	; (1d5c <brel+0x29c>)
    1b3e:	447b      	add	r3, pc
    1b40:	4618      	mov	r0, r3
    1b42:	4b87      	ldr	r3, [pc, #540]	; (1d60 <brel+0x2a0>)
    1b44:	447b      	add	r3, pc
    1b46:	4619      	mov	r1, r3
    1b48:	f240 3263 	movw	r2, #867	; 0x363
    1b4c:	f7ff fb54 	bl	11f8 <_assert_log>
    1b50:	f7ff fb68 	bl	1224 <_assert_break>
/home/csx/share/gerrit/optee_os/lib/libutils/isoc/bget.c:870
    1b54:	68fb      	ldr	r3, [r7, #12]
    1b56:	685a      	ldr	r2, [r3, #4]
    1b58:	4b82      	ldr	r3, [pc, #520]	; (1d64 <brel+0x2a4>)
    1b5a:	447b      	add	r3, pc
    1b5c:	681b      	ldr	r3, [r3, #0]
    1b5e:	4413      	add	r3, r2
    1b60:	4a81      	ldr	r2, [pc, #516]	; (1d68 <brel+0x2a8>)
    1b62:	447a      	add	r2, pc
    1b64:	6013      	str	r3, [r2, #0]
/home/csx/share/gerrit/optee_os/lib/libutils/isoc/bget.c:871
    1b66:	4b81      	ldr	r3, [pc, #516]	; (1d6c <brel+0x2ac>)
    1b68:	447b      	add	r3, pc
    1b6a:	681b      	ldr	r3, [r3, #0]
    1b6c:	2b00      	cmp	r3, #0
    1b6e:	da0b      	bge.n	1b88 <brel+0xc8>
/home/csx/share/gerrit/optee_os/lib/libutils/isoc/bget.c:871 (discriminator 1)
    1b70:	4b7f      	ldr	r3, [pc, #508]	; (1d70 <brel+0x2b0>)
    1b72:	447b      	add	r3, pc
    1b74:	4618      	mov	r0, r3
    1b76:	4b7f      	ldr	r3, [pc, #508]	; (1d74 <brel+0x2b4>)
    1b78:	447b      	add	r3, pc
    1b7a:	4619      	mov	r1, r3
    1b7c:	f240 3267 	movw	r2, #871	; 0x367
    1b80:	f7ff fb3a 	bl	11f8 <_assert_log>
    1b84:	f7ff fb4e 	bl	1224 <_assert_break>
/home/csx/share/gerrit/optee_os/lib/libutils/isoc/bget.c:876
    1b88:	68fb      	ldr	r3, [r7, #12]
    1b8a:	681b      	ldr	r3, [r3, #0]
    1b8c:	2b00      	cmp	r3, #0
    1b8e:	d023      	beq.n	1bd8 <brel+0x118>
/home/csx/share/gerrit/optee_os/lib/libutils/isoc/bget.c:884
    1b90:	68fb      	ldr	r3, [r7, #12]
    1b92:	685c      	ldr	r4, [r3, #4]
/home/csx/share/gerrit/optee_os/lib/libutils/isoc/bget.c:887
    1b94:	68fb      	ldr	r3, [r7, #12]
    1b96:	681b      	ldr	r3, [r3, #0]
    1b98:	425b      	negs	r3, r3
    1b9a:	68fa      	ldr	r2, [r7, #12]
    1b9c:	4413      	add	r3, r2
    1b9e:	685a      	ldr	r2, [r3, #4]
    1ba0:	68fb      	ldr	r3, [r7, #12]
    1ba2:	681b      	ldr	r3, [r3, #0]
    1ba4:	429a      	cmp	r2, r3
    1ba6:	d00b      	beq.n	1bc0 <brel+0x100>
/home/csx/share/gerrit/optee_os/lib/libutils/isoc/bget.c:887 (discriminator 1)
    1ba8:	4b73      	ldr	r3, [pc, #460]	; (1d78 <brel+0x2b8>)
    1baa:	447b      	add	r3, pc
    1bac:	4618      	mov	r0, r3
    1bae:	4b73      	ldr	r3, [pc, #460]	; (1d7c <brel+0x2bc>)
    1bb0:	447b      	add	r3, pc
    1bb2:	4619      	mov	r1, r3
    1bb4:	f240 3277 	movw	r2, #887	; 0x377
    1bb8:	f7ff fb1e 	bl	11f8 <_assert_log>
    1bbc:	f7ff fb32 	bl	1224 <_assert_break>
/home/csx/share/gerrit/optee_os/lib/libutils/isoc/bget.c:888
    1bc0:	68fb      	ldr	r3, [r7, #12]
    1bc2:	681b      	ldr	r3, [r3, #0]
    1bc4:	425b      	negs	r3, r3
    1bc6:	68fa      	ldr	r2, [r7, #12]
    1bc8:	4413      	add	r3, r2
    1bca:	60fb      	str	r3, [r7, #12]
/home/csx/share/gerrit/optee_os/lib/libutils/isoc/bget.c:889
    1bcc:	68fb      	ldr	r3, [r7, #12]
    1bce:	685b      	ldr	r3, [r3, #4]
    1bd0:	1b1a      	subs	r2, r3, r4
    1bd2:	68fb      	ldr	r3, [r7, #12]
    1bd4:	605a      	str	r2, [r3, #4]
    1bd6:	e03e      	b.n	1c56 <brel+0x196>
/home/csx/share/gerrit/optee_os/lib/libutils/isoc/bget.c:895
    1bd8:	4b69      	ldr	r3, [pc, #420]	; (1d80 <brel+0x2c0>)
    1bda:	447b      	add	r3, pc
    1bdc:	68db      	ldr	r3, [r3, #12]
    1bde:	689b      	ldr	r3, [r3, #8]
    1be0:	4a68      	ldr	r2, [pc, #416]	; (1d84 <brel+0x2c4>)
    1be2:	447a      	add	r2, pc
    1be4:	4293      	cmp	r3, r2
    1be6:	d00b      	beq.n	1c00 <brel+0x140>
/home/csx/share/gerrit/optee_os/lib/libutils/isoc/bget.c:895 (discriminator 1)
    1be8:	4b67      	ldr	r3, [pc, #412]	; (1d88 <brel+0x2c8>)
    1bea:	447b      	add	r3, pc
    1bec:	4618      	mov	r0, r3
    1bee:	4b67      	ldr	r3, [pc, #412]	; (1d8c <brel+0x2cc>)
    1bf0:	447b      	add	r3, pc
    1bf2:	4619      	mov	r1, r3
    1bf4:	f240 327f 	movw	r2, #895	; 0x37f
    1bf8:	f7ff fafe 	bl	11f8 <_assert_log>
    1bfc:	f7ff fb12 	bl	1224 <_assert_break>
/home/csx/share/gerrit/optee_os/lib/libutils/isoc/bget.c:896
    1c00:	4b63      	ldr	r3, [pc, #396]	; (1d90 <brel+0x2d0>)
    1c02:	447b      	add	r3, pc
    1c04:	689b      	ldr	r3, [r3, #8]
    1c06:	68db      	ldr	r3, [r3, #12]
    1c08:	4a62      	ldr	r2, [pc, #392]	; (1d94 <brel+0x2d4>)
    1c0a:	447a      	add	r2, pc
    1c0c:	4293      	cmp	r3, r2
    1c0e:	d00b      	beq.n	1c28 <brel+0x168>
/home/csx/share/gerrit/optee_os/lib/libutils/isoc/bget.c:896 (discriminator 1)
    1c10:	4b61      	ldr	r3, [pc, #388]	; (1d98 <brel+0x2d8>)
    1c12:	447b      	add	r3, pc
    1c14:	4618      	mov	r0, r3
    1c16:	4b61      	ldr	r3, [pc, #388]	; (1d9c <brel+0x2dc>)
    1c18:	447b      	add	r3, pc
    1c1a:	4619      	mov	r1, r3
    1c1c:	f44f 7260 	mov.w	r2, #896	; 0x380
    1c20:	f7ff faea 	bl	11f8 <_assert_log>
    1c24:	f7ff fafe 	bl	1224 <_assert_break>
/home/csx/share/gerrit/optee_os/lib/libutils/isoc/bget.c:897
    1c28:	68fb      	ldr	r3, [r7, #12]
    1c2a:	4a5d      	ldr	r2, [pc, #372]	; (1da0 <brel+0x2e0>)
    1c2c:	447a      	add	r2, pc
    1c2e:	609a      	str	r2, [r3, #8]
/home/csx/share/gerrit/optee_os/lib/libutils/isoc/bget.c:898
    1c30:	4b5c      	ldr	r3, [pc, #368]	; (1da4 <brel+0x2e4>)
    1c32:	447b      	add	r3, pc
    1c34:	68da      	ldr	r2, [r3, #12]
    1c36:	68fb      	ldr	r3, [r7, #12]
    1c38:	60da      	str	r2, [r3, #12]
/home/csx/share/gerrit/optee_os/lib/libutils/isoc/bget.c:899
    1c3a:	4b5b      	ldr	r3, [pc, #364]	; (1da8 <brel+0x2e8>)
    1c3c:	447b      	add	r3, pc
    1c3e:	461a      	mov	r2, r3
    1c40:	68fb      	ldr	r3, [r7, #12]
    1c42:	60d3      	str	r3, [r2, #12]
/home/csx/share/gerrit/optee_os/lib/libutils/isoc/bget.c:900
    1c44:	68fb      	ldr	r3, [r7, #12]
    1c46:	68db      	ldr	r3, [r3, #12]
    1c48:	68fa      	ldr	r2, [r7, #12]
    1c4a:	609a      	str	r2, [r3, #8]
/home/csx/share/gerrit/optee_os/lib/libutils/isoc/bget.c:901
    1c4c:	68fb      	ldr	r3, [r7, #12]
    1c4e:	685b      	ldr	r3, [r3, #4]
    1c50:	425a      	negs	r2, r3
    1c52:	68fb      	ldr	r3, [r7, #12]
    1c54:	605a      	str	r2, [r3, #4]
/home/csx/share/gerrit/optee_os/lib/libutils/isoc/bget.c:909
    1c56:	68fb      	ldr	r3, [r7, #12]
    1c58:	685b      	ldr	r3, [r3, #4]
    1c5a:	461a      	mov	r2, r3
    1c5c:	68fb      	ldr	r3, [r7, #12]
    1c5e:	4413      	add	r3, r2
    1c60:	60bb      	str	r3, [r7, #8]
/home/csx/share/gerrit/optee_os/lib/libutils/isoc/bget.c:910
    1c62:	68bb      	ldr	r3, [r7, #8]
    1c64:	685b      	ldr	r3, [r3, #4]
    1c66:	2b00      	cmp	r3, #0
    1c68:	dd50      	ble.n	1d0c <brel+0x24c>
/home/csx/share/gerrit/optee_os/lib/libutils/isoc/bget.c:915
    1c6a:	68bb      	ldr	r3, [r7, #8]
    1c6c:	685b      	ldr	r3, [r3, #4]
    1c6e:	461a      	mov	r2, r3
    1c70:	68bb      	ldr	r3, [r7, #8]
    1c72:	4413      	add	r3, r2
    1c74:	681a      	ldr	r2, [r3, #0]
    1c76:	68bb      	ldr	r3, [r7, #8]
    1c78:	685b      	ldr	r3, [r3, #4]
    1c7a:	429a      	cmp	r2, r3
    1c7c:	d00b      	beq.n	1c96 <brel+0x1d6>
/home/csx/share/gerrit/optee_os/lib/libutils/isoc/bget.c:915 (discriminator 1)
    1c7e:	4b4b      	ldr	r3, [pc, #300]	; (1dac <brel+0x2ec>)
    1c80:	447b      	add	r3, pc
    1c82:	4618      	mov	r0, r3
    1c84:	4b4a      	ldr	r3, [pc, #296]	; (1db0 <brel+0x2f0>)
    1c86:	447b      	add	r3, pc
    1c88:	4619      	mov	r1, r3
    1c8a:	f240 3293 	movw	r2, #915	; 0x393
    1c8e:	f7ff fab3 	bl	11f8 <_assert_log>
    1c92:	f7ff fac7 	bl	1224 <_assert_break>
/home/csx/share/gerrit/optee_os/lib/libutils/isoc/bget.c:916
    1c96:	68bb      	ldr	r3, [r7, #8]
    1c98:	68db      	ldr	r3, [r3, #12]
    1c9a:	689a      	ldr	r2, [r3, #8]
    1c9c:	68bb      	ldr	r3, [r7, #8]
    1c9e:	429a      	cmp	r2, r3
    1ca0:	d00b      	beq.n	1cba <brel+0x1fa>
/home/csx/share/gerrit/optee_os/lib/libutils/isoc/bget.c:916 (discriminator 1)
    1ca2:	4b44      	ldr	r3, [pc, #272]	; (1db4 <brel+0x2f4>)
    1ca4:	447b      	add	r3, pc
    1ca6:	4618      	mov	r0, r3
    1ca8:	4b43      	ldr	r3, [pc, #268]	; (1db8 <brel+0x2f8>)
    1caa:	447b      	add	r3, pc
    1cac:	4619      	mov	r1, r3
    1cae:	f44f 7265 	mov.w	r2, #916	; 0x394
    1cb2:	f7ff faa1 	bl	11f8 <_assert_log>
    1cb6:	f7ff fab5 	bl	1224 <_assert_break>
/home/csx/share/gerrit/optee_os/lib/libutils/isoc/bget.c:917
    1cba:	68bb      	ldr	r3, [r7, #8]
    1cbc:	689b      	ldr	r3, [r3, #8]
    1cbe:	68da      	ldr	r2, [r3, #12]
    1cc0:	68bb      	ldr	r3, [r7, #8]
    1cc2:	429a      	cmp	r2, r3
    1cc4:	d00b      	beq.n	1cde <brel+0x21e>
/home/csx/share/gerrit/optee_os/lib/libutils/isoc/bget.c:917 (discriminator 1)
    1cc6:	4b3d      	ldr	r3, [pc, #244]	; (1dbc <brel+0x2fc>)
    1cc8:	447b      	add	r3, pc
    1cca:	4618      	mov	r0, r3
    1ccc:	4b3c      	ldr	r3, [pc, #240]	; (1dc0 <brel+0x300>)
    1cce:	447b      	add	r3, pc
    1cd0:	4619      	mov	r1, r3
    1cd2:	f240 3295 	movw	r2, #917	; 0x395
    1cd6:	f7ff fa8f 	bl	11f8 <_assert_log>
    1cda:	f7ff faa3 	bl	1224 <_assert_break>
/home/csx/share/gerrit/optee_os/lib/libutils/isoc/bget.c:918
    1cde:	68bb      	ldr	r3, [r7, #8]
    1ce0:	68db      	ldr	r3, [r3, #12]
    1ce2:	68ba      	ldr	r2, [r7, #8]
    1ce4:	6892      	ldr	r2, [r2, #8]
    1ce6:	609a      	str	r2, [r3, #8]
/home/csx/share/gerrit/optee_os/lib/libutils/isoc/bget.c:919
    1ce8:	68bb      	ldr	r3, [r7, #8]
    1cea:	689b      	ldr	r3, [r3, #8]
    1cec:	68ba      	ldr	r2, [r7, #8]
    1cee:	68d2      	ldr	r2, [r2, #12]
    1cf0:	60da      	str	r2, [r3, #12]
/home/csx/share/gerrit/optee_os/lib/libutils/isoc/bget.c:920
    1cf2:	68fb      	ldr	r3, [r7, #12]
    1cf4:	685a      	ldr	r2, [r3, #4]
    1cf6:	68bb      	ldr	r3, [r7, #8]
    1cf8:	685b      	ldr	r3, [r3, #4]
    1cfa:	441a      	add	r2, r3
    1cfc:	68fb      	ldr	r3, [r7, #12]
    1cfe:	605a      	str	r2, [r3, #4]
/home/csx/share/gerrit/optee_os/lib/libutils/isoc/bget.c:929
    1d00:	68fb      	ldr	r3, [r7, #12]
    1d02:	685b      	ldr	r3, [r3, #4]
    1d04:	461a      	mov	r2, r3
    1d06:	68fb      	ldr	r3, [r7, #12]
    1d08:	4413      	add	r3, r2
    1d0a:	60bb      	str	r3, [r7, #8]
/home/csx/share/gerrit/optee_os/lib/libutils/isoc/bget.c:935
    1d0c:	68bb      	ldr	r3, [r7, #8]
    1d0e:	685b      	ldr	r3, [r3, #4]
    1d10:	2b00      	cmp	r3, #0
    1d12:	db0b      	blt.n	1d2c <brel+0x26c>
/home/csx/share/gerrit/optee_os/lib/libutils/isoc/bget.c:935 (discriminator 1)
    1d14:	4b2b      	ldr	r3, [pc, #172]	; (1dc4 <brel+0x304>)
    1d16:	447b      	add	r3, pc
    1d18:	4618      	mov	r0, r3
    1d1a:	4b2b      	ldr	r3, [pc, #172]	; (1dc8 <brel+0x308>)
    1d1c:	447b      	add	r3, pc
    1d1e:	4619      	mov	r1, r3
    1d20:	f240 32a7 	movw	r2, #935	; 0x3a7
    1d24:	f7ff fa68 	bl	11f8 <_assert_log>
    1d28:	f7ff fa7c 	bl	1224 <_assert_break>
/home/csx/share/gerrit/optee_os/lib/libutils/isoc/bget.c:940
    1d2c:	68fb      	ldr	r3, [r7, #12]
    1d2e:	685a      	ldr	r2, [r3, #4]
    1d30:	68bb      	ldr	r3, [r7, #8]
    1d32:	601a      	str	r2, [r3, #0]
/home/csx/share/gerrit/optee_os/lib/libutils/isoc/bget.c:967
    1d34:	3714      	adds	r7, #20
    1d36:	46bd      	mov	sp, r7
    1d38:	e9dd 4700 	ldrd	r4, r7, [sp]
    1d3c:	b002      	add	sp, #8
    1d3e:	f85d fb04 	ldr.w	pc, [sp], #4
    1d42:	bf00      	nop
    1d44:	0001310e 	.word	0x0001310e
    1d48:	00013106 	.word	0x00013106
    1d4c:	0000701e 	.word	0x0000701e
    1d50:	00006f70 	.word	0x00006f70
    1d54:	00006ffe 	.word	0x00006ffe
    1d58:	00006f44 	.word	0x00006f44
    1d5c:	00006fe6 	.word	0x00006fe6
    1d60:	00006f1c 	.word	0x00006f1c
    1d64:	00013082 	.word	0x00013082
    1d68:	0001307a 	.word	0x0001307a
    1d6c:	00013074 	.word	0x00013074
    1d70:	00006fde 	.word	0x00006fde
    1d74:	00006ee8 	.word	0x00006ee8
    1d78:	00006fb6 	.word	0x00006fb6
    1d7c:	00006eb0 	.word	0x00006eb0
    1d80:	000094b6 	.word	0x000094b6
    1d84:	000094ae 	.word	0x000094ae
    1d88:	00006fb2 	.word	0x00006fb2
    1d8c:	00006e70 	.word	0x00006e70
    1d90:	0000948e 	.word	0x0000948e
    1d94:	00009486 	.word	0x00009486
    1d98:	00006fb6 	.word	0x00006fb6
    1d9c:	00006e48 	.word	0x00006e48
    1da0:	00009464 	.word	0x00009464
    1da4:	0000945e 	.word	0x0000945e
    1da8:	00009454 	.word	0x00009454
    1dac:	00006f74 	.word	0x00006f74
    1db0:	00006dda 	.word	0x00006dda
    1db4:	00006f8c 	.word	0x00006f8c
    1db8:	00006db6 	.word	0x00006db6
    1dbc:	00006f88 	.word	0x00006f88
    1dc0:	00006d92 	.word	0x00006d92
    1dc4:	00006f5a 	.word	0x00006f5a
    1dc8:	00006d44 	.word	0x00006d44

00001dcc <bpool>:
bpool():
/home/csx/share/gerrit/optee_os/lib/libutils/isoc/bget.c:991
    1dcc:	e96d 7e02 	strd	r7, lr, [sp, #-8]!
    1dd0:	b084      	sub	sp, #16
    1dd2:	af00      	add	r7, sp, #0
    1dd4:	6078      	str	r0, [r7, #4]
    1dd6:	6039      	str	r1, [r7, #0]
/home/csx/share/gerrit/optee_os/lib/libutils/isoc/bget.c:992
    1dd8:	687b      	ldr	r3, [r7, #4]
    1dda:	60fb      	str	r3, [r7, #12]
/home/csx/share/gerrit/optee_os/lib/libutils/isoc/bget.c:996
    1ddc:	683b      	ldr	r3, [r7, #0]
    1dde:	f023 0307 	bic.w	r3, r3, #7
    1de2:	603b      	str	r3, [r7, #0]
/home/csx/share/gerrit/optee_os/lib/libutils/isoc/bget.c:1015
    1de4:	683b      	ldr	r3, [r7, #0]
    1de6:	3b08      	subs	r3, #8
    1de8:	2b00      	cmp	r3, #0
    1dea:	da0b      	bge.n	1e04 <bpool+0x38>
/home/csx/share/gerrit/optee_os/lib/libutils/isoc/bget.c:1015 (discriminator 1)
    1dec:	4b2e      	ldr	r3, [pc, #184]	; (1ea8 <bpool+0xdc>)
    1dee:	447b      	add	r3, pc
    1df0:	4618      	mov	r0, r3
    1df2:	4b2e      	ldr	r3, [pc, #184]	; (1eac <bpool+0xe0>)
    1df4:	447b      	add	r3, pc
    1df6:	4619      	mov	r1, r3
    1df8:	f240 32f7 	movw	r2, #1015	; 0x3f7
    1dfc:	f7ff f9fc 	bl	11f8 <_assert_log>
    1e00:	f7ff fa10 	bl	1224 <_assert_break>
/home/csx/share/gerrit/optee_os/lib/libutils/isoc/bget.c:1021
    1e04:	68fb      	ldr	r3, [r7, #12]
    1e06:	2200      	movs	r2, #0
    1e08:	601a      	str	r2, [r3, #0]
/home/csx/share/gerrit/optee_os/lib/libutils/isoc/bget.c:1025
    1e0a:	4b29      	ldr	r3, [pc, #164]	; (1eb0 <bpool+0xe4>)
    1e0c:	447b      	add	r3, pc
    1e0e:	68db      	ldr	r3, [r3, #12]
    1e10:	689b      	ldr	r3, [r3, #8]
    1e12:	4a28      	ldr	r2, [pc, #160]	; (1eb4 <bpool+0xe8>)
    1e14:	447a      	add	r2, pc
    1e16:	4293      	cmp	r3, r2
    1e18:	d00b      	beq.n	1e32 <bpool+0x66>
/home/csx/share/gerrit/optee_os/lib/libutils/isoc/bget.c:1025 (discriminator 1)
    1e1a:	4b27      	ldr	r3, [pc, #156]	; (1eb8 <bpool+0xec>)
    1e1c:	447b      	add	r3, pc
    1e1e:	4618      	mov	r0, r3
    1e20:	4b26      	ldr	r3, [pc, #152]	; (1ebc <bpool+0xf0>)
    1e22:	447b      	add	r3, pc
    1e24:	4619      	mov	r1, r3
    1e26:	f240 4201 	movw	r2, #1025	; 0x401
    1e2a:	f7ff f9e5 	bl	11f8 <_assert_log>
    1e2e:	f7ff f9f9 	bl	1224 <_assert_break>
/home/csx/share/gerrit/optee_os/lib/libutils/isoc/bget.c:1026
    1e32:	4b23      	ldr	r3, [pc, #140]	; (1ec0 <bpool+0xf4>)
    1e34:	447b      	add	r3, pc
    1e36:	689b      	ldr	r3, [r3, #8]
    1e38:	68db      	ldr	r3, [r3, #12]
    1e3a:	4a22      	ldr	r2, [pc, #136]	; (1ec4 <bpool+0xf8>)
    1e3c:	447a      	add	r2, pc
    1e3e:	4293      	cmp	r3, r2
    1e40:	d00b      	beq.n	1e5a <bpool+0x8e>
/home/csx/share/gerrit/optee_os/lib/libutils/isoc/bget.c:1026 (discriminator 1)
    1e42:	4b21      	ldr	r3, [pc, #132]	; (1ec8 <bpool+0xfc>)
    1e44:	447b      	add	r3, pc
    1e46:	4618      	mov	r0, r3
    1e48:	4b20      	ldr	r3, [pc, #128]	; (1ecc <bpool+0x100>)
    1e4a:	447b      	add	r3, pc
    1e4c:	4619      	mov	r1, r3
    1e4e:	f240 4202 	movw	r2, #1026	; 0x402
    1e52:	f7ff f9d1 	bl	11f8 <_assert_log>
    1e56:	f7ff f9e5 	bl	1224 <_assert_break>
/home/csx/share/gerrit/optee_os/lib/libutils/isoc/bget.c:1027
    1e5a:	68fb      	ldr	r3, [r7, #12]
    1e5c:	4a1c      	ldr	r2, [pc, #112]	; (1ed0 <bpool+0x104>)
    1e5e:	447a      	add	r2, pc
    1e60:	609a      	str	r2, [r3, #8]
/home/csx/share/gerrit/optee_os/lib/libutils/isoc/bget.c:1028
    1e62:	4b1c      	ldr	r3, [pc, #112]	; (1ed4 <bpool+0x108>)
    1e64:	447b      	add	r3, pc
    1e66:	68da      	ldr	r2, [r3, #12]
    1e68:	68fb      	ldr	r3, [r7, #12]
    1e6a:	60da      	str	r2, [r3, #12]
/home/csx/share/gerrit/optee_os/lib/libutils/isoc/bget.c:1029
    1e6c:	4b1a      	ldr	r3, [pc, #104]	; (1ed8 <bpool+0x10c>)
    1e6e:	447b      	add	r3, pc
    1e70:	461a      	mov	r2, r3
    1e72:	68fb      	ldr	r3, [r7, #12]
    1e74:	60d3      	str	r3, [r2, #12]
/home/csx/share/gerrit/optee_os/lib/libutils/isoc/bget.c:1030
    1e76:	68fb      	ldr	r3, [r7, #12]
    1e78:	68db      	ldr	r3, [r3, #12]
    1e7a:	68fa      	ldr	r2, [r7, #12]
    1e7c:	609a      	str	r2, [r3, #8]
/home/csx/share/gerrit/optee_os/lib/libutils/isoc/bget.c:1040
    1e7e:	683b      	ldr	r3, [r7, #0]
    1e80:	3b08      	subs	r3, #8
    1e82:	603b      	str	r3, [r7, #0]
/home/csx/share/gerrit/optee_os/lib/libutils/isoc/bget.c:1041
    1e84:	68fb      	ldr	r3, [r7, #12]
    1e86:	683a      	ldr	r2, [r7, #0]
    1e88:	605a      	str	r2, [r3, #4]
/home/csx/share/gerrit/optee_os/lib/libutils/isoc/bget.c:1046
    1e8a:	683b      	ldr	r3, [r7, #0]
    1e8c:	68fa      	ldr	r2, [r7, #12]
    1e8e:	4413      	add	r3, r2
    1e90:	60bb      	str	r3, [r7, #8]
/home/csx/share/gerrit/optee_os/lib/libutils/isoc/bget.c:1047
    1e92:	68bb      	ldr	r3, [r7, #8]
    1e94:	683a      	ldr	r2, [r7, #0]
    1e96:	601a      	str	r2, [r3, #0]
/home/csx/share/gerrit/optee_os/lib/libutils/isoc/bget.c:1050
    1e98:	68bb      	ldr	r3, [r7, #8]
    1e9a:	f04f 4200 	mov.w	r2, #2147483648	; 0x80000000
    1e9e:	605a      	str	r2, [r3, #4]
/home/csx/share/gerrit/optee_os/lib/libutils/isoc/bget.c:1051
    1ea0:	3710      	adds	r7, #16
    1ea2:	46bd      	mov	sp, r7
    1ea4:	bd80      	pop	{r7, pc}
    1ea6:	bf00      	nop
    1ea8:	00006e96 	.word	0x00006e96
    1eac:	00006c6c 	.word	0x00006c6c
    1eb0:	00009284 	.word	0x00009284
    1eb4:	0000927c 	.word	0x0000927c
    1eb8:	00006d80 	.word	0x00006d80
    1ebc:	00006c3e 	.word	0x00006c3e
    1ec0:	0000925c 	.word	0x0000925c
    1ec4:	00009254 	.word	0x00009254
    1ec8:	00006d84 	.word	0x00006d84
    1ecc:	00006c16 	.word	0x00006c16
    1ed0:	00009232 	.word	0x00009232
    1ed4:	0000922c 	.word	0x0000922c
    1ed8:	00009222 	.word	0x00009222

00001edc <bstats>:
bstats():
/home/csx/share/gerrit/optee_os/lib/libutils/isoc/bget.c:1060
    1edc:	e96d 7e02 	strd	r7, lr, [sp, #-8]!
    1ee0:	b086      	sub	sp, #24
    1ee2:	af00      	add	r7, sp, #0
    1ee4:	60f8      	str	r0, [r7, #12]
    1ee6:	60b9      	str	r1, [r7, #8]
    1ee8:	607a      	str	r2, [r7, #4]
    1eea:	603b      	str	r3, [r7, #0]
/home/csx/share/gerrit/optee_os/lib/libutils/isoc/bget.c:1061
    1eec:	4b23      	ldr	r3, [pc, #140]	; (1f7c <bstats+0xa0>)
    1eee:	447b      	add	r3, pc
    1ef0:	689b      	ldr	r3, [r3, #8]
    1ef2:	617b      	str	r3, [r7, #20]
/home/csx/share/gerrit/optee_os/lib/libutils/isoc/bget.c:1063
    1ef4:	4b22      	ldr	r3, [pc, #136]	; (1f80 <bstats+0xa4>)
    1ef6:	447b      	add	r3, pc
    1ef8:	681a      	ldr	r2, [r3, #0]
    1efa:	683b      	ldr	r3, [r7, #0]
    1efc:	601a      	str	r2, [r3, #0]
/home/csx/share/gerrit/optee_os/lib/libutils/isoc/bget.c:1064
    1efe:	4b21      	ldr	r3, [pc, #132]	; (1f84 <bstats+0xa8>)
    1f00:	447b      	add	r3, pc
    1f02:	681a      	ldr	r2, [r3, #0]
    1f04:	6a3b      	ldr	r3, [r7, #32]
    1f06:	601a      	str	r2, [r3, #0]
/home/csx/share/gerrit/optee_os/lib/libutils/isoc/bget.c:1065
    1f08:	4b1f      	ldr	r3, [pc, #124]	; (1f88 <bstats+0xac>)
    1f0a:	447b      	add	r3, pc
    1f0c:	681a      	ldr	r2, [r3, #0]
    1f0e:	68fb      	ldr	r3, [r7, #12]
    1f10:	601a      	str	r2, [r3, #0]
/home/csx/share/gerrit/optee_os/lib/libutils/isoc/bget.c:1066
    1f12:	68bb      	ldr	r3, [r7, #8]
    1f14:	2200      	movs	r2, #0
    1f16:	601a      	str	r2, [r3, #0]
/home/csx/share/gerrit/optee_os/lib/libutils/isoc/bget.c:1067
    1f18:	687b      	ldr	r3, [r7, #4]
    1f1a:	f04f 32ff 	mov.w	r2, #4294967295	; 0xffffffff
    1f1e:	601a      	str	r2, [r3, #0]
/home/csx/share/gerrit/optee_os/lib/libutils/isoc/bget.c:1068
    1f20:	e023      	b.n	1f6a <bstats+0x8e>
/home/csx/share/gerrit/optee_os/lib/libutils/isoc/bget.c:1069
    1f22:	697b      	ldr	r3, [r7, #20]
    1f24:	685b      	ldr	r3, [r3, #4]
    1f26:	2b00      	cmp	r3, #0
    1f28:	dc0b      	bgt.n	1f42 <bstats+0x66>
/home/csx/share/gerrit/optee_os/lib/libutils/isoc/bget.c:1069 (discriminator 1)
    1f2a:	4b18      	ldr	r3, [pc, #96]	; (1f8c <bstats+0xb0>)
    1f2c:	447b      	add	r3, pc
    1f2e:	4618      	mov	r0, r3
    1f30:	4b17      	ldr	r3, [pc, #92]	; (1f90 <bstats+0xb4>)
    1f32:	447b      	add	r3, pc
    1f34:	4619      	mov	r1, r3
    1f36:	f240 422d 	movw	r2, #1069	; 0x42d
    1f3a:	f7ff f95d 	bl	11f8 <_assert_log>
    1f3e:	f7ff f971 	bl	1224 <_assert_break>
/home/csx/share/gerrit/optee_os/lib/libutils/isoc/bget.c:1070
    1f42:	68bb      	ldr	r3, [r7, #8]
    1f44:	681a      	ldr	r2, [r3, #0]
    1f46:	697b      	ldr	r3, [r7, #20]
    1f48:	685b      	ldr	r3, [r3, #4]
    1f4a:	441a      	add	r2, r3
    1f4c:	68bb      	ldr	r3, [r7, #8]
    1f4e:	601a      	str	r2, [r3, #0]
/home/csx/share/gerrit/optee_os/lib/libutils/isoc/bget.c:1071
    1f50:	697b      	ldr	r3, [r7, #20]
    1f52:	685a      	ldr	r2, [r3, #4]
    1f54:	687b      	ldr	r3, [r7, #4]
    1f56:	681b      	ldr	r3, [r3, #0]
    1f58:	429a      	cmp	r2, r3
    1f5a:	dd03      	ble.n	1f64 <bstats+0x88>
/home/csx/share/gerrit/optee_os/lib/libutils/isoc/bget.c:1072
    1f5c:	697b      	ldr	r3, [r7, #20]
    1f5e:	685a      	ldr	r2, [r3, #4]
    1f60:	687b      	ldr	r3, [r7, #4]
    1f62:	601a      	str	r2, [r3, #0]
/home/csx/share/gerrit/optee_os/lib/libutils/isoc/bget.c:1074
    1f64:	697b      	ldr	r3, [r7, #20]
    1f66:	689b      	ldr	r3, [r3, #8]
    1f68:	617b      	str	r3, [r7, #20]
/home/csx/share/gerrit/optee_os/lib/libutils/isoc/bget.c:1068
    1f6a:	697b      	ldr	r3, [r7, #20]
    1f6c:	4a09      	ldr	r2, [pc, #36]	; (1f94 <bstats+0xb8>)
    1f6e:	447a      	add	r2, pc
    1f70:	4293      	cmp	r3, r2
    1f72:	d1d6      	bne.n	1f22 <bstats+0x46>
/home/csx/share/gerrit/optee_os/lib/libutils/isoc/bget.c:1076
    1f74:	3718      	adds	r7, #24
    1f76:	46bd      	mov	sp, r7
    1f78:	bd80      	pop	{r7, pc}
    1f7a:	bf00      	nop
    1f7c:	000091a2 	.word	0x000091a2
    1f80:	00012cea 	.word	0x00012cea
    1f84:	00012ce4 	.word	0x00012ce4
    1f88:	00012cd2 	.word	0x00012cd2
    1f8c:	00006d90 	.word	0x00006d90
    1f90:	00006b2e 	.word	0x00006b2e
    1f94:	00009122 	.word	0x00009122

00001f98 <malloc_lock>:
malloc_lock():
/home/csx/share/gerrit/optee_os/lib/libutils/isoc/bget_malloc.c:128
    1f98:	f84d 7d04 	str.w	r7, [sp, #-4]!
    1f9c:	af00      	add	r7, sp, #0
/home/csx/share/gerrit/optee_os/lib/libutils/isoc/bget_malloc.c:129
    1f9e:	46bd      	mov	sp, r7
    1fa0:	f85d 7b04 	ldr.w	r7, [sp], #4
    1fa4:	4770      	bx	lr
    1fa6:	bf00      	nop

00001fa8 <malloc_unlock>:
malloc_unlock():
/home/csx/share/gerrit/optee_os/lib/libutils/isoc/bget_malloc.c:132
    1fa8:	f84d 7d04 	str.w	r7, [sp, #-4]!
    1fac:	af00      	add	r7, sp, #0
/home/csx/share/gerrit/optee_os/lib/libutils/isoc/bget_malloc.c:133
    1fae:	46bd      	mov	sp, r7
    1fb0:	f85d 7b04 	ldr.w	r7, [sp], #4
    1fb4:	4770      	bx	lr
    1fb6:	bf00      	nop

00001fb8 <raw_malloc_save_max_alloced_size>:
raw_malloc_save_max_alloced_size():
/home/csx/share/gerrit/optee_os/lib/libutils/isoc/bget_malloc.c:152
    1fb8:	f84d 7d04 	str.w	r7, [sp, #-4]!
    1fbc:	af00      	add	r7, sp, #0
/home/csx/share/gerrit/optee_os/lib/libutils/isoc/bget_malloc.c:153
    1fbe:	4b0a      	ldr	r3, [pc, #40]	; (1fe8 <raw_malloc_save_max_alloced_size+0x30>)
    1fc0:	447b      	add	r3, pc
    1fc2:	681b      	ldr	r3, [r3, #0]
    1fc4:	461a      	mov	r2, r3
    1fc6:	4b09      	ldr	r3, [pc, #36]	; (1fec <raw_malloc_save_max_alloced_size+0x34>)
    1fc8:	447b      	add	r3, pc
    1fca:	681b      	ldr	r3, [r3, #0]
    1fcc:	429a      	cmp	r2, r3
    1fce:	d906      	bls.n	1fde <raw_malloc_save_max_alloced_size+0x26>
/home/csx/share/gerrit/optee_os/lib/libutils/isoc/bget_malloc.c:154
    1fd0:	4b07      	ldr	r3, [pc, #28]	; (1ff0 <raw_malloc_save_max_alloced_size+0x38>)
    1fd2:	447b      	add	r3, pc
    1fd4:	681b      	ldr	r3, [r3, #0]
    1fd6:	461a      	mov	r2, r3
    1fd8:	4b06      	ldr	r3, [pc, #24]	; (1ff4 <raw_malloc_save_max_alloced_size+0x3c>)
    1fda:	447b      	add	r3, pc
    1fdc:	601a      	str	r2, [r3, #0]
/home/csx/share/gerrit/optee_os/lib/libutils/isoc/bget_malloc.c:155
    1fde:	46bd      	mov	sp, r7
    1fe0:	f85d 7b04 	ldr.w	r7, [sp], #4
    1fe4:	4770      	bx	lr
    1fe6:	bf00      	nop
    1fe8:	00012c1c 	.word	0x00012c1c
    1fec:	00012c28 	.word	0x00012c28
    1ff0:	00012c0a 	.word	0x00012c0a
    1ff4:	00012c16 	.word	0x00012c16

00001ff8 <malloc_reset_max_allocated>:
malloc_reset_max_allocated():
/home/csx/share/gerrit/optee_os/lib/libutils/isoc/bget_malloc.c:158
    1ff8:	e96d 7e02 	strd	r7, lr, [sp, #-8]!
    1ffc:	af00      	add	r7, sp, #0
/home/csx/share/gerrit/optee_os/lib/libutils/isoc/bget_malloc.c:159
    1ffe:	f7ff ffcb 	bl	1f98 <malloc_lock>
/home/csx/share/gerrit/optee_os/lib/libutils/isoc/bget_malloc.c:160
    2002:	4b04      	ldr	r3, [pc, #16]	; (2014 <malloc_reset_max_allocated+0x1c>)
    2004:	447b      	add	r3, pc
    2006:	461a      	mov	r2, r3
    2008:	2300      	movs	r3, #0
    200a:	6013      	str	r3, [r2, #0]
/home/csx/share/gerrit/optee_os/lib/libutils/isoc/bget_malloc.c:161
    200c:	f7ff ffcc 	bl	1fa8 <malloc_unlock>
/home/csx/share/gerrit/optee_os/lib/libutils/isoc/bget_malloc.c:162
    2010:	46bd      	mov	sp, r7
    2012:	bd80      	pop	{r7, pc}
    2014:	00012bec 	.word	0x00012bec

00002018 <malloc_get_max_allocated>:
malloc_get_max_allocated():
/home/csx/share/gerrit/optee_os/lib/libutils/isoc/bget_malloc.c:165
    2018:	e96d 7e02 	strd	r7, lr, [sp, #-8]!
    201c:	b082      	sub	sp, #8
    201e:	af00      	add	r7, sp, #0
/home/csx/share/gerrit/optee_os/lib/libutils/isoc/bget_malloc.c:168
    2020:	f7ff ffba 	bl	1f98 <malloc_lock>
/home/csx/share/gerrit/optee_os/lib/libutils/isoc/bget_malloc.c:169
    2024:	4b05      	ldr	r3, [pc, #20]	; (203c <malloc_get_max_allocated+0x24>)
    2026:	447b      	add	r3, pc
    2028:	681b      	ldr	r3, [r3, #0]
    202a:	607b      	str	r3, [r7, #4]
/home/csx/share/gerrit/optee_os/lib/libutils/isoc/bget_malloc.c:170
    202c:	f7ff ffbc 	bl	1fa8 <malloc_unlock>
/home/csx/share/gerrit/optee_os/lib/libutils/isoc/bget_malloc.c:171
    2030:	687b      	ldr	r3, [r7, #4]
/home/csx/share/gerrit/optee_os/lib/libutils/isoc/bget_malloc.c:172
    2032:	4618      	mov	r0, r3
    2034:	3708      	adds	r7, #8
    2036:	46bd      	mov	sp, r7
    2038:	bd80      	pop	{r7, pc}
    203a:	bf00      	nop
    203c:	00012bca 	.word	0x00012bca

00002040 <malloc_get_allocated>:
malloc_get_allocated():
/home/csx/share/gerrit/optee_os/lib/libutils/isoc/bget_malloc.c:175
    2040:	e96d 7e02 	strd	r7, lr, [sp, #-8]!
    2044:	b082      	sub	sp, #8
    2046:	af00      	add	r7, sp, #0
/home/csx/share/gerrit/optee_os/lib/libutils/isoc/bget_malloc.c:178
    2048:	f7ff ffa6 	bl	1f98 <malloc_lock>
/home/csx/share/gerrit/optee_os/lib/libutils/isoc/bget_malloc.c:179
    204c:	4b05      	ldr	r3, [pc, #20]	; (2064 <malloc_get_allocated+0x24>)
    204e:	447b      	add	r3, pc
    2050:	681b      	ldr	r3, [r3, #0]
    2052:	607b      	str	r3, [r7, #4]
/home/csx/share/gerrit/optee_os/lib/libutils/isoc/bget_malloc.c:180
    2054:	f7ff ffa8 	bl	1fa8 <malloc_unlock>
/home/csx/share/gerrit/optee_os/lib/libutils/isoc/bget_malloc.c:181
    2058:	687b      	ldr	r3, [r7, #4]
/home/csx/share/gerrit/optee_os/lib/libutils/isoc/bget_malloc.c:182
    205a:	4618      	mov	r0, r3
    205c:	3708      	adds	r7, #8
    205e:	46bd      	mov	sp, r7
    2060:	bd80      	pop	{r7, pc}
    2062:	bf00      	nop
    2064:	00012b8e 	.word	0x00012b8e

00002068 <malloc_get_heap_size>:
malloc_get_heap_size():
/home/csx/share/gerrit/optee_os/lib/libutils/isoc/bget_malloc.c:206
    2068:	e96d 7e02 	strd	r7, lr, [sp, #-8]!
    206c:	b082      	sub	sp, #8
    206e:	af00      	add	r7, sp, #0
/home/csx/share/gerrit/optee_os/lib/libutils/isoc/bget_malloc.c:208
    2070:	2300      	movs	r3, #0
    2072:	603b      	str	r3, [r7, #0]
/home/csx/share/gerrit/optee_os/lib/libutils/isoc/bget_malloc.c:210
    2074:	f7ff ff90 	bl	1f98 <malloc_lock>
/home/csx/share/gerrit/optee_os/lib/libutils/isoc/bget_malloc.c:212
    2078:	2300      	movs	r3, #0
    207a:	607b      	str	r3, [r7, #4]
    207c:	e00c      	b.n	2098 <malloc_get_heap_size+0x30>
/home/csx/share/gerrit/optee_os/lib/libutils/isoc/bget_malloc.c:213 (discriminator 3)
    207e:	4b0d      	ldr	r3, [pc, #52]	; (20b4 <malloc_get_heap_size+0x4c>)
    2080:	447b      	add	r3, pc
    2082:	681a      	ldr	r2, [r3, #0]
    2084:	687b      	ldr	r3, [r7, #4]
    2086:	00db      	lsls	r3, r3, #3
    2088:	4413      	add	r3, r2
    208a:	685b      	ldr	r3, [r3, #4]
    208c:	683a      	ldr	r2, [r7, #0]
    208e:	4413      	add	r3, r2
    2090:	603b      	str	r3, [r7, #0]
/home/csx/share/gerrit/optee_os/lib/libutils/isoc/bget_malloc.c:212 (discriminator 3)
    2092:	687b      	ldr	r3, [r7, #4]
    2094:	3301      	adds	r3, #1
    2096:	607b      	str	r3, [r7, #4]
/home/csx/share/gerrit/optee_os/lib/libutils/isoc/bget_malloc.c:212 (discriminator 1)
    2098:	4b07      	ldr	r3, [pc, #28]	; (20b8 <malloc_get_heap_size+0x50>)
    209a:	447b      	add	r3, pc
    209c:	681b      	ldr	r3, [r3, #0]
    209e:	687a      	ldr	r2, [r7, #4]
    20a0:	429a      	cmp	r2, r3
    20a2:	d3ec      	bcc.n	207e <malloc_get_heap_size+0x16>
/home/csx/share/gerrit/optee_os/lib/libutils/isoc/bget_malloc.c:215
    20a4:	f7ff ff80 	bl	1fa8 <malloc_unlock>
/home/csx/share/gerrit/optee_os/lib/libutils/isoc/bget_malloc.c:217
    20a8:	683b      	ldr	r3, [r7, #0]
/home/csx/share/gerrit/optee_os/lib/libutils/isoc/bget_malloc.c:218
    20aa:	4618      	mov	r0, r3
    20ac:	3708      	adds	r7, #8
    20ae:	46bd      	mov	sp, r7
    20b0:	bd80      	pop	{r7, pc}
    20b2:	bf00      	nop
    20b4:	00012b68 	.word	0x00012b68
    20b8:	00012b52 	.word	0x00012b52

000020bc <raw_malloc_validate_pools>:
raw_malloc_validate_pools():
/home/csx/share/gerrit/optee_os/lib/libutils/isoc/bget_malloc.c:230
    20bc:	f84d 7d04 	str.w	r7, [sp, #-4]!
    20c0:	af00      	add	r7, sp, #0
/home/csx/share/gerrit/optee_os/lib/libutils/isoc/bget_malloc.c:231
    20c2:	46bd      	mov	sp, r7
    20c4:	f85d 7b04 	ldr.w	r7, [sp], #4
    20c8:	4770      	bx	lr
    20ca:	bf00      	nop

000020cc <bpool_foreach_iterator_init>:
bpool_foreach_iterator_init():
/home/csx/share/gerrit/optee_os/lib/libutils/isoc/bget_malloc.c:240
    20cc:	f84d 7d04 	str.w	r7, [sp, #-4]!
    20d0:	b083      	sub	sp, #12
    20d2:	af00      	add	r7, sp, #0
    20d4:	6078      	str	r0, [r7, #4]
/home/csx/share/gerrit/optee_os/lib/libutils/isoc/bget_malloc.c:241
    20d6:	687b      	ldr	r3, [r7, #4]
    20d8:	2200      	movs	r2, #0
    20da:	605a      	str	r2, [r3, #4]
/home/csx/share/gerrit/optee_os/lib/libutils/isoc/bget_malloc.c:242
    20dc:	4b05      	ldr	r3, [pc, #20]	; (20f4 <bpool_foreach_iterator_init+0x28>)
    20de:	447b      	add	r3, pc
    20e0:	681b      	ldr	r3, [r3, #0]
    20e2:	681a      	ldr	r2, [r3, #0]
    20e4:	687b      	ldr	r3, [r7, #4]
    20e6:	601a      	str	r2, [r3, #0]
/home/csx/share/gerrit/optee_os/lib/libutils/isoc/bget_malloc.c:243
    20e8:	370c      	adds	r7, #12
    20ea:	46bd      	mov	sp, r7
    20ec:	f85d 7b04 	ldr.w	r7, [sp], #4
    20f0:	4770      	bx	lr
    20f2:	bf00      	nop
    20f4:	00012b0a 	.word	0x00012b0a

000020f8 <bpool_foreach_pool>:
bpool_foreach_pool():
/home/csx/share/gerrit/optee_os/lib/libutils/isoc/bget_malloc.c:247
    20f8:	e96d 7e02 	strd	r7, lr, [sp, #-8]!
    20fc:	b086      	sub	sp, #24
    20fe:	af00      	add	r7, sp, #0
    2100:	60f8      	str	r0, [r7, #12]
    2102:	60b9      	str	r1, [r7, #8]
    2104:	607a      	str	r2, [r7, #4]
    2106:	603b      	str	r3, [r7, #0]
/home/csx/share/gerrit/optee_os/lib/libutils/isoc/bget_malloc.c:248
    2108:	68fb      	ldr	r3, [r7, #12]
    210a:	681b      	ldr	r3, [r3, #0]
    210c:	613b      	str	r3, [r7, #16]
/home/csx/share/gerrit/optee_os/lib/libutils/isoc/bget_malloc.c:249
    210e:	693b      	ldr	r3, [r7, #16]
    2110:	685b      	ldr	r3, [r3, #4]
    2112:	617b      	str	r3, [r7, #20]
/home/csx/share/gerrit/optee_os/lib/libutils/isoc/bget_malloc.c:251
    2114:	697b      	ldr	r3, [r7, #20]
    2116:	f1b3 4f00 	cmp.w	r3, #2147483648	; 0x80000000
    211a:	d101      	bne.n	2120 <bpool_foreach_pool+0x28>
/home/csx/share/gerrit/optee_os/lib/libutils/isoc/bget_malloc.c:252
    211c:	2300      	movs	r3, #0
    211e:	e040      	b.n	21a2 <bpool_foreach_pool+0xaa>
/home/csx/share/gerrit/optee_os/lib/libutils/isoc/bget_malloc.c:254
    2120:	697b      	ldr	r3, [r7, #20]
    2122:	2b00      	cmp	r3, #0
    2124:	da06      	bge.n	2134 <bpool_foreach_pool+0x3c>
/home/csx/share/gerrit/optee_os/lib/libutils/isoc/bget_malloc.c:256
    2126:	697b      	ldr	r3, [r7, #20]
    2128:	425b      	negs	r3, r3
    212a:	617b      	str	r3, [r7, #20]
/home/csx/share/gerrit/optee_os/lib/libutils/isoc/bget_malloc.c:258
    212c:	683b      	ldr	r3, [r7, #0]
    212e:	2200      	movs	r2, #0
    2130:	701a      	strb	r2, [r3, #0]
    2132:	e026      	b.n	2182 <bpool_foreach_pool+0x8a>
/home/csx/share/gerrit/optee_os/lib/libutils/isoc/bget_malloc.c:261
    2134:	683b      	ldr	r3, [r7, #0]
    2136:	2201      	movs	r2, #1
    2138:	701a      	strb	r2, [r3, #0]
/home/csx/share/gerrit/optee_os/lib/libutils/isoc/bget_malloc.c:264
    213a:	693b      	ldr	r3, [r7, #16]
    213c:	68db      	ldr	r3, [r3, #12]
    213e:	689a      	ldr	r2, [r3, #8]
    2140:	693b      	ldr	r3, [r7, #16]
    2142:	429a      	cmp	r2, r3
    2144:	d00b      	beq.n	215e <bpool_foreach_pool+0x66>
/home/csx/share/gerrit/optee_os/lib/libutils/isoc/bget_malloc.c:264 (discriminator 1)
    2146:	4b19      	ldr	r3, [pc, #100]	; (21ac <bpool_foreach_pool+0xb4>)
    2148:	447b      	add	r3, pc
    214a:	4618      	mov	r0, r3
    214c:	4b18      	ldr	r3, [pc, #96]	; (21b0 <bpool_foreach_pool+0xb8>)
    214e:	447b      	add	r3, pc
    2150:	4619      	mov	r1, r3
    2152:	f44f 7284 	mov.w	r2, #264	; 0x108
    2156:	f7ff f84f 	bl	11f8 <_assert_log>
    215a:	f7ff f863 	bl	1224 <_assert_break>
/home/csx/share/gerrit/optee_os/lib/libutils/isoc/bget_malloc.c:265
    215e:	693b      	ldr	r3, [r7, #16]
    2160:	689b      	ldr	r3, [r3, #8]
    2162:	68da      	ldr	r2, [r3, #12]
    2164:	693b      	ldr	r3, [r7, #16]
    2166:	429a      	cmp	r2, r3
    2168:	d00b      	beq.n	2182 <bpool_foreach_pool+0x8a>
/home/csx/share/gerrit/optee_os/lib/libutils/isoc/bget_malloc.c:265 (discriminator 1)
    216a:	4b12      	ldr	r3, [pc, #72]	; (21b4 <bpool_foreach_pool+0xbc>)
    216c:	447b      	add	r3, pc
    216e:	4618      	mov	r0, r3
    2170:	4b11      	ldr	r3, [pc, #68]	; (21b8 <bpool_foreach_pool+0xc0>)
    2172:	447b      	add	r3, pc
    2174:	4619      	mov	r1, r3
    2176:	f240 1209 	movw	r2, #265	; 0x109
    217a:	f7ff f83d 	bl	11f8 <_assert_log>
    217e:	f7ff f851 	bl	1224 <_assert_break>
/home/csx/share/gerrit/optee_os/lib/libutils/isoc/bget_malloc.c:268
    2182:	693b      	ldr	r3, [r7, #16]
    2184:	f103 0208 	add.w	r2, r3, #8
    2188:	68bb      	ldr	r3, [r7, #8]
    218a:	601a      	str	r2, [r3, #0]
/home/csx/share/gerrit/optee_os/lib/libutils/isoc/bget_malloc.c:269
    218c:	697b      	ldr	r3, [r7, #20]
    218e:	f1a3 0208 	sub.w	r2, r3, #8
    2192:	687b      	ldr	r3, [r7, #4]
    2194:	601a      	str	r2, [r3, #0]
/home/csx/share/gerrit/optee_os/lib/libutils/isoc/bget_malloc.c:271
    2196:	697b      	ldr	r3, [r7, #20]
    2198:	693a      	ldr	r2, [r7, #16]
    219a:	441a      	add	r2, r3
    219c:	68fb      	ldr	r3, [r7, #12]
    219e:	601a      	str	r2, [r3, #0]
/home/csx/share/gerrit/optee_os/lib/libutils/isoc/bget_malloc.c:272
    21a0:	2301      	movs	r3, #1
/home/csx/share/gerrit/optee_os/lib/libutils/isoc/bget_malloc.c:273
    21a2:	4618      	mov	r0, r3
    21a4:	3718      	adds	r7, #24
    21a6:	46bd      	mov	sp, r7
    21a8:	bd80      	pop	{r7, pc}
    21aa:	bf00      	nop
    21ac:	0000696c 	.word	0x0000696c
    21b0:	00006b7e 	.word	0x00006b7e
    21b4:	00006964 	.word	0x00006964
    21b8:	00006b5a 	.word	0x00006b5a

000021bc <bpool_foreach>:
bpool_foreach():
/home/csx/share/gerrit/optee_os/lib/libutils/isoc/bget_malloc.c:276
    21bc:	e96d 7e02 	strd	r7, lr, [sp, #-8]!
    21c0:	b084      	sub	sp, #16
    21c2:	af00      	add	r7, sp, #0
    21c4:	6078      	str	r0, [r7, #4]
    21c6:	6039      	str	r1, [r7, #0]
/home/csx/share/gerrit/optee_os/lib/libutils/isoc/bget_malloc.c:281
    21c8:	f107 020c 	add.w	r2, r7, #12
    21cc:	f107 030b 	add.w	r3, r7, #11
    21d0:	6878      	ldr	r0, [r7, #4]
    21d2:	6839      	ldr	r1, [r7, #0]
    21d4:	f7ff ff90 	bl	20f8 <bpool_foreach_pool>
    21d8:	4603      	mov	r3, r0
    21da:	2b00      	cmp	r3, #0
    21dc:	d004      	beq.n	21e8 <bpool_foreach+0x2c>
/home/csx/share/gerrit/optee_os/lib/libutils/isoc/bget_malloc.c:282
    21de:	7afb      	ldrb	r3, [r7, #11]
    21e0:	2b00      	cmp	r3, #0
    21e2:	d11a      	bne.n	221a <bpool_foreach+0x5e>
/home/csx/share/gerrit/optee_os/lib/libutils/isoc/bget_malloc.c:284
    21e4:	2301      	movs	r3, #1
    21e6:	e019      	b.n	221c <bpool_foreach+0x60>
/home/csx/share/gerrit/optee_os/lib/libutils/isoc/bget_malloc.c:287
    21e8:	687b      	ldr	r3, [r7, #4]
    21ea:	685b      	ldr	r3, [r3, #4]
    21ec:	1c5a      	adds	r2, r3, #1
    21ee:	4b0d      	ldr	r3, [pc, #52]	; (2224 <bpool_foreach+0x68>)
    21f0:	447b      	add	r3, pc
    21f2:	681b      	ldr	r3, [r3, #0]
    21f4:	429a      	cmp	r2, r3
    21f6:	d301      	bcc.n	21fc <bpool_foreach+0x40>
/home/csx/share/gerrit/optee_os/lib/libutils/isoc/bget_malloc.c:288
    21f8:	2300      	movs	r3, #0
    21fa:	e00f      	b.n	221c <bpool_foreach+0x60>
/home/csx/share/gerrit/optee_os/lib/libutils/isoc/bget_malloc.c:290
    21fc:	687b      	ldr	r3, [r7, #4]
    21fe:	685b      	ldr	r3, [r3, #4]
    2200:	1c5a      	adds	r2, r3, #1
    2202:	687b      	ldr	r3, [r7, #4]
    2204:	605a      	str	r2, [r3, #4]
/home/csx/share/gerrit/optee_os/lib/libutils/isoc/bget_malloc.c:291
    2206:	4b08      	ldr	r3, [pc, #32]	; (2228 <bpool_foreach+0x6c>)
    2208:	447b      	add	r3, pc
    220a:	681a      	ldr	r2, [r3, #0]
    220c:	687b      	ldr	r3, [r7, #4]
    220e:	685b      	ldr	r3, [r3, #4]
    2210:	00db      	lsls	r3, r3, #3
    2212:	4413      	add	r3, r2
    2214:	681a      	ldr	r2, [r3, #0]
    2216:	687b      	ldr	r3, [r7, #4]
    2218:	601a      	str	r2, [r3, #0]
/home/csx/share/gerrit/optee_os/lib/libutils/isoc/bget_malloc.c:292 (discriminator 1)
    221a:	e7d5      	b.n	21c8 <bpool_foreach+0xc>
/home/csx/share/gerrit/optee_os/lib/libutils/isoc/bget_malloc.c:293
    221c:	4618      	mov	r0, r3
    221e:	3710      	adds	r7, #16
    2220:	46bd      	mov	sp, r7
    2222:	bd80      	pop	{r7, pc}
    2224:	000129fc 	.word	0x000129fc
    2228:	000129e0 	.word	0x000129e0

0000222c <raw_malloc>:
raw_malloc():
/home/csx/share/gerrit/optee_os/lib/libutils/isoc/bget_malloc.c:301
    222c:	e96d 7e02 	strd	r7, lr, [sp, #-8]!
    2230:	b086      	sub	sp, #24
    2232:	af00      	add	r7, sp, #0
    2234:	60f8      	str	r0, [r7, #12]
    2236:	60b9      	str	r1, [r7, #8]
    2238:	607a      	str	r2, [r7, #4]
/home/csx/share/gerrit/optee_os/lib/libutils/isoc/bget_malloc.c:303
    223a:	68fa      	ldr	r2, [r7, #12]
    223c:	68bb      	ldr	r3, [r7, #8]
    223e:	441a      	add	r2, r3
    2240:	687b      	ldr	r3, [r7, #4]
    2242:	4413      	add	r3, r2
    2244:	617b      	str	r3, [r7, #20]
/home/csx/share/gerrit/optee_os/lib/libutils/isoc/bget_malloc.c:310
    2246:	bf00      	nop
/home/csx/share/gerrit/optee_os/lib/libutils/isoc/bget_malloc.c:312
    2248:	f7ff ff38 	bl	20bc <raw_malloc_validate_pools>
/home/csx/share/gerrit/optee_os/lib/libutils/isoc/bget_malloc.c:315
    224c:	697a      	ldr	r2, [r7, #20]
    224e:	687b      	ldr	r3, [r7, #4]
    2250:	429a      	cmp	r2, r3
    2252:	d201      	bcs.n	2258 <raw_malloc+0x2c>
/home/csx/share/gerrit/optee_os/lib/libutils/isoc/bget_malloc.c:316
    2254:	2300      	movs	r3, #0
    2256:	e00d      	b.n	2274 <raw_malloc+0x48>
/home/csx/share/gerrit/optee_os/lib/libutils/isoc/bget_malloc.c:319
    2258:	697b      	ldr	r3, [r7, #20]
    225a:	2b00      	cmp	r3, #0
    225c:	d102      	bne.n	2264 <raw_malloc+0x38>
/home/csx/share/gerrit/optee_os/lib/libutils/isoc/bget_malloc.c:320
    225e:	697b      	ldr	r3, [r7, #20]
    2260:	3301      	adds	r3, #1
    2262:	617b      	str	r3, [r7, #20]
/home/csx/share/gerrit/optee_os/lib/libutils/isoc/bget_malloc.c:322
    2264:	697b      	ldr	r3, [r7, #20]
    2266:	4618      	mov	r0, r3
    2268:	f7ff fa96 	bl	1798 <bget>
    226c:	6138      	str	r0, [r7, #16]
/home/csx/share/gerrit/optee_os/lib/libutils/isoc/bget_malloc.c:323
    226e:	f7ff fea3 	bl	1fb8 <raw_malloc_save_max_alloced_size>
/home/csx/share/gerrit/optee_os/lib/libutils/isoc/bget_malloc.c:325
    2272:	693b      	ldr	r3, [r7, #16]
/home/csx/share/gerrit/optee_os/lib/libutils/isoc/bget_malloc.c:326
    2274:	4618      	mov	r0, r3
    2276:	3718      	adds	r7, #24
    2278:	46bd      	mov	sp, r7
    227a:	bd80      	pop	{r7, pc}

0000227c <raw_free>:
raw_free():
/home/csx/share/gerrit/optee_os/lib/libutils/isoc/bget_malloc.c:329
    227c:	e96d 7e02 	strd	r7, lr, [sp, #-8]!
    2280:	b082      	sub	sp, #8
    2282:	af00      	add	r7, sp, #0
    2284:	6078      	str	r0, [r7, #4]
/home/csx/share/gerrit/optee_os/lib/libutils/isoc/bget_malloc.c:330
    2286:	f7ff ff19 	bl	20bc <raw_malloc_validate_pools>
/home/csx/share/gerrit/optee_os/lib/libutils/isoc/bget_malloc.c:332
    228a:	687b      	ldr	r3, [r7, #4]
    228c:	2b00      	cmp	r3, #0
    228e:	d002      	beq.n	2296 <raw_free+0x1a>
/home/csx/share/gerrit/optee_os/lib/libutils/isoc/bget_malloc.c:333
    2290:	6878      	ldr	r0, [r7, #4]
    2292:	f7ff fc15 	bl	1ac0 <brel>
/home/csx/share/gerrit/optee_os/lib/libutils/isoc/bget_malloc.c:334
    2296:	3708      	adds	r7, #8
    2298:	46bd      	mov	sp, r7
    229a:	bd80      	pop	{r7, pc}

0000229c <raw_calloc>:
raw_calloc():
/home/csx/share/gerrit/optee_os/lib/libutils/isoc/bget_malloc.c:338
    229c:	e96d 7e02 	strd	r7, lr, [sp, #-8]!
    22a0:	b086      	sub	sp, #24
    22a2:	af00      	add	r7, sp, #0
    22a4:	60f8      	str	r0, [r7, #12]
    22a6:	60b9      	str	r1, [r7, #8]
    22a8:	607a      	str	r2, [r7, #4]
    22aa:	603b      	str	r3, [r7, #0]
/home/csx/share/gerrit/optee_os/lib/libutils/isoc/bget_malloc.c:339
    22ac:	68fa      	ldr	r2, [r7, #12]
    22ae:	68bb      	ldr	r3, [r7, #8]
    22b0:	441a      	add	r2, r3
    22b2:	687b      	ldr	r3, [r7, #4]
    22b4:	6839      	ldr	r1, [r7, #0]
    22b6:	fb01 f303 	mul.w	r3, r1, r3
    22ba:	4413      	add	r3, r2
    22bc:	617b      	str	r3, [r7, #20]
/home/csx/share/gerrit/optee_os/lib/libutils/isoc/bget_malloc.c:342
    22be:	f7ff fefd 	bl	20bc <raw_malloc_validate_pools>
/home/csx/share/gerrit/optee_os/lib/libutils/isoc/bget_malloc.c:345
    22c2:	697a      	ldr	r2, [r7, #20]
    22c4:	687b      	ldr	r3, [r7, #4]
    22c6:	429a      	cmp	r2, r3
    22c8:	d303      	bcc.n	22d2 <raw_calloc+0x36>
/home/csx/share/gerrit/optee_os/lib/libutils/isoc/bget_malloc.c:345 (discriminator 1)
    22ca:	697a      	ldr	r2, [r7, #20]
    22cc:	683b      	ldr	r3, [r7, #0]
    22ce:	429a      	cmp	r2, r3
    22d0:	d201      	bcs.n	22d6 <raw_calloc+0x3a>
/home/csx/share/gerrit/optee_os/lib/libutils/isoc/bget_malloc.c:346
    22d2:	2300      	movs	r3, #0
    22d4:	e00d      	b.n	22f2 <raw_calloc+0x56>
/home/csx/share/gerrit/optee_os/lib/libutils/isoc/bget_malloc.c:349
    22d6:	697b      	ldr	r3, [r7, #20]
    22d8:	2b00      	cmp	r3, #0
    22da:	d102      	bne.n	22e2 <raw_calloc+0x46>
/home/csx/share/gerrit/optee_os/lib/libutils/isoc/bget_malloc.c:350
    22dc:	697b      	ldr	r3, [r7, #20]
    22de:	3301      	adds	r3, #1
    22e0:	617b      	str	r3, [r7, #20]
/home/csx/share/gerrit/optee_os/lib/libutils/isoc/bget_malloc.c:352
    22e2:	697b      	ldr	r3, [r7, #20]
    22e4:	4618      	mov	r0, r3
    22e6:	f7ff fb67 	bl	19b8 <bgetz>
    22ea:	6138      	str	r0, [r7, #16]
/home/csx/share/gerrit/optee_os/lib/libutils/isoc/bget_malloc.c:353
    22ec:	f7ff fe64 	bl	1fb8 <raw_malloc_save_max_alloced_size>
/home/csx/share/gerrit/optee_os/lib/libutils/isoc/bget_malloc.c:355
    22f0:	693b      	ldr	r3, [r7, #16]
/home/csx/share/gerrit/optee_os/lib/libutils/isoc/bget_malloc.c:356
    22f2:	4618      	mov	r0, r3
    22f4:	3718      	adds	r7, #24
    22f6:	46bd      	mov	sp, r7
    22f8:	bd80      	pop	{r7, pc}
    22fa:	bf00      	nop

000022fc <raw_realloc>:
raw_realloc():
/home/csx/share/gerrit/optee_os/lib/libutils/isoc/bget_malloc.c:360
    22fc:	e96d 7e02 	strd	r7, lr, [sp, #-8]!
    2300:	b086      	sub	sp, #24
    2302:	af00      	add	r7, sp, #0
    2304:	60f8      	str	r0, [r7, #12]
    2306:	60b9      	str	r1, [r7, #8]
    2308:	607a      	str	r2, [r7, #4]
    230a:	603b      	str	r3, [r7, #0]
/home/csx/share/gerrit/optee_os/lib/libutils/isoc/bget_malloc.c:361
    230c:	68ba      	ldr	r2, [r7, #8]
    230e:	687b      	ldr	r3, [r7, #4]
    2310:	441a      	add	r2, r3
    2312:	683b      	ldr	r3, [r7, #0]
    2314:	4413      	add	r3, r2
    2316:	617b      	str	r3, [r7, #20]
/home/csx/share/gerrit/optee_os/lib/libutils/isoc/bget_malloc.c:365
    2318:	697a      	ldr	r2, [r7, #20]
    231a:	683b      	ldr	r3, [r7, #0]
    231c:	429a      	cmp	r2, r3
    231e:	d201      	bcs.n	2324 <raw_realloc+0x28>
/home/csx/share/gerrit/optee_os/lib/libutils/isoc/bget_malloc.c:366
    2320:	2300      	movs	r3, #0
    2322:	e010      	b.n	2346 <raw_realloc+0x4a>
/home/csx/share/gerrit/optee_os/lib/libutils/isoc/bget_malloc.c:368
    2324:	f7ff feca 	bl	20bc <raw_malloc_validate_pools>
/home/csx/share/gerrit/optee_os/lib/libutils/isoc/bget_malloc.c:371
    2328:	697b      	ldr	r3, [r7, #20]
    232a:	2b00      	cmp	r3, #0
    232c:	d102      	bne.n	2334 <raw_realloc+0x38>
/home/csx/share/gerrit/optee_os/lib/libutils/isoc/bget_malloc.c:372
    232e:	697b      	ldr	r3, [r7, #20]
    2330:	3301      	adds	r3, #1
    2332:	617b      	str	r3, [r7, #20]
/home/csx/share/gerrit/optee_os/lib/libutils/isoc/bget_malloc.c:374
    2334:	697b      	ldr	r3, [r7, #20]
    2336:	68f8      	ldr	r0, [r7, #12]
    2338:	4619      	mov	r1, r3
    233a:	f7ff fb7d 	bl	1a38 <bgetr>
    233e:	6138      	str	r0, [r7, #16]
/home/csx/share/gerrit/optee_os/lib/libutils/isoc/bget_malloc.c:375
    2340:	f7ff fe3a 	bl	1fb8 <raw_malloc_save_max_alloced_size>
/home/csx/share/gerrit/optee_os/lib/libutils/isoc/bget_malloc.c:377
    2344:	693b      	ldr	r3, [r7, #16]
/home/csx/share/gerrit/optee_os/lib/libutils/isoc/bget_malloc.c:378
    2346:	4618      	mov	r0, r3
    2348:	3718      	adds	r7, #24
    234a:	46bd      	mov	sp, r7
    234c:	bd80      	pop	{r7, pc}
    234e:	bf00      	nop

00002350 <create_free_block>:
create_free_block():
/home/csx/share/gerrit/optee_os/lib/libutils/isoc/bget_malloc.c:381
    2350:	e96d 7e02 	strd	r7, lr, [sp, #-8]!
    2354:	b084      	sub	sp, #16
    2356:	af00      	add	r7, sp, #0
    2358:	60f8      	str	r0, [r7, #12]
    235a:	60b9      	str	r1, [r7, #8]
    235c:	607a      	str	r2, [r7, #4]
/home/csx/share/gerrit/optee_os/lib/libutils/isoc/bget_malloc.c:382
    235e:	68bb      	ldr	r3, [r7, #8]
    2360:	68fa      	ldr	r2, [r7, #12]
    2362:	441a      	add	r2, r3
    2364:	687b      	ldr	r3, [r7, #4]
    2366:	429a      	cmp	r2, r3
    2368:	d00b      	beq.n	2382 <create_free_block+0x32>
/home/csx/share/gerrit/optee_os/lib/libutils/isoc/bget_malloc.c:382 (discriminator 1)
    236a:	4b39      	ldr	r3, [pc, #228]	; (2450 <create_free_block+0x100>)
    236c:	447b      	add	r3, pc
    236e:	4618      	mov	r0, r3
    2370:	4b38      	ldr	r3, [pc, #224]	; (2454 <create_free_block+0x104>)
    2372:	447b      	add	r3, pc
    2374:	4619      	mov	r1, r3
    2376:	f44f 72bf 	mov.w	r2, #382	; 0x17e
    237a:	f7fe ff3d 	bl	11f8 <_assert_log>
    237e:	f7fe ff51 	bl	1224 <_assert_break>
/home/csx/share/gerrit/optee_os/lib/libutils/isoc/bget_malloc.c:383
    2382:	687b      	ldr	r3, [r7, #4]
    2384:	685b      	ldr	r3, [r3, #4]
    2386:	2b00      	cmp	r3, #0
    2388:	db0b      	blt.n	23a2 <create_free_block+0x52>
/home/csx/share/gerrit/optee_os/lib/libutils/isoc/bget_malloc.c:383 (discriminator 1)
    238a:	4b33      	ldr	r3, [pc, #204]	; (2458 <create_free_block+0x108>)
    238c:	447b      	add	r3, pc
    238e:	4618      	mov	r0, r3
    2390:	4b32      	ldr	r3, [pc, #200]	; (245c <create_free_block+0x10c>)
    2392:	447b      	add	r3, pc
    2394:	4619      	mov	r1, r3
    2396:	f240 127f 	movw	r2, #383	; 0x17f
    239a:	f7fe ff2d 	bl	11f8 <_assert_log>
    239e:	f7fe ff41 	bl	1224 <_assert_break>
/home/csx/share/gerrit/optee_os/lib/libutils/isoc/bget_malloc.c:385
    23a2:	687b      	ldr	r3, [r7, #4]
    23a4:	681b      	ldr	r3, [r3, #0]
    23a6:	2b00      	cmp	r3, #0
    23a8:	d00b      	beq.n	23c2 <create_free_block+0x72>
/home/csx/share/gerrit/optee_os/lib/libutils/isoc/bget_malloc.c:385 (discriminator 1)
    23aa:	4b2d      	ldr	r3, [pc, #180]	; (2460 <create_free_block+0x110>)
    23ac:	447b      	add	r3, pc
    23ae:	4618      	mov	r0, r3
    23b0:	4b2c      	ldr	r3, [pc, #176]	; (2464 <create_free_block+0x114>)
    23b2:	447b      	add	r3, pc
    23b4:	4619      	mov	r1, r3
    23b6:	f240 1281 	movw	r2, #385	; 0x181
    23ba:	f7fe ff1d 	bl	11f8 <_assert_log>
    23be:	f7fe ff31 	bl	1224 <_assert_break>
/home/csx/share/gerrit/optee_os/lib/libutils/isoc/bget_malloc.c:388
    23c2:	68fb      	ldr	r3, [r7, #12]
    23c4:	68ba      	ldr	r2, [r7, #8]
    23c6:	605a      	str	r2, [r3, #4]
/home/csx/share/gerrit/optee_os/lib/libutils/isoc/bget_malloc.c:389
    23c8:	68fb      	ldr	r3, [r7, #12]
    23ca:	2200      	movs	r2, #0
    23cc:	601a      	str	r2, [r3, #0]
/home/csx/share/gerrit/optee_os/lib/libutils/isoc/bget_malloc.c:392
    23ce:	687b      	ldr	r3, [r7, #4]
    23d0:	68ba      	ldr	r2, [r7, #8]
    23d2:	601a      	str	r2, [r3, #0]
/home/csx/share/gerrit/optee_os/lib/libutils/isoc/bget_malloc.c:395
    23d4:	4b24      	ldr	r3, [pc, #144]	; (2468 <create_free_block+0x118>)
    23d6:	447b      	add	r3, pc
    23d8:	68db      	ldr	r3, [r3, #12]
    23da:	689b      	ldr	r3, [r3, #8]
    23dc:	4a23      	ldr	r2, [pc, #140]	; (246c <create_free_block+0x11c>)
    23de:	447a      	add	r2, pc
    23e0:	4293      	cmp	r3, r2
    23e2:	d00b      	beq.n	23fc <create_free_block+0xac>
/home/csx/share/gerrit/optee_os/lib/libutils/isoc/bget_malloc.c:395 (discriminator 1)
    23e4:	4b22      	ldr	r3, [pc, #136]	; (2470 <create_free_block+0x120>)
    23e6:	447b      	add	r3, pc
    23e8:	4618      	mov	r0, r3
    23ea:	4b22      	ldr	r3, [pc, #136]	; (2474 <create_free_block+0x124>)
    23ec:	447b      	add	r3, pc
    23ee:	4619      	mov	r1, r3
    23f0:	f240 128b 	movw	r2, #395	; 0x18b
    23f4:	f7fe ff00 	bl	11f8 <_assert_log>
    23f8:	f7fe ff14 	bl	1224 <_assert_break>
/home/csx/share/gerrit/optee_os/lib/libutils/isoc/bget_malloc.c:396
    23fc:	4b1e      	ldr	r3, [pc, #120]	; (2478 <create_free_block+0x128>)
    23fe:	447b      	add	r3, pc
    2400:	689b      	ldr	r3, [r3, #8]
    2402:	68db      	ldr	r3, [r3, #12]
    2404:	4a1d      	ldr	r2, [pc, #116]	; (247c <create_free_block+0x12c>)
    2406:	447a      	add	r2, pc
    2408:	4293      	cmp	r3, r2
    240a:	d00b      	beq.n	2424 <create_free_block+0xd4>
/home/csx/share/gerrit/optee_os/lib/libutils/isoc/bget_malloc.c:396 (discriminator 1)
    240c:	4b1c      	ldr	r3, [pc, #112]	; (2480 <create_free_block+0x130>)
    240e:	447b      	add	r3, pc
    2410:	4618      	mov	r0, r3
    2412:	4b1c      	ldr	r3, [pc, #112]	; (2484 <create_free_block+0x134>)
    2414:	447b      	add	r3, pc
    2416:	4619      	mov	r1, r3
    2418:	f44f 72c6 	mov.w	r2, #396	; 0x18c
    241c:	f7fe feec 	bl	11f8 <_assert_log>
    2420:	f7fe ff00 	bl	1224 <_assert_break>
/home/csx/share/gerrit/optee_os/lib/libutils/isoc/bget_malloc.c:397
    2424:	68fb      	ldr	r3, [r7, #12]
    2426:	4a18      	ldr	r2, [pc, #96]	; (2488 <create_free_block+0x138>)
    2428:	447a      	add	r2, pc
    242a:	609a      	str	r2, [r3, #8]
/home/csx/share/gerrit/optee_os/lib/libutils/isoc/bget_malloc.c:398
    242c:	4b17      	ldr	r3, [pc, #92]	; (248c <create_free_block+0x13c>)
    242e:	447b      	add	r3, pc
    2430:	68da      	ldr	r2, [r3, #12]
    2432:	68fb      	ldr	r3, [r7, #12]
    2434:	60da      	str	r2, [r3, #12]
/home/csx/share/gerrit/optee_os/lib/libutils/isoc/bget_malloc.c:399
    2436:	4b16      	ldr	r3, [pc, #88]	; (2490 <create_free_block+0x140>)
    2438:	447b      	add	r3, pc
    243a:	461a      	mov	r2, r3
    243c:	68fb      	ldr	r3, [r7, #12]
    243e:	60d3      	str	r3, [r2, #12]
/home/csx/share/gerrit/optee_os/lib/libutils/isoc/bget_malloc.c:400
    2440:	68fb      	ldr	r3, [r7, #12]
    2442:	68db      	ldr	r3, [r3, #12]
    2444:	68fa      	ldr	r2, [r7, #12]
    2446:	609a      	str	r2, [r3, #8]
/home/csx/share/gerrit/optee_os/lib/libutils/isoc/bget_malloc.c:401
    2448:	3710      	adds	r7, #16
    244a:	46bd      	mov	sp, r7
    244c:	bd80      	pop	{r7, pc}
    244e:	bf00      	nop
    2450:	00006980 	.word	0x00006980
    2454:	0000695a 	.word	0x0000695a
    2458:	0000697c 	.word	0x0000697c
    245c:	0000693a 	.word	0x0000693a
    2460:	0000696c 	.word	0x0000696c
    2464:	0000691a 	.word	0x0000691a
    2468:	00008cba 	.word	0x00008cba
    246c:	00008cb2 	.word	0x00008cb2
    2470:	000067b6 	.word	0x000067b6
    2474:	000068e0 	.word	0x000068e0
    2478:	00008c92 	.word	0x00008c92
    247c:	00008c8a 	.word	0x00008c8a
    2480:	000067ba 	.word	0x000067ba
    2484:	000068b8 	.word	0x000068b8
    2488:	00008c68 	.word	0x00008c68
    248c:	00008c62 	.word	0x00008c62
    2490:	00008c58 	.word	0x00008c58

00002494 <brel_before>:
brel_before():
/home/csx/share/gerrit/optee_os/lib/libutils/isoc/bget_malloc.c:404
    2494:	e96d 7e02 	strd	r7, lr, [sp, #-8]!
    2498:	b088      	sub	sp, #32
    249a:	af00      	add	r7, sp, #0
    249c:	6078      	str	r0, [r7, #4]
    249e:	6039      	str	r1, [r7, #0]
/home/csx/share/gerrit/optee_os/lib/libutils/isoc/bget_malloc.c:410
    24a0:	687a      	ldr	r2, [r7, #4]
    24a2:	683b      	ldr	r3, [r7, #0]
    24a4:	429a      	cmp	r2, r3
    24a6:	d30b      	bcc.n	24c0 <brel_before+0x2c>
/home/csx/share/gerrit/optee_os/lib/libutils/isoc/bget_malloc.c:410 (discriminator 1)
    24a8:	4b3d      	ldr	r3, [pc, #244]	; (25a0 <brel_before+0x10c>)
    24aa:	447b      	add	r3, pc
    24ac:	4618      	mov	r0, r3
    24ae:	4b3d      	ldr	r3, [pc, #244]	; (25a4 <brel_before+0x110>)
    24b0:	447b      	add	r3, pc
    24b2:	4619      	mov	r1, r3
    24b4:	f44f 72cd 	mov.w	r2, #410	; 0x19a
    24b8:	f7fe fe9e 	bl	11f8 <_assert_log>
    24bc:	f7fe feb2 	bl	1224 <_assert_break>
/home/csx/share/gerrit/optee_os/lib/libutils/isoc/bget_malloc.c:412
    24c0:	683a      	ldr	r2, [r7, #0]
    24c2:	687b      	ldr	r3, [r7, #4]
    24c4:	1ad3      	subs	r3, r2, r3
    24c6:	61fb      	str	r3, [r7, #28]
/home/csx/share/gerrit/optee_os/lib/libutils/isoc/bget_malloc.c:413
    24c8:	69fb      	ldr	r3, [r7, #28]
    24ca:	2b0f      	cmp	r3, #15
    24cc:	d80b      	bhi.n	24e6 <brel_before+0x52>
/home/csx/share/gerrit/optee_os/lib/libutils/isoc/bget_malloc.c:413 (discriminator 1)
    24ce:	4b36      	ldr	r3, [pc, #216]	; (25a8 <brel_before+0x114>)
    24d0:	447b      	add	r3, pc
    24d2:	4618      	mov	r0, r3
    24d4:	4b35      	ldr	r3, [pc, #212]	; (25ac <brel_before+0x118>)
    24d6:	447b      	add	r3, pc
    24d8:	4619      	mov	r1, r3
    24da:	f240 129d 	movw	r2, #413	; 0x19d
    24de:	f7fe fe8b 	bl	11f8 <_assert_log>
    24e2:	f7fe fe9f 	bl	1224 <_assert_break>
/home/csx/share/gerrit/optee_os/lib/libutils/isoc/bget_malloc.c:416
    24e6:	687b      	ldr	r3, [r7, #4]
    24e8:	3b08      	subs	r3, #8
    24ea:	61bb      	str	r3, [r7, #24]
/home/csx/share/gerrit/optee_os/lib/libutils/isoc/bget_malloc.c:417
    24ec:	69bb      	ldr	r3, [r7, #24]
    24ee:	685b      	ldr	r3, [r3, #4]
    24f0:	425b      	negs	r3, r3
    24f2:	617b      	str	r3, [r7, #20]
/home/csx/share/gerrit/optee_os/lib/libutils/isoc/bget_malloc.c:420
    24f4:	683b      	ldr	r3, [r7, #0]
    24f6:	3b08      	subs	r3, #8
    24f8:	613b      	str	r3, [r7, #16]
/home/csx/share/gerrit/optee_os/lib/libutils/isoc/bget_malloc.c:422
    24fa:	69bb      	ldr	r3, [r7, #24]
    24fc:	681b      	ldr	r3, [r3, #0]
    24fe:	2b00      	cmp	r3, #0
    2500:	d027      	beq.n	2552 <brel_before+0xbe>
/home/csx/share/gerrit/optee_os/lib/libutils/isoc/bget_malloc.c:427
    2502:	69bb      	ldr	r3, [r7, #24]
    2504:	681b      	ldr	r3, [r3, #0]
    2506:	425b      	negs	r3, r3
    2508:	69ba      	ldr	r2, [r7, #24]
    250a:	4413      	add	r3, r2
    250c:	60fb      	str	r3, [r7, #12]
/home/csx/share/gerrit/optee_os/lib/libutils/isoc/bget_malloc.c:428
    250e:	68fb      	ldr	r3, [r7, #12]
    2510:	685a      	ldr	r2, [r3, #4]
    2512:	69bb      	ldr	r3, [r7, #24]
    2514:	681b      	ldr	r3, [r3, #0]
    2516:	429a      	cmp	r2, r3
    2518:	d00b      	beq.n	2532 <brel_before+0x9e>
/home/csx/share/gerrit/optee_os/lib/libutils/isoc/bget_malloc.c:428 (discriminator 1)
    251a:	4b25      	ldr	r3, [pc, #148]	; (25b0 <brel_before+0x11c>)
    251c:	447b      	add	r3, pc
    251e:	4618      	mov	r0, r3
    2520:	4b24      	ldr	r3, [pc, #144]	; (25b4 <brel_before+0x120>)
    2522:	447b      	add	r3, pc
    2524:	4619      	mov	r1, r3
    2526:	f44f 72d6 	mov.w	r2, #428	; 0x1ac
    252a:	f7fe fe65 	bl	11f8 <_assert_log>
    252e:	f7fe fe79 	bl	1224 <_assert_break>
/home/csx/share/gerrit/optee_os/lib/libutils/isoc/bget_malloc.c:429
    2532:	68fb      	ldr	r3, [r7, #12]
    2534:	685a      	ldr	r2, [r3, #4]
    2536:	69fb      	ldr	r3, [r7, #28]
    2538:	441a      	add	r2, r3
    253a:	68fb      	ldr	r3, [r7, #12]
    253c:	605a      	str	r2, [r3, #4]
/home/csx/share/gerrit/optee_os/lib/libutils/isoc/bget_malloc.c:432
    253e:	68fb      	ldr	r3, [r7, #12]
    2540:	685a      	ldr	r2, [r3, #4]
    2542:	693b      	ldr	r3, [r7, #16]
    2544:	601a      	str	r2, [r3, #0]
/home/csx/share/gerrit/optee_os/lib/libutils/isoc/bget_malloc.c:434
    2546:	69fa      	ldr	r2, [r7, #28]
    2548:	697b      	ldr	r3, [r7, #20]
    254a:	1ad2      	subs	r2, r2, r3
    254c:	693b      	ldr	r3, [r7, #16]
    254e:	605a      	str	r2, [r3, #4]
    2550:	e009      	b.n	2566 <brel_before+0xd2>
/home/csx/share/gerrit/optee_os/lib/libutils/isoc/bget_malloc.c:442
    2552:	69fa      	ldr	r2, [r7, #28]
    2554:	697b      	ldr	r3, [r7, #20]
    2556:	1ad2      	subs	r2, r2, r3
    2558:	693b      	ldr	r3, [r7, #16]
    255a:	605a      	str	r2, [r3, #4]
/home/csx/share/gerrit/optee_os/lib/libutils/isoc/bget_malloc.c:444
    255c:	69b8      	ldr	r0, [r7, #24]
    255e:	69f9      	ldr	r1, [r7, #28]
    2560:	693a      	ldr	r2, [r7, #16]
    2562:	f7ff fef5 	bl	2350 <create_free_block>
/home/csx/share/gerrit/optee_os/lib/libutils/isoc/bget_malloc.c:448
    2566:	4b14      	ldr	r3, [pc, #80]	; (25b8 <brel_before+0x124>)
    2568:	447b      	add	r3, pc
    256a:	681a      	ldr	r2, [r3, #0]
    256c:	69fb      	ldr	r3, [r7, #28]
    256e:	1ad3      	subs	r3, r2, r3
    2570:	4a12      	ldr	r2, [pc, #72]	; (25bc <brel_before+0x128>)
    2572:	447a      	add	r2, pc
    2574:	6013      	str	r3, [r2, #0]
/home/csx/share/gerrit/optee_os/lib/libutils/isoc/bget_malloc.c:449
    2576:	4b12      	ldr	r3, [pc, #72]	; (25c0 <brel_before+0x12c>)
    2578:	447b      	add	r3, pc
    257a:	681b      	ldr	r3, [r3, #0]
    257c:	2b00      	cmp	r3, #0
    257e:	da0b      	bge.n	2598 <brel_before+0x104>
/home/csx/share/gerrit/optee_os/lib/libutils/isoc/bget_malloc.c:449 (discriminator 1)
    2580:	4b10      	ldr	r3, [pc, #64]	; (25c4 <brel_before+0x130>)
    2582:	447b      	add	r3, pc
    2584:	4618      	mov	r0, r3
    2586:	4b10      	ldr	r3, [pc, #64]	; (25c8 <brel_before+0x134>)
    2588:	447b      	add	r3, pc
    258a:	4619      	mov	r1, r3
    258c:	f240 12c1 	movw	r2, #449	; 0x1c1
    2590:	f7fe fe32 	bl	11f8 <_assert_log>
    2594:	f7fe fe46 	bl	1224 <_assert_break>
/home/csx/share/gerrit/optee_os/lib/libutils/isoc/bget_malloc.c:451
    2598:	3720      	adds	r7, #32
    259a:	46bd      	mov	sp, r7
    259c:	bd80      	pop	{r7, pc}
    259e:	bf00      	nop
    25a0:	00006882 	.word	0x00006882
    25a4:	0000681c 	.word	0x0000681c
    25a8:	00006870 	.word	0x00006870
    25ac:	000067f6 	.word	0x000067f6
    25b0:	0000684c 	.word	0x0000684c
    25b4:	000067aa 	.word	0x000067aa
    25b8:	00012674 	.word	0x00012674
    25bc:	0001266a 	.word	0x0001266a
    25c0:	00012664 	.word	0x00012664
    25c4:	000065ce 	.word	0x000065ce
    25c8:	00006744 	.word	0x00006744

000025cc <brel_after>:
brel_after():
/home/csx/share/gerrit/optee_os/lib/libutils/isoc/bget_malloc.c:454
    25cc:	e96d 7e02 	strd	r7, lr, [sp, #-8]!
    25d0:	b08a      	sub	sp, #40	; 0x28
    25d2:	af00      	add	r7, sp, #0
    25d4:	6078      	str	r0, [r7, #4]
    25d6:	6039      	str	r1, [r7, #0]
/home/csx/share/gerrit/optee_os/lib/libutils/isoc/bget_malloc.c:455
    25d8:	687b      	ldr	r3, [r7, #4]
    25da:	3b08      	subs	r3, #8
    25dc:	623b      	str	r3, [r7, #32]
/home/csx/share/gerrit/optee_os/lib/libutils/isoc/bget_malloc.c:457
    25de:	683b      	ldr	r3, [r7, #0]
    25e0:	627b      	str	r3, [r7, #36]	; 0x24
/home/csx/share/gerrit/optee_os/lib/libutils/isoc/bget_malloc.c:461
    25e2:	6a7b      	ldr	r3, [r7, #36]	; 0x24
    25e4:	2b07      	cmp	r3, #7
    25e6:	d801      	bhi.n	25ec <brel_after+0x20>
/home/csx/share/gerrit/optee_os/lib/libutils/isoc/bget_malloc.c:462
    25e8:	2308      	movs	r3, #8
    25ea:	627b      	str	r3, [r7, #36]	; 0x24
/home/csx/share/gerrit/optee_os/lib/libutils/isoc/bget_malloc.c:465
    25ec:	6a7b      	ldr	r3, [r7, #36]	; 0x24
    25ee:	3307      	adds	r3, #7
    25f0:	f023 0307 	bic.w	r3, r3, #7
    25f4:	627b      	str	r3, [r7, #36]	; 0x24
/home/csx/share/gerrit/optee_os/lib/libutils/isoc/bget_malloc.c:468
    25f6:	6a7b      	ldr	r3, [r7, #36]	; 0x24
    25f8:	3308      	adds	r3, #8
    25fa:	627b      	str	r3, [r7, #36]	; 0x24
/home/csx/share/gerrit/optee_os/lib/libutils/isoc/bget_malloc.c:469
    25fc:	6a3b      	ldr	r3, [r7, #32]
    25fe:	685b      	ldr	r3, [r3, #4]
    2600:	425a      	negs	r2, r3
    2602:	6a7b      	ldr	r3, [r7, #36]	; 0x24
    2604:	429a      	cmp	r2, r3
    2606:	da0b      	bge.n	2620 <brel_after+0x54>
/home/csx/share/gerrit/optee_os/lib/libutils/isoc/bget_malloc.c:469 (discriminator 1)
    2608:	4b5c      	ldr	r3, [pc, #368]	; (277c <brel_after+0x1b0>)
    260a:	447b      	add	r3, pc
    260c:	4618      	mov	r0, r3
    260e:	4b5c      	ldr	r3, [pc, #368]	; (2780 <brel_after+0x1b4>)
    2610:	447b      	add	r3, pc
    2612:	4619      	mov	r1, r3
    2614:	f240 12d5 	movw	r2, #469	; 0x1d5
    2618:	f7fe fdee 	bl	11f8 <_assert_log>
    261c:	f7fe fe02 	bl	1224 <_assert_break>
/home/csx/share/gerrit/optee_os/lib/libutils/isoc/bget_malloc.c:475
    2620:	6a3b      	ldr	r3, [r7, #32]
    2622:	685b      	ldr	r3, [r3, #4]
    2624:	425a      	negs	r2, r3
    2626:	6a7b      	ldr	r3, [r7, #36]	; 0x24
    2628:	1ad3      	subs	r3, r2, r3
    262a:	61fb      	str	r3, [r7, #28]
/home/csx/share/gerrit/optee_os/lib/libutils/isoc/bget_malloc.c:476
    262c:	69fb      	ldr	r3, [r7, #28]
    262e:	2b0f      	cmp	r3, #15
    2630:	d800      	bhi.n	2634 <brel_after+0x68>
/home/csx/share/gerrit/optee_os/lib/libutils/isoc/bget_malloc.c:477
    2632:	e0a0      	b.n	2776 <brel_after+0x1aa>
/home/csx/share/gerrit/optee_os/lib/libutils/isoc/bget_malloc.c:479
    2634:	6a3b      	ldr	r3, [r7, #32]
    2636:	685b      	ldr	r3, [r3, #4]
    2638:	425b      	negs	r3, r3
    263a:	6a3a      	ldr	r2, [r7, #32]
    263c:	4413      	add	r3, r2
    263e:	61bb      	str	r3, [r7, #24]
/home/csx/share/gerrit/optee_os/lib/libutils/isoc/bget_malloc.c:483
    2640:	6a7b      	ldr	r3, [r7, #36]	; 0x24
    2642:	425a      	negs	r2, r3
    2644:	6a3b      	ldr	r3, [r7, #32]
    2646:	605a      	str	r2, [r3, #4]
/home/csx/share/gerrit/optee_os/lib/libutils/isoc/bget_malloc.c:484
    2648:	69bb      	ldr	r3, [r7, #24]
    264a:	685b      	ldr	r3, [r3, #4]
    264c:	2b00      	cmp	r3, #0
    264e:	dd71      	ble.n	2734 <brel_after+0x168>
/home/csx/share/gerrit/optee_os/lib/libutils/isoc/bget_malloc.c:486
    2650:	69bb      	ldr	r3, [r7, #24]
    2652:	617b      	str	r3, [r7, #20]
/home/csx/share/gerrit/optee_os/lib/libutils/isoc/bget_malloc.c:487
    2654:	6a7b      	ldr	r3, [r7, #36]	; 0x24
    2656:	6a3a      	ldr	r2, [r7, #32]
    2658:	4413      	add	r3, r2
    265a:	613b      	str	r3, [r7, #16]
/home/csx/share/gerrit/optee_os/lib/libutils/isoc/bget_malloc.c:488
    265c:	69bb      	ldr	r3, [r7, #24]
    265e:	685b      	ldr	r3, [r3, #4]
    2660:	461a      	mov	r2, r3
    2662:	69bb      	ldr	r3, [r7, #24]
    2664:	4413      	add	r3, r2
    2666:	60fb      	str	r3, [r7, #12]
/home/csx/share/gerrit/optee_os/lib/libutils/isoc/bget_malloc.c:490
    2668:	697b      	ldr	r3, [r7, #20]
    266a:	681b      	ldr	r3, [r3, #0]
    266c:	2b00      	cmp	r3, #0
    266e:	d00b      	beq.n	2688 <brel_after+0xbc>
/home/csx/share/gerrit/optee_os/lib/libutils/isoc/bget_malloc.c:490 (discriminator 1)
    2670:	4b44      	ldr	r3, [pc, #272]	; (2784 <brel_after+0x1b8>)
    2672:	447b      	add	r3, pc
    2674:	4618      	mov	r0, r3
    2676:	4b44      	ldr	r3, [pc, #272]	; (2788 <brel_after+0x1bc>)
    2678:	447b      	add	r3, pc
    267a:	4619      	mov	r1, r3
    267c:	f44f 72f5 	mov.w	r2, #490	; 0x1ea
    2680:	f7fe fdba 	bl	11f8 <_assert_log>
    2684:	f7fe fdce 	bl	1224 <_assert_break>
/home/csx/share/gerrit/optee_os/lib/libutils/isoc/bget_malloc.c:491
    2688:	68fb      	ldr	r3, [r7, #12]
    268a:	681a      	ldr	r2, [r3, #0]
    268c:	697b      	ldr	r3, [r7, #20]
    268e:	685b      	ldr	r3, [r3, #4]
    2690:	429a      	cmp	r2, r3
    2692:	d00b      	beq.n	26ac <brel_after+0xe0>
/home/csx/share/gerrit/optee_os/lib/libutils/isoc/bget_malloc.c:491 (discriminator 1)
    2694:	4b3d      	ldr	r3, [pc, #244]	; (278c <brel_after+0x1c0>)
    2696:	447b      	add	r3, pc
    2698:	4618      	mov	r0, r3
    269a:	4b3d      	ldr	r3, [pc, #244]	; (2790 <brel_after+0x1c4>)
    269c:	447b      	add	r3, pc
    269e:	4619      	mov	r1, r3
    26a0:	f240 12eb 	movw	r2, #491	; 0x1eb
    26a4:	f7fe fda8 	bl	11f8 <_assert_log>
    26a8:	f7fe fdbc 	bl	1224 <_assert_break>
/home/csx/share/gerrit/optee_os/lib/libutils/isoc/bget_malloc.c:494
    26ac:	693b      	ldr	r3, [r7, #16]
    26ae:	2200      	movs	r2, #0
    26b0:	601a      	str	r2, [r3, #0]
/home/csx/share/gerrit/optee_os/lib/libutils/isoc/bget_malloc.c:495
    26b2:	697b      	ldr	r3, [r7, #20]
    26b4:	685a      	ldr	r2, [r3, #4]
    26b6:	69fb      	ldr	r3, [r7, #28]
    26b8:	441a      	add	r2, r3
    26ba:	693b      	ldr	r3, [r7, #16]
    26bc:	605a      	str	r2, [r3, #4]
/home/csx/share/gerrit/optee_os/lib/libutils/isoc/bget_malloc.c:498
    26be:	68fb      	ldr	r3, [r7, #12]
    26c0:	681a      	ldr	r2, [r3, #0]
    26c2:	69fb      	ldr	r3, [r7, #28]
    26c4:	441a      	add	r2, r3
    26c6:	68fb      	ldr	r3, [r7, #12]
    26c8:	601a      	str	r2, [r3, #0]
/home/csx/share/gerrit/optee_os/lib/libutils/isoc/bget_malloc.c:504
    26ca:	697b      	ldr	r3, [r7, #20]
    26cc:	68db      	ldr	r3, [r3, #12]
    26ce:	689a      	ldr	r2, [r3, #8]
    26d0:	697b      	ldr	r3, [r7, #20]
    26d2:	429a      	cmp	r2, r3
    26d4:	d00b      	beq.n	26ee <brel_after+0x122>
/home/csx/share/gerrit/optee_os/lib/libutils/isoc/bget_malloc.c:504 (discriminator 1)
    26d6:	4b2f      	ldr	r3, [pc, #188]	; (2794 <brel_after+0x1c8>)
    26d8:	447b      	add	r3, pc
    26da:	4618      	mov	r0, r3
    26dc:	4b2e      	ldr	r3, [pc, #184]	; (2798 <brel_after+0x1cc>)
    26de:	447b      	add	r3, pc
    26e0:	4619      	mov	r1, r3
    26e2:	f44f 72fc 	mov.w	r2, #504	; 0x1f8
    26e6:	f7fe fd87 	bl	11f8 <_assert_log>
    26ea:	f7fe fd9b 	bl	1224 <_assert_break>
/home/csx/share/gerrit/optee_os/lib/libutils/isoc/bget_malloc.c:505
    26ee:	697b      	ldr	r3, [r7, #20]
    26f0:	689b      	ldr	r3, [r3, #8]
    26f2:	68da      	ldr	r2, [r3, #12]
    26f4:	697b      	ldr	r3, [r7, #20]
    26f6:	429a      	cmp	r2, r3
    26f8:	d00b      	beq.n	2712 <brel_after+0x146>
/home/csx/share/gerrit/optee_os/lib/libutils/isoc/bget_malloc.c:505 (discriminator 1)
    26fa:	4b28      	ldr	r3, [pc, #160]	; (279c <brel_after+0x1d0>)
    26fc:	447b      	add	r3, pc
    26fe:	4618      	mov	r0, r3
    2700:	4b27      	ldr	r3, [pc, #156]	; (27a0 <brel_after+0x1d4>)
    2702:	447b      	add	r3, pc
    2704:	4619      	mov	r1, r3
    2706:	f240 12f9 	movw	r2, #505	; 0x1f9
    270a:	f7fe fd75 	bl	11f8 <_assert_log>
    270e:	f7fe fd89 	bl	1224 <_assert_break>
/home/csx/share/gerrit/optee_os/lib/libutils/isoc/bget_malloc.c:508
    2712:	697b      	ldr	r3, [r7, #20]
    2714:	68da      	ldr	r2, [r3, #12]
    2716:	693b      	ldr	r3, [r7, #16]
    2718:	60da      	str	r2, [r3, #12]
/home/csx/share/gerrit/optee_os/lib/libutils/isoc/bget_malloc.c:509
    271a:	697b      	ldr	r3, [r7, #20]
    271c:	689a      	ldr	r2, [r3, #8]
    271e:	693b      	ldr	r3, [r7, #16]
    2720:	609a      	str	r2, [r3, #8]
/home/csx/share/gerrit/optee_os/lib/libutils/isoc/bget_malloc.c:512
    2722:	693b      	ldr	r3, [r7, #16]
    2724:	68db      	ldr	r3, [r3, #12]
    2726:	693a      	ldr	r2, [r7, #16]
    2728:	609a      	str	r2, [r3, #8]
/home/csx/share/gerrit/optee_os/lib/libutils/isoc/bget_malloc.c:513
    272a:	693b      	ldr	r3, [r7, #16]
    272c:	689b      	ldr	r3, [r3, #8]
    272e:	693a      	ldr	r2, [r7, #16]
    2730:	60da      	str	r2, [r3, #12]
    2732:	e007      	b.n	2744 <brel_after+0x178>
/home/csx/share/gerrit/optee_os/lib/libutils/isoc/bget_malloc.c:516
    2734:	6a7b      	ldr	r3, [r7, #36]	; 0x24
    2736:	6a3a      	ldr	r2, [r7, #32]
    2738:	4413      	add	r3, r2
    273a:	4618      	mov	r0, r3
    273c:	69f9      	ldr	r1, [r7, #28]
    273e:	69ba      	ldr	r2, [r7, #24]
    2740:	f7ff fe06 	bl	2350 <create_free_block>
/home/csx/share/gerrit/optee_os/lib/libutils/isoc/bget_malloc.c:520
    2744:	4b17      	ldr	r3, [pc, #92]	; (27a4 <brel_after+0x1d8>)
    2746:	447b      	add	r3, pc
    2748:	681a      	ldr	r2, [r3, #0]
    274a:	69fb      	ldr	r3, [r7, #28]
    274c:	1ad3      	subs	r3, r2, r3
    274e:	4a16      	ldr	r2, [pc, #88]	; (27a8 <brel_after+0x1dc>)
    2750:	447a      	add	r2, pc
    2752:	6013      	str	r3, [r2, #0]
/home/csx/share/gerrit/optee_os/lib/libutils/isoc/bget_malloc.c:521
    2754:	4b15      	ldr	r3, [pc, #84]	; (27ac <brel_after+0x1e0>)
    2756:	447b      	add	r3, pc
    2758:	681b      	ldr	r3, [r3, #0]
    275a:	2b00      	cmp	r3, #0
    275c:	da0b      	bge.n	2776 <brel_after+0x1aa>
/home/csx/share/gerrit/optee_os/lib/libutils/isoc/bget_malloc.c:521 (discriminator 1)
    275e:	4b14      	ldr	r3, [pc, #80]	; (27b0 <brel_after+0x1e4>)
    2760:	447b      	add	r3, pc
    2762:	4618      	mov	r0, r3
    2764:	4b13      	ldr	r3, [pc, #76]	; (27b4 <brel_after+0x1e8>)
    2766:	447b      	add	r3, pc
    2768:	4619      	mov	r1, r3
    276a:	f240 2209 	movw	r2, #521	; 0x209
    276e:	f7fe fd43 	bl	11f8 <_assert_log>
    2772:	f7fe fd57 	bl	1224 <_assert_break>
/home/csx/share/gerrit/optee_os/lib/libutils/isoc/bget_malloc.c:524
    2776:	3728      	adds	r7, #40	; 0x28
    2778:	46bd      	mov	sp, r7
    277a:	bd80      	pop	{r7, pc}
    277c:	00006782 	.word	0x00006782
    2780:	000066bc 	.word	0x000066bc
    2784:	00006732 	.word	0x00006732
    2788:	00006654 	.word	0x00006654
    278c:	00006726 	.word	0x00006726
    2790:	00006630 	.word	0x00006630
    2794:	00006704 	.word	0x00006704
    2798:	000065ee 	.word	0x000065ee
    279c:	00006700 	.word	0x00006700
    27a0:	000065ca 	.word	0x000065ca
    27a4:	00012496 	.word	0x00012496
    27a8:	0001248c 	.word	0x0001248c
    27ac:	00012486 	.word	0x00012486
    27b0:	000063f0 	.word	0x000063f0
    27b4:	00006566 	.word	0x00006566

000027b8 <raw_memalign>:
raw_memalign():
/home/csx/share/gerrit/optee_os/lib/libutils/isoc/bget_malloc.c:528
    27b8:	e96d 7e02 	strd	r7, lr, [sp, #-8]!
    27bc:	b088      	sub	sp, #32
    27be:	af00      	add	r7, sp, #0
    27c0:	60f8      	str	r0, [r7, #12]
    27c2:	60b9      	str	r1, [r7, #8]
    27c4:	607a      	str	r2, [r7, #4]
    27c6:	603b      	str	r3, [r7, #0]
/home/csx/share/gerrit/optee_os/lib/libutils/isoc/bget_malloc.c:532
    27c8:	f7ff fc78 	bl	20bc <raw_malloc_validate_pools>
/home/csx/share/gerrit/optee_os/lib/libutils/isoc/bget_malloc.c:534
    27cc:	687b      	ldr	r3, [r7, #4]
    27ce:	2b00      	cmp	r3, #0
    27d0:	d006      	beq.n	27e0 <raw_memalign+0x28>
/home/csx/share/gerrit/optee_os/lib/libutils/isoc/bget_malloc.c:534 (discriminator 1)
    27d2:	687b      	ldr	r3, [r7, #4]
    27d4:	425a      	negs	r2, r3
    27d6:	687b      	ldr	r3, [r7, #4]
    27d8:	401a      	ands	r2, r3
    27da:	687b      	ldr	r3, [r7, #4]
    27dc:	429a      	cmp	r2, r3
    27de:	d001      	beq.n	27e4 <raw_memalign+0x2c>
/home/csx/share/gerrit/optee_os/lib/libutils/isoc/bget_malloc.c:535
    27e0:	2300      	movs	r3, #0
    27e2:	e074      	b.n	28ce <raw_memalign+0x116>
/home/csx/share/gerrit/optee_os/lib/libutils/isoc/bget_malloc.c:541
    27e4:	687b      	ldr	r3, [r7, #4]
    27e6:	2b08      	cmp	r3, #8
    27e8:	d806      	bhi.n	27f8 <raw_memalign+0x40>
/home/csx/share/gerrit/optee_os/lib/libutils/isoc/bget_malloc.c:542
    27ea:	68f8      	ldr	r0, [r7, #12]
    27ec:	68b9      	ldr	r1, [r7, #8]
    27ee:	683a      	ldr	r2, [r7, #0]
    27f0:	f7ff fd1c 	bl	222c <raw_malloc>
    27f4:	4603      	mov	r3, r0
    27f6:	e06a      	b.n	28ce <raw_memalign+0x116>
/home/csx/share/gerrit/optee_os/lib/libutils/isoc/bget_malloc.c:544
    27f8:	68fa      	ldr	r2, [r7, #12]
    27fa:	68bb      	ldr	r3, [r7, #8]
    27fc:	441a      	add	r2, r3
    27fe:	687b      	ldr	r3, [r7, #4]
    2800:	441a      	add	r2, r3
    2802:	683b      	ldr	r3, [r7, #0]
    2804:	4413      	add	r3, r2
    2806:	3310      	adds	r3, #16
    2808:	617b      	str	r3, [r7, #20]
/home/csx/share/gerrit/optee_os/lib/libutils/isoc/bget_malloc.c:548
    280a:	697a      	ldr	r2, [r7, #20]
    280c:	687b      	ldr	r3, [r7, #4]
    280e:	429a      	cmp	r2, r3
    2810:	d303      	bcc.n	281a <raw_memalign+0x62>
/home/csx/share/gerrit/optee_os/lib/libutils/isoc/bget_malloc.c:548 (discriminator 1)
    2812:	697a      	ldr	r2, [r7, #20]
    2814:	683b      	ldr	r3, [r7, #0]
    2816:	429a      	cmp	r2, r3
    2818:	d201      	bcs.n	281e <raw_memalign+0x66>
/home/csx/share/gerrit/optee_os/lib/libutils/isoc/bget_malloc.c:549
    281a:	2300      	movs	r3, #0
    281c:	e057      	b.n	28ce <raw_memalign+0x116>
/home/csx/share/gerrit/optee_os/lib/libutils/isoc/bget_malloc.c:551
    281e:	697b      	ldr	r3, [r7, #20]
    2820:	4618      	mov	r0, r3
    2822:	f7fe ffb9 	bl	1798 <bget>
    2826:	4603      	mov	r3, r0
    2828:	61fb      	str	r3, [r7, #28]
/home/csx/share/gerrit/optee_os/lib/libutils/isoc/bget_malloc.c:552
    282a:	69fb      	ldr	r3, [r7, #28]
    282c:	2b00      	cmp	r3, #0
    282e:	d101      	bne.n	2834 <raw_memalign+0x7c>
/home/csx/share/gerrit/optee_os/lib/libutils/isoc/bget_malloc.c:553
    2830:	2300      	movs	r3, #0
    2832:	e04c      	b.n	28ce <raw_memalign+0x116>
/home/csx/share/gerrit/optee_os/lib/libutils/isoc/bget_malloc.c:555
    2834:	69fa      	ldr	r2, [r7, #28]
    2836:	68fb      	ldr	r3, [r7, #12]
    2838:	441a      	add	r2, r3
    283a:	687b      	ldr	r3, [r7, #4]
    283c:	3b01      	subs	r3, #1
    283e:	4013      	ands	r3, r2
    2840:	2b00      	cmp	r3, #0
    2842:	d037      	beq.n	28b4 <raw_memalign+0xfc>
/home/csx/share/gerrit/optee_os/lib/libutils/isoc/bget_malloc.c:568
    2844:	69fa      	ldr	r2, [r7, #28]
    2846:	68fb      	ldr	r3, [r7, #12]
    2848:	441a      	add	r2, r3
    284a:	687b      	ldr	r3, [r7, #4]
    284c:	4413      	add	r3, r2
    284e:	61bb      	str	r3, [r7, #24]
/home/csx/share/gerrit/optee_os/lib/libutils/isoc/bget_malloc.c:569
    2850:	687b      	ldr	r3, [r7, #4]
    2852:	425b      	negs	r3, r3
    2854:	69ba      	ldr	r2, [r7, #24]
    2856:	4013      	ands	r3, r2
    2858:	61bb      	str	r3, [r7, #24]
/home/csx/share/gerrit/optee_os/lib/libutils/isoc/bget_malloc.c:570
    285a:	69ba      	ldr	r2, [r7, #24]
    285c:	68fb      	ldr	r3, [r7, #12]
    285e:	1ad3      	subs	r3, r2, r3
    2860:	61bb      	str	r3, [r7, #24]
/home/csx/share/gerrit/optee_os/lib/libutils/isoc/bget_malloc.c:571
    2862:	69ba      	ldr	r2, [r7, #24]
    2864:	69fb      	ldr	r3, [r7, #28]
    2866:	1ad3      	subs	r3, r2, r3
    2868:	2b0f      	cmp	r3, #15
    286a:	d803      	bhi.n	2874 <raw_memalign+0xbc>
/home/csx/share/gerrit/optee_os/lib/libutils/isoc/bget_malloc.c:572
    286c:	69ba      	ldr	r2, [r7, #24]
    286e:	687b      	ldr	r3, [r7, #4]
    2870:	4413      	add	r3, r2
    2872:	61bb      	str	r3, [r7, #24]
/home/csx/share/gerrit/optee_os/lib/libutils/isoc/bget_malloc.c:573
    2874:	69ba      	ldr	r2, [r7, #24]
    2876:	68fb      	ldr	r3, [r7, #12]
    2878:	441a      	add	r2, r3
    287a:	68bb      	ldr	r3, [r7, #8]
    287c:	441a      	add	r2, r3
    287e:	683b      	ldr	r3, [r7, #0]
    2880:	441a      	add	r2, r3
    2882:	69f9      	ldr	r1, [r7, #28]
    2884:	697b      	ldr	r3, [r7, #20]
    2886:	440b      	add	r3, r1
    2888:	429a      	cmp	r2, r3
    288a:	d90b      	bls.n	28a4 <raw_memalign+0xec>
/home/csx/share/gerrit/optee_os/lib/libutils/isoc/bget_malloc.c:573 (discriminator 1)
    288c:	4b12      	ldr	r3, [pc, #72]	; (28d8 <raw_memalign+0x120>)
    288e:	447b      	add	r3, pc
    2890:	4618      	mov	r0, r3
    2892:	4b12      	ldr	r3, [pc, #72]	; (28dc <raw_memalign+0x124>)
    2894:	447b      	add	r3, pc
    2896:	4619      	mov	r1, r3
    2898:	f240 223d 	movw	r2, #573	; 0x23d
    289c:	f7fe fcac 	bl	11f8 <_assert_log>
    28a0:	f7fe fcc0 	bl	1224 <_assert_break>
/home/csx/share/gerrit/optee_os/lib/libutils/isoc/bget_malloc.c:576
    28a4:	69fa      	ldr	r2, [r7, #28]
    28a6:	69bb      	ldr	r3, [r7, #24]
    28a8:	4610      	mov	r0, r2
    28aa:	4619      	mov	r1, r3
    28ac:	f7ff fdf2 	bl	2494 <brel_before>
/home/csx/share/gerrit/optee_os/lib/libutils/isoc/bget_malloc.c:579
    28b0:	69bb      	ldr	r3, [r7, #24]
    28b2:	61fb      	str	r3, [r7, #28]
/home/csx/share/gerrit/optee_os/lib/libutils/isoc/bget_malloc.c:586
    28b4:	69f9      	ldr	r1, [r7, #28]
    28b6:	68fa      	ldr	r2, [r7, #12]
    28b8:	68bb      	ldr	r3, [r7, #8]
    28ba:	441a      	add	r2, r3
    28bc:	683b      	ldr	r3, [r7, #0]
    28be:	4413      	add	r3, r2
    28c0:	4608      	mov	r0, r1
    28c2:	4619      	mov	r1, r3
    28c4:	f7ff fe82 	bl	25cc <brel_after>
/home/csx/share/gerrit/optee_os/lib/libutils/isoc/bget_malloc.c:588
    28c8:	f7ff fb76 	bl	1fb8 <raw_malloc_save_max_alloced_size>
/home/csx/share/gerrit/optee_os/lib/libutils/isoc/bget_malloc.c:590
    28cc:	69fb      	ldr	r3, [r7, #28]
/home/csx/share/gerrit/optee_os/lib/libutils/isoc/bget_malloc.c:591
    28ce:	4618      	mov	r0, r3
    28d0:	3720      	adds	r7, #32
    28d2:	46bd      	mov	sp, r7
    28d4:	bd80      	pop	{r7, pc}
    28d6:	bf00      	nop
    28d8:	0000658e 	.word	0x0000658e
    28dc:	00006438 	.word	0x00006438

000028e0 <bget_buf_size>:
bget_buf_size():
/home/csx/share/gerrit/optee_os/lib/libutils/isoc/bget_malloc.c:595
    28e0:	e96d 7e02 	strd	r7, lr, [sp, #-8]!
    28e4:	b084      	sub	sp, #16
    28e6:	af00      	add	r7, sp, #0
    28e8:	6078      	str	r0, [r7, #4]
/home/csx/share/gerrit/optee_os/lib/libutils/isoc/bget_malloc.c:599
    28ea:	687b      	ldr	r3, [r7, #4]
    28ec:	3b08      	subs	r3, #8
    28ee:	60fb      	str	r3, [r7, #12]
/home/csx/share/gerrit/optee_os/lib/libutils/isoc/bget_malloc.c:600
    28f0:	68fb      	ldr	r3, [r7, #12]
    28f2:	685b      	ldr	r3, [r3, #4]
    28f4:	425b      	negs	r3, r3
    28f6:	60bb      	str	r3, [r7, #8]
/home/csx/share/gerrit/optee_os/lib/libutils/isoc/bget_malloc.c:610
    28f8:	68bb      	ldr	r3, [r7, #8]
    28fa:	3b08      	subs	r3, #8
    28fc:	60bb      	str	r3, [r7, #8]
/home/csx/share/gerrit/optee_os/lib/libutils/isoc/bget_malloc.c:611
    28fe:	68bb      	ldr	r3, [r7, #8]
    2900:	2b00      	cmp	r3, #0
    2902:	dc0b      	bgt.n	291c <bget_buf_size+0x3c>
/home/csx/share/gerrit/optee_os/lib/libutils/isoc/bget_malloc.c:611 (discriminator 1)
    2904:	4b08      	ldr	r3, [pc, #32]	; (2928 <bget_buf_size+0x48>)
    2906:	447b      	add	r3, pc
    2908:	4618      	mov	r0, r3
    290a:	4b08      	ldr	r3, [pc, #32]	; (292c <bget_buf_size+0x4c>)
    290c:	447b      	add	r3, pc
    290e:	4619      	mov	r1, r3
    2910:	f240 2263 	movw	r2, #611	; 0x263
    2914:	f7fe fc70 	bl	11f8 <_assert_log>
    2918:	f7fe fc84 	bl	1224 <_assert_break>
/home/csx/share/gerrit/optee_os/lib/libutils/isoc/bget_malloc.c:612
    291c:	68bb      	ldr	r3, [r7, #8]
/home/csx/share/gerrit/optee_os/lib/libutils/isoc/bget_malloc.c:613
    291e:	4618      	mov	r0, r3
    2920:	3710      	adds	r7, #16
    2922:	46bd      	mov	sp, r7
    2924:	bd80      	pop	{r7, pc}
    2926:	bf00      	nop
    2928:	000061f6 	.word	0x000061f6
    292c:	000063c0 	.word	0x000063c0

00002930 <malloc>:
malloc():
/home/csx/share/gerrit/optee_os/lib/libutils/isoc/bget_malloc.c:815
    2930:	e96d 7e02 	strd	r7, lr, [sp, #-8]!
    2934:	b084      	sub	sp, #16
    2936:	af00      	add	r7, sp, #0
    2938:	6078      	str	r0, [r7, #4]
/home/csx/share/gerrit/optee_os/lib/libutils/isoc/bget_malloc.c:818
    293a:	f7ff fb2d 	bl	1f98 <malloc_lock>
/home/csx/share/gerrit/optee_os/lib/libutils/isoc/bget_malloc.c:819
    293e:	2000      	movs	r0, #0
    2940:	2100      	movs	r1, #0
    2942:	687a      	ldr	r2, [r7, #4]
    2944:	f7ff fc72 	bl	222c <raw_malloc>
    2948:	60f8      	str	r0, [r7, #12]
/home/csx/share/gerrit/optee_os/lib/libutils/isoc/bget_malloc.c:820
    294a:	f7ff fb2d 	bl	1fa8 <malloc_unlock>
/home/csx/share/gerrit/optee_os/lib/libutils/isoc/bget_malloc.c:821
    294e:	68fb      	ldr	r3, [r7, #12]
/home/csx/share/gerrit/optee_os/lib/libutils/isoc/bget_malloc.c:822
    2950:	4618      	mov	r0, r3
    2952:	3710      	adds	r7, #16
    2954:	46bd      	mov	sp, r7
    2956:	bd80      	pop	{r7, pc}

00002958 <free>:
free():
/home/csx/share/gerrit/optee_os/lib/libutils/isoc/bget_malloc.c:825
    2958:	e96d 7e02 	strd	r7, lr, [sp, #-8]!
    295c:	b082      	sub	sp, #8
    295e:	af00      	add	r7, sp, #0
    2960:	6078      	str	r0, [r7, #4]
/home/csx/share/gerrit/optee_os/lib/libutils/isoc/bget_malloc.c:826
    2962:	f7ff fb19 	bl	1f98 <malloc_lock>
/home/csx/share/gerrit/optee_os/lib/libutils/isoc/bget_malloc.c:827
    2966:	6878      	ldr	r0, [r7, #4]
    2968:	f7ff fc88 	bl	227c <raw_free>
/home/csx/share/gerrit/optee_os/lib/libutils/isoc/bget_malloc.c:828
    296c:	f7ff fb1c 	bl	1fa8 <malloc_unlock>
/home/csx/share/gerrit/optee_os/lib/libutils/isoc/bget_malloc.c:829
    2970:	3708      	adds	r7, #8
    2972:	46bd      	mov	sp, r7
    2974:	bd80      	pop	{r7, pc}
    2976:	bf00      	nop

00002978 <calloc>:
calloc():
/home/csx/share/gerrit/optee_os/lib/libutils/isoc/bget_malloc.c:832
    2978:	e96d 7e02 	strd	r7, lr, [sp, #-8]!
    297c:	b084      	sub	sp, #16
    297e:	af00      	add	r7, sp, #0
    2980:	6078      	str	r0, [r7, #4]
    2982:	6039      	str	r1, [r7, #0]
/home/csx/share/gerrit/optee_os/lib/libutils/isoc/bget_malloc.c:835
    2984:	f7ff fb08 	bl	1f98 <malloc_lock>
/home/csx/share/gerrit/optee_os/lib/libutils/isoc/bget_malloc.c:836
    2988:	2000      	movs	r0, #0
    298a:	2100      	movs	r1, #0
    298c:	687a      	ldr	r2, [r7, #4]
    298e:	683b      	ldr	r3, [r7, #0]
    2990:	f7ff fc84 	bl	229c <raw_calloc>
    2994:	60f8      	str	r0, [r7, #12]
/home/csx/share/gerrit/optee_os/lib/libutils/isoc/bget_malloc.c:837
    2996:	f7ff fb07 	bl	1fa8 <malloc_unlock>
/home/csx/share/gerrit/optee_os/lib/libutils/isoc/bget_malloc.c:838
    299a:	68fb      	ldr	r3, [r7, #12]
/home/csx/share/gerrit/optee_os/lib/libutils/isoc/bget_malloc.c:839
    299c:	4618      	mov	r0, r3
    299e:	3710      	adds	r7, #16
    29a0:	46bd      	mov	sp, r7
    29a2:	bd80      	pop	{r7, pc}

000029a4 <realloc_unlocked>:
realloc_unlocked():
/home/csx/share/gerrit/optee_os/lib/libutils/isoc/bget_malloc.c:842
    29a4:	e96d 7e02 	strd	r7, lr, [sp, #-8]!
    29a8:	b082      	sub	sp, #8
    29aa:	af00      	add	r7, sp, #0
    29ac:	6078      	str	r0, [r7, #4]
    29ae:	6039      	str	r1, [r7, #0]
/home/csx/share/gerrit/optee_os/lib/libutils/isoc/bget_malloc.c:843
    29b0:	6878      	ldr	r0, [r7, #4]
    29b2:	2100      	movs	r1, #0
    29b4:	2200      	movs	r2, #0
    29b6:	683b      	ldr	r3, [r7, #0]
    29b8:	f7ff fca0 	bl	22fc <raw_realloc>
    29bc:	4603      	mov	r3, r0
/home/csx/share/gerrit/optee_os/lib/libutils/isoc/bget_malloc.c:844
    29be:	4618      	mov	r0, r3
    29c0:	3708      	adds	r7, #8
    29c2:	46bd      	mov	sp, r7
    29c4:	bd80      	pop	{r7, pc}
    29c6:	bf00      	nop

000029c8 <realloc>:
realloc():
/home/csx/share/gerrit/optee_os/lib/libutils/isoc/bget_malloc.c:847
    29c8:	e96d 7e02 	strd	r7, lr, [sp, #-8]!
    29cc:	b084      	sub	sp, #16
    29ce:	af00      	add	r7, sp, #0
    29d0:	6078      	str	r0, [r7, #4]
    29d2:	6039      	str	r1, [r7, #0]
/home/csx/share/gerrit/optee_os/lib/libutils/isoc/bget_malloc.c:850
    29d4:	f7ff fae0 	bl	1f98 <malloc_lock>
/home/csx/share/gerrit/optee_os/lib/libutils/isoc/bget_malloc.c:851
    29d8:	6878      	ldr	r0, [r7, #4]
    29da:	6839      	ldr	r1, [r7, #0]
    29dc:	f7ff ffe2 	bl	29a4 <realloc_unlocked>
    29e0:	60f8      	str	r0, [r7, #12]
/home/csx/share/gerrit/optee_os/lib/libutils/isoc/bget_malloc.c:852
    29e2:	f7ff fae1 	bl	1fa8 <malloc_unlock>
/home/csx/share/gerrit/optee_os/lib/libutils/isoc/bget_malloc.c:853
    29e6:	68fb      	ldr	r3, [r7, #12]
/home/csx/share/gerrit/optee_os/lib/libutils/isoc/bget_malloc.c:854
    29e8:	4618      	mov	r0, r3
    29ea:	3710      	adds	r7, #16
    29ec:	46bd      	mov	sp, r7
    29ee:	bd80      	pop	{r7, pc}

000029f0 <memalign>:
memalign():
/home/csx/share/gerrit/optee_os/lib/libutils/isoc/bget_malloc.c:857
    29f0:	e96d 7e02 	strd	r7, lr, [sp, #-8]!
    29f4:	b084      	sub	sp, #16
    29f6:	af00      	add	r7, sp, #0
    29f8:	6078      	str	r0, [r7, #4]
    29fa:	6039      	str	r1, [r7, #0]
/home/csx/share/gerrit/optee_os/lib/libutils/isoc/bget_malloc.c:860
    29fc:	f7ff facc 	bl	1f98 <malloc_lock>
/home/csx/share/gerrit/optee_os/lib/libutils/isoc/bget_malloc.c:861
    2a00:	2000      	movs	r0, #0
    2a02:	2100      	movs	r1, #0
    2a04:	687a      	ldr	r2, [r7, #4]
    2a06:	683b      	ldr	r3, [r7, #0]
    2a08:	f7ff fed6 	bl	27b8 <raw_memalign>
    2a0c:	60f8      	str	r0, [r7, #12]
/home/csx/share/gerrit/optee_os/lib/libutils/isoc/bget_malloc.c:862
    2a0e:	f7ff facb 	bl	1fa8 <malloc_unlock>
/home/csx/share/gerrit/optee_os/lib/libutils/isoc/bget_malloc.c:863
    2a12:	68fb      	ldr	r3, [r7, #12]
/home/csx/share/gerrit/optee_os/lib/libutils/isoc/bget_malloc.c:864
    2a14:	4618      	mov	r0, r3
    2a16:	3710      	adds	r7, #16
    2a18:	46bd      	mov	sp, r7
    2a1a:	bd80      	pop	{r7, pc}

00002a1c <get_payload_start_size>:
get_payload_start_size():
/home/csx/share/gerrit/optee_os/lib/libutils/isoc/bget_malloc.c:867
    2a1c:	e96d 7e02 	strd	r7, lr, [sp, #-8]!
    2a20:	b082      	sub	sp, #8
    2a22:	af00      	add	r7, sp, #0
    2a24:	6078      	str	r0, [r7, #4]
    2a26:	6039      	str	r1, [r7, #0]
/home/csx/share/gerrit/optee_os/lib/libutils/isoc/bget_malloc.c:868
    2a28:	6878      	ldr	r0, [r7, #4]
    2a2a:	f7ff ff59 	bl	28e0 <bget_buf_size>
    2a2e:	4603      	mov	r3, r0
    2a30:	461a      	mov	r2, r3
    2a32:	683b      	ldr	r3, [r7, #0]
    2a34:	601a      	str	r2, [r3, #0]
/home/csx/share/gerrit/optee_os/lib/libutils/isoc/bget_malloc.c:869
    2a36:	687b      	ldr	r3, [r7, #4]
/home/csx/share/gerrit/optee_os/lib/libutils/isoc/bget_malloc.c:870
    2a38:	4618      	mov	r0, r3
    2a3a:	3708      	adds	r7, #8
    2a3c:	46bd      	mov	sp, r7
    2a3e:	bd80      	pop	{r7, pc}

00002a40 <malloc_add_pool>:
malloc_add_pool():
/home/csx/share/gerrit/optee_os/lib/libutils/isoc/bget_malloc.c:875
    2a40:	e96d 7e02 	strd	r7, lr, [sp, #-8]!
    2a44:	b086      	sub	sp, #24
    2a46:	af00      	add	r7, sp, #0
    2a48:	6078      	str	r0, [r7, #4]
    2a4a:	6039      	str	r1, [r7, #0]
/home/csx/share/gerrit/optee_os/lib/libutils/isoc/bget_malloc.c:878
    2a4c:	687b      	ldr	r3, [r7, #4]
    2a4e:	617b      	str	r3, [r7, #20]
/home/csx/share/gerrit/optee_os/lib/libutils/isoc/bget_malloc.c:879
    2a50:	697a      	ldr	r2, [r7, #20]
    2a52:	683b      	ldr	r3, [r7, #0]
    2a54:	4413      	add	r3, r2
    2a56:	613b      	str	r3, [r7, #16]
/home/csx/share/gerrit/optee_os/lib/libutils/isoc/bget_malloc.c:881
    2a58:	697b      	ldr	r3, [r7, #20]
    2a5a:	3307      	adds	r3, #7
    2a5c:	f023 0307 	bic.w	r3, r3, #7
    2a60:	617b      	str	r3, [r7, #20]
/home/csx/share/gerrit/optee_os/lib/libutils/isoc/bget_malloc.c:882
    2a62:	693b      	ldr	r3, [r7, #16]
    2a64:	f023 0307 	bic.w	r3, r3, #7
    2a68:	613b      	str	r3, [r7, #16]
/home/csx/share/gerrit/optee_os/lib/libutils/isoc/bget_malloc.c:883
    2a6a:	697a      	ldr	r2, [r7, #20]
    2a6c:	693b      	ldr	r3, [r7, #16]
    2a6e:	429a      	cmp	r2, r3
    2a70:	d30b      	bcc.n	2a8a <malloc_add_pool+0x4a>
/home/csx/share/gerrit/optee_os/lib/libutils/isoc/bget_malloc.c:883 (discriminator 1)
    2a72:	4b2c      	ldr	r3, [pc, #176]	; (2b24 <malloc_add_pool+0xe4>)
    2a74:	447b      	add	r3, pc
    2a76:	4618      	mov	r0, r3
    2a78:	4b2b      	ldr	r3, [pc, #172]	; (2b28 <malloc_add_pool+0xe8>)
    2a7a:	447b      	add	r3, pc
    2a7c:	4619      	mov	r1, r3
    2a7e:	f240 3273 	movw	r2, #883	; 0x373
    2a82:	f7fe fbb9 	bl	11f8 <_assert_log>
    2a86:	f7fe fbcd 	bl	1224 <_assert_break>
/home/csx/share/gerrit/optee_os/lib/libutils/isoc/bget_malloc.c:885
    2a8a:	f7ff fa85 	bl	1f98 <malloc_lock>
/home/csx/share/gerrit/optee_os/lib/libutils/isoc/bget_malloc.c:886
    2a8e:	6979      	ldr	r1, [r7, #20]
    2a90:	693a      	ldr	r2, [r7, #16]
    2a92:	697b      	ldr	r3, [r7, #20]
    2a94:	1ad3      	subs	r3, r2, r3
    2a96:	4608      	mov	r0, r1
    2a98:	4619      	mov	r1, r3
    2a9a:	f7ff f997 	bl	1dcc <bpool>
/home/csx/share/gerrit/optee_os/lib/libutils/isoc/bget_malloc.c:887
    2a9e:	4b23      	ldr	r3, [pc, #140]	; (2b2c <malloc_add_pool+0xec>)
    2aa0:	447b      	add	r3, pc
    2aa2:	681b      	ldr	r3, [r3, #0]
    2aa4:	3301      	adds	r3, #1
    2aa6:	60fb      	str	r3, [r7, #12]
/home/csx/share/gerrit/optee_os/lib/libutils/isoc/bget_malloc.c:888
    2aa8:	4b21      	ldr	r3, [pc, #132]	; (2b30 <malloc_add_pool+0xf0>)
    2aaa:	447b      	add	r3, pc
    2aac:	681a      	ldr	r2, [r3, #0]
    2aae:	68fb      	ldr	r3, [r7, #12]
    2ab0:	00db      	lsls	r3, r3, #3
    2ab2:	4610      	mov	r0, r2
    2ab4:	4619      	mov	r1, r3
    2ab6:	f7ff ff75 	bl	29a4 <realloc_unlocked>
    2aba:	60b8      	str	r0, [r7, #8]
/home/csx/share/gerrit/optee_os/lib/libutils/isoc/bget_malloc.c:889
    2abc:	68bb      	ldr	r3, [r7, #8]
    2abe:	2b00      	cmp	r3, #0
    2ac0:	d10b      	bne.n	2ada <malloc_add_pool+0x9a>
/home/csx/share/gerrit/optee_os/lib/libutils/isoc/bget_malloc.c:889 (discriminator 1)
    2ac2:	4b1c      	ldr	r3, [pc, #112]	; (2b34 <malloc_add_pool+0xf4>)
    2ac4:	447b      	add	r3, pc
    2ac6:	4618      	mov	r0, r3
    2ac8:	4b1b      	ldr	r3, [pc, #108]	; (2b38 <malloc_add_pool+0xf8>)
    2aca:	447b      	add	r3, pc
    2acc:	4619      	mov	r1, r3
    2ace:	f240 3279 	movw	r2, #889	; 0x379
    2ad2:	f7fe fb91 	bl	11f8 <_assert_log>
    2ad6:	f7fe fba5 	bl	1224 <_assert_break>
/home/csx/share/gerrit/optee_os/lib/libutils/isoc/bget_malloc.c:890
    2ada:	4b18      	ldr	r3, [pc, #96]	; (2b3c <malloc_add_pool+0xfc>)
    2adc:	447b      	add	r3, pc
    2ade:	461a      	mov	r2, r3
    2ae0:	68bb      	ldr	r3, [r7, #8]
    2ae2:	6013      	str	r3, [r2, #0]
/home/csx/share/gerrit/optee_os/lib/libutils/isoc/bget_malloc.c:891
    2ae4:	4b16      	ldr	r3, [pc, #88]	; (2b40 <malloc_add_pool+0x100>)
    2ae6:	447b      	add	r3, pc
    2ae8:	681a      	ldr	r2, [r3, #0]
    2aea:	4b16      	ldr	r3, [pc, #88]	; (2b44 <malloc_add_pool+0x104>)
    2aec:	447b      	add	r3, pc
    2aee:	681b      	ldr	r3, [r3, #0]
    2af0:	00db      	lsls	r3, r3, #3
    2af2:	4413      	add	r3, r2
    2af4:	697a      	ldr	r2, [r7, #20]
    2af6:	601a      	str	r2, [r3, #0]
/home/csx/share/gerrit/optee_os/lib/libutils/isoc/bget_malloc.c:892
    2af8:	4b13      	ldr	r3, [pc, #76]	; (2b48 <malloc_add_pool+0x108>)
    2afa:	447b      	add	r3, pc
    2afc:	681a      	ldr	r2, [r3, #0]
    2afe:	4b13      	ldr	r3, [pc, #76]	; (2b4c <malloc_add_pool+0x10c>)
    2b00:	447b      	add	r3, pc
    2b02:	681b      	ldr	r3, [r3, #0]
    2b04:	00db      	lsls	r3, r3, #3
    2b06:	4413      	add	r3, r2
    2b08:	6939      	ldr	r1, [r7, #16]
    2b0a:	697a      	ldr	r2, [r7, #20]
    2b0c:	1a8a      	subs	r2, r1, r2
    2b0e:	605a      	str	r2, [r3, #4]
/home/csx/share/gerrit/optee_os/lib/libutils/isoc/bget_malloc.c:893
    2b10:	4b0f      	ldr	r3, [pc, #60]	; (2b50 <malloc_add_pool+0x110>)
    2b12:	447b      	add	r3, pc
    2b14:	461a      	mov	r2, r3
    2b16:	68fb      	ldr	r3, [r7, #12]
    2b18:	6013      	str	r3, [r2, #0]
/home/csx/share/gerrit/optee_os/lib/libutils/isoc/bget_malloc.c:894
    2b1a:	f7ff fa45 	bl	1fa8 <malloc_unlock>
/home/csx/share/gerrit/optee_os/lib/libutils/isoc/bget_malloc.c:895
    2b1e:	3718      	adds	r7, #24
    2b20:	46bd      	mov	sp, r7
    2b22:	bd80      	pop	{r7, pc}
    2b24:	000063d4 	.word	0x000063d4
    2b28:	00006252 	.word	0x00006252
    2b2c:	0001214c 	.word	0x0001214c
    2b30:	0001213e 	.word	0x0001213e
    2b34:	00006390 	.word	0x00006390
    2b38:	00006202 	.word	0x00006202
    2b3c:	0001210c 	.word	0x0001210c
    2b40:	00012102 	.word	0x00012102
    2b44:	00012100 	.word	0x00012100
    2b48:	000120ee 	.word	0x000120ee
    2b4c:	000120ec 	.word	0x000120ec
    2b50:	000120da 	.word	0x000120da

00002b54 <malloc_buffer_is_within_alloced>:
malloc_buffer_is_within_alloced():
/home/csx/share/gerrit/optee_os/lib/libutils/isoc/bget_malloc.c:898
    2b54:	e96d 7e02 	strd	r7, lr, [sp, #-8]!
    2b58:	b08c      	sub	sp, #48	; 0x30
    2b5a:	af00      	add	r7, sp, #0
    2b5c:	6078      	str	r0, [r7, #4]
    2b5e:	6039      	str	r1, [r7, #0]
/home/csx/share/gerrit/optee_os/lib/libutils/isoc/bget_malloc.c:901
    2b60:	687b      	ldr	r3, [r7, #4]
    2b62:	62bb      	str	r3, [r7, #40]	; 0x28
/home/csx/share/gerrit/optee_os/lib/libutils/isoc/bget_malloc.c:902
    2b64:	6aba      	ldr	r2, [r7, #40]	; 0x28
    2b66:	683b      	ldr	r3, [r7, #0]
    2b68:	4413      	add	r3, r2
    2b6a:	627b      	str	r3, [r7, #36]	; 0x24
/home/csx/share/gerrit/optee_os/lib/libutils/isoc/bget_malloc.c:903
    2b6c:	2300      	movs	r3, #0
    2b6e:	f887 302f 	strb.w	r3, [r7, #47]	; 0x2f
/home/csx/share/gerrit/optee_os/lib/libutils/isoc/bget_malloc.c:905
    2b72:	f7ff fa11 	bl	1f98 <malloc_lock>
/home/csx/share/gerrit/optee_os/lib/libutils/isoc/bget_malloc.c:907
    2b76:	f7ff faa1 	bl	20bc <raw_malloc_validate_pools>
/home/csx/share/gerrit/optee_os/lib/libutils/isoc/bget_malloc.c:910
    2b7a:	6aba      	ldr	r2, [r7, #40]	; 0x28
    2b7c:	6a7b      	ldr	r3, [r7, #36]	; 0x24
    2b7e:	429a      	cmp	r2, r3
    2b80:	d900      	bls.n	2b84 <malloc_buffer_is_within_alloced+0x30>
/home/csx/share/gerrit/optee_os/lib/libutils/isoc/bget_malloc.c:911
    2b82:	e028      	b.n	2bd6 <malloc_buffer_is_within_alloced+0x82>
/home/csx/share/gerrit/optee_os/lib/libutils/isoc/bget_malloc.c:913
    2b84:	f107 0314 	add.w	r3, r7, #20
    2b88:	4618      	mov	r0, r3
    2b8a:	f7ff fa9f 	bl	20cc <bpool_foreach_iterator_init>
    2b8e:	e017      	b.n	2bc0 <malloc_buffer_is_within_alloced+0x6c>
/home/csx/share/gerrit/optee_os/lib/libutils/isoc/bget_malloc.c:918
    2b90:	693a      	ldr	r2, [r7, #16]
    2b92:	f107 030c 	add.w	r3, r7, #12
    2b96:	4610      	mov	r0, r2
    2b98:	4619      	mov	r1, r3
    2b9a:	f7ff ff3f 	bl	2a1c <get_payload_start_size>
    2b9e:	6238      	str	r0, [r7, #32]
/home/csx/share/gerrit/optee_os/lib/libutils/isoc/bget_malloc.c:919
    2ba0:	68fb      	ldr	r3, [r7, #12]
    2ba2:	6a3a      	ldr	r2, [r7, #32]
    2ba4:	4413      	add	r3, r2
    2ba6:	61fb      	str	r3, [r7, #28]
/home/csx/share/gerrit/optee_os/lib/libutils/isoc/bget_malloc.c:921
    2ba8:	6aba      	ldr	r2, [r7, #40]	; 0x28
    2baa:	6a3b      	ldr	r3, [r7, #32]
    2bac:	429a      	cmp	r2, r3
    2bae:	d307      	bcc.n	2bc0 <malloc_buffer_is_within_alloced+0x6c>
/home/csx/share/gerrit/optee_os/lib/libutils/isoc/bget_malloc.c:921 (discriminator 1)
    2bb0:	6a7a      	ldr	r2, [r7, #36]	; 0x24
    2bb2:	69fb      	ldr	r3, [r7, #28]
    2bb4:	429a      	cmp	r2, r3
    2bb6:	d803      	bhi.n	2bc0 <malloc_buffer_is_within_alloced+0x6c>
/home/csx/share/gerrit/optee_os/lib/libutils/isoc/bget_malloc.c:922
    2bb8:	2301      	movs	r3, #1
    2bba:	f887 302f 	strb.w	r3, [r7, #47]	; 0x2f
    2bbe:	e00a      	b.n	2bd6 <malloc_buffer_is_within_alloced+0x82>
/home/csx/share/gerrit/optee_os/lib/libutils/isoc/bget_malloc.c:913 (discriminator 1)
    2bc0:	f107 0214 	add.w	r2, r7, #20
    2bc4:	f107 0310 	add.w	r3, r7, #16
    2bc8:	4610      	mov	r0, r2
    2bca:	4619      	mov	r1, r3
    2bcc:	f7ff faf6 	bl	21bc <bpool_foreach>
    2bd0:	4603      	mov	r3, r0
    2bd2:	2b00      	cmp	r3, #0
    2bd4:	d1dc      	bne.n	2b90 <malloc_buffer_is_within_alloced+0x3c>
/home/csx/share/gerrit/optee_os/lib/libutils/isoc/bget_malloc.c:928
    2bd6:	f7ff f9e7 	bl	1fa8 <malloc_unlock>
/home/csx/share/gerrit/optee_os/lib/libutils/isoc/bget_malloc.c:930
    2bda:	f897 302f 	ldrb.w	r3, [r7, #47]	; 0x2f
/home/csx/share/gerrit/optee_os/lib/libutils/isoc/bget_malloc.c:931
    2bde:	4618      	mov	r0, r3
    2be0:	3730      	adds	r7, #48	; 0x30
    2be2:	46bd      	mov	sp, r7
    2be4:	bd80      	pop	{r7, pc}
    2be6:	bf00      	nop

00002be8 <malloc_buffer_overlaps_heap>:
malloc_buffer_overlaps_heap():
/home/csx/share/gerrit/optee_os/lib/libutils/isoc/bget_malloc.c:934
    2be8:	e96d 7e02 	strd	r7, lr, [sp, #-8]!
    2bec:	b088      	sub	sp, #32
    2bee:	af00      	add	r7, sp, #0
    2bf0:	6078      	str	r0, [r7, #4]
    2bf2:	6039      	str	r1, [r7, #0]
/home/csx/share/gerrit/optee_os/lib/libutils/isoc/bget_malloc.c:935
    2bf4:	687b      	ldr	r3, [r7, #4]
    2bf6:	617b      	str	r3, [r7, #20]
/home/csx/share/gerrit/optee_os/lib/libutils/isoc/bget_malloc.c:936
    2bf8:	697a      	ldr	r2, [r7, #20]
    2bfa:	683b      	ldr	r3, [r7, #0]
    2bfc:	4413      	add	r3, r2
    2bfe:	613b      	str	r3, [r7, #16]
/home/csx/share/gerrit/optee_os/lib/libutils/isoc/bget_malloc.c:938
    2c00:	2300      	movs	r3, #0
    2c02:	76fb      	strb	r3, [r7, #27]
/home/csx/share/gerrit/optee_os/lib/libutils/isoc/bget_malloc.c:940
    2c04:	f7ff f9c8 	bl	1f98 <malloc_lock>
/home/csx/share/gerrit/optee_os/lib/libutils/isoc/bget_malloc.c:942
    2c08:	f7ff fa58 	bl	20bc <raw_malloc_validate_pools>
/home/csx/share/gerrit/optee_os/lib/libutils/isoc/bget_malloc.c:944
    2c0c:	2300      	movs	r3, #0
    2c0e:	61fb      	str	r3, [r7, #28]
    2c10:	e02a      	b.n	2c68 <malloc_buffer_overlaps_heap+0x80>
/home/csx/share/gerrit/optee_os/lib/libutils/isoc/bget_malloc.c:945
    2c12:	4b1c      	ldr	r3, [pc, #112]	; (2c84 <malloc_buffer_overlaps_heap+0x9c>)
    2c14:	447b      	add	r3, pc
    2c16:	681a      	ldr	r2, [r3, #0]
    2c18:	69fb      	ldr	r3, [r7, #28]
    2c1a:	00db      	lsls	r3, r3, #3
    2c1c:	4413      	add	r3, r2
    2c1e:	681b      	ldr	r3, [r3, #0]
    2c20:	60fb      	str	r3, [r7, #12]
/home/csx/share/gerrit/optee_os/lib/libutils/isoc/bget_malloc.c:946
    2c22:	4b19      	ldr	r3, [pc, #100]	; (2c88 <malloc_buffer_overlaps_heap+0xa0>)
    2c24:	447b      	add	r3, pc
    2c26:	681a      	ldr	r2, [r3, #0]
    2c28:	69fb      	ldr	r3, [r7, #28]
    2c2a:	00db      	lsls	r3, r3, #3
    2c2c:	4413      	add	r3, r2
    2c2e:	685a      	ldr	r2, [r3, #4]
    2c30:	68fb      	ldr	r3, [r7, #12]
    2c32:	4413      	add	r3, r2
    2c34:	60bb      	str	r3, [r7, #8]
/home/csx/share/gerrit/optee_os/lib/libutils/isoc/bget_malloc.c:948
    2c36:	697a      	ldr	r2, [r7, #20]
    2c38:	693b      	ldr	r3, [r7, #16]
    2c3a:	429a      	cmp	r2, r3
    2c3c:	d803      	bhi.n	2c46 <malloc_buffer_overlaps_heap+0x5e>
/home/csx/share/gerrit/optee_os/lib/libutils/isoc/bget_malloc.c:948 (discriminator 1)
    2c3e:	68fa      	ldr	r2, [r7, #12]
    2c40:	68bb      	ldr	r3, [r7, #8]
    2c42:	429a      	cmp	r2, r3
    2c44:	d902      	bls.n	2c4c <malloc_buffer_overlaps_heap+0x64>
/home/csx/share/gerrit/optee_os/lib/libutils/isoc/bget_malloc.c:949
    2c46:	2301      	movs	r3, #1
    2c48:	76fb      	strb	r3, [r7, #27]
/home/csx/share/gerrit/optee_os/lib/libutils/isoc/bget_malloc.c:950
    2c4a:	e013      	b.n	2c74 <malloc_buffer_overlaps_heap+0x8c>
/home/csx/share/gerrit/optee_os/lib/libutils/isoc/bget_malloc.c:953
    2c4c:	693a      	ldr	r2, [r7, #16]
    2c4e:	68fb      	ldr	r3, [r7, #12]
    2c50:	429a      	cmp	r2, r3
    2c52:	d803      	bhi.n	2c5c <malloc_buffer_overlaps_heap+0x74>
/home/csx/share/gerrit/optee_os/lib/libutils/isoc/bget_malloc.c:953 (discriminator 1)
    2c54:	697a      	ldr	r2, [r7, #20]
    2c56:	68bb      	ldr	r3, [r7, #8]
    2c58:	429a      	cmp	r2, r3
    2c5a:	d202      	bcs.n	2c62 <malloc_buffer_overlaps_heap+0x7a>
/home/csx/share/gerrit/optee_os/lib/libutils/isoc/bget_malloc.c:954
    2c5c:	2301      	movs	r3, #1
    2c5e:	76fb      	strb	r3, [r7, #27]
/home/csx/share/gerrit/optee_os/lib/libutils/isoc/bget_malloc.c:955
    2c60:	e008      	b.n	2c74 <malloc_buffer_overlaps_heap+0x8c>
/home/csx/share/gerrit/optee_os/lib/libutils/isoc/bget_malloc.c:944 (discriminator 2)
    2c62:	69fb      	ldr	r3, [r7, #28]
    2c64:	3301      	adds	r3, #1
    2c66:	61fb      	str	r3, [r7, #28]
/home/csx/share/gerrit/optee_os/lib/libutils/isoc/bget_malloc.c:944 (discriminator 1)
    2c68:	4b08      	ldr	r3, [pc, #32]	; (2c8c <malloc_buffer_overlaps_heap+0xa4>)
    2c6a:	447b      	add	r3, pc
    2c6c:	681b      	ldr	r3, [r3, #0]
    2c6e:	69fa      	ldr	r2, [r7, #28]
    2c70:	429a      	cmp	r2, r3
    2c72:	d3ce      	bcc.n	2c12 <malloc_buffer_overlaps_heap+0x2a>
/home/csx/share/gerrit/optee_os/lib/libutils/isoc/bget_malloc.c:960
    2c74:	f7ff f998 	bl	1fa8 <malloc_unlock>
/home/csx/share/gerrit/optee_os/lib/libutils/isoc/bget_malloc.c:961
    2c78:	7efb      	ldrb	r3, [r7, #27]
/home/csx/share/gerrit/optee_os/lib/libutils/isoc/bget_malloc.c:962
    2c7a:	4618      	mov	r0, r3
    2c7c:	3720      	adds	r7, #32
    2c7e:	46bd      	mov	sp, r7
    2c80:	bd80      	pop	{r7, pc}
    2c82:	bf00      	nop
    2c84:	00011fd4 	.word	0x00011fd4
    2c88:	00011fc4 	.word	0x00011fc4
    2c8c:	00011f82 	.word	0x00011f82

00002c90 <snprintf>:
snprintf():
/home/csx/share/gerrit/optee_os/lib/libutils/isoc/snprintf.c:32
    2c90:	b40c      	push	{r2, r3}
    2c92:	e96d 7e02 	strd	r7, lr, [sp, #-8]!
    2c96:	b086      	sub	sp, #24
    2c98:	af02      	add	r7, sp, #8
    2c9a:	6078      	str	r0, [r7, #4]
    2c9c:	6039      	str	r1, [r7, #0]
/home/csx/share/gerrit/optee_os/lib/libutils/isoc/snprintf.c:36
    2c9e:	f107 031c 	add.w	r3, r7, #28
    2ca2:	60bb      	str	r3, [r7, #8]
/home/csx/share/gerrit/optee_os/lib/libutils/isoc/snprintf.c:37
    2ca4:	2300      	movs	r3, #0
    2ca6:	9300      	str	r3, [sp, #0]
    2ca8:	6878      	ldr	r0, [r7, #4]
    2caa:	6839      	ldr	r1, [r7, #0]
    2cac:	69ba      	ldr	r2, [r7, #24]
    2cae:	68bb      	ldr	r3, [r7, #8]
    2cb0:	f000 fa50 	bl	3154 <__vsnprintf>
    2cb4:	60f8      	str	r0, [r7, #12]
/home/csx/share/gerrit/optee_os/lib/libutils/isoc/snprintf.c:40
    2cb6:	68fb      	ldr	r3, [r7, #12]
/home/csx/share/gerrit/optee_os/lib/libutils/isoc/snprintf.c:41
    2cb8:	4618      	mov	r0, r3
    2cba:	3710      	adds	r7, #16
    2cbc:	46bd      	mov	sp, r7
    2cbe:	e9dd 7e00 	ldrd	r7, lr, [sp]
    2cc2:	b002      	add	sp, #8
    2cc4:	b002      	add	sp, #8
    2cc6:	4770      	bx	lr

00002cc8 <vsnprintf>:
vsnprintf():
/home/csx/share/gerrit/optee_os/lib/libutils/isoc/snprintf.c:44
    2cc8:	e96d 7e02 	strd	r7, lr, [sp, #-8]!
    2ccc:	b086      	sub	sp, #24
    2cce:	af02      	add	r7, sp, #8
    2cd0:	60f8      	str	r0, [r7, #12]
    2cd2:	60b9      	str	r1, [r7, #8]
    2cd4:	607a      	str	r2, [r7, #4]
    2cd6:	603b      	str	r3, [r7, #0]
/home/csx/share/gerrit/optee_os/lib/libutils/isoc/snprintf.c:45
    2cd8:	2300      	movs	r3, #0
    2cda:	9300      	str	r3, [sp, #0]
    2cdc:	68f8      	ldr	r0, [r7, #12]
    2cde:	68b9      	ldr	r1, [r7, #8]
    2ce0:	687a      	ldr	r2, [r7, #4]
    2ce2:	683b      	ldr	r3, [r7, #0]
    2ce4:	f000 fa36 	bl	3154 <__vsnprintf>
    2ce8:	4603      	mov	r3, r0
/home/csx/share/gerrit/optee_os/lib/libutils/isoc/snprintf.c:46
    2cea:	4618      	mov	r0, r3
    2cec:	3710      	adds	r7, #16
    2cee:	46bd      	mov	sp, r7
    2cf0:	bd80      	pop	{r7, pc}
    2cf2:	bf00      	nop

00002cf4 <memcmp>:
memcmp():
/home/csx/share/gerrit/optee_os/lib/libutils/isoc/newlib/memcmp.c:84
    2cf4:	f84d 7d04 	str.w	r7, [sp, #-4]!
    2cf8:	b089      	sub	sp, #36	; 0x24
    2cfa:	af00      	add	r7, sp, #0
    2cfc:	60f8      	str	r0, [r7, #12]
    2cfe:	60b9      	str	r1, [r7, #8]
    2d00:	607a      	str	r2, [r7, #4]
/home/csx/share/gerrit/optee_os/lib/libutils/isoc/newlib/memcmp.c:97
    2d02:	68fb      	ldr	r3, [r7, #12]
    2d04:	61fb      	str	r3, [r7, #28]
/home/csx/share/gerrit/optee_os/lib/libutils/isoc/newlib/memcmp.c:98
    2d06:	68bb      	ldr	r3, [r7, #8]
    2d08:	61bb      	str	r3, [r7, #24]
/home/csx/share/gerrit/optee_os/lib/libutils/isoc/newlib/memcmp.c:105
    2d0a:	687b      	ldr	r3, [r7, #4]
    2d0c:	2b03      	cmp	r3, #3
    2d0e:	d922      	bls.n	2d56 <memcmp+0x62>
/home/csx/share/gerrit/optee_os/lib/libutils/isoc/newlib/memcmp.c:105 (discriminator 1)
    2d10:	69fa      	ldr	r2, [r7, #28]
    2d12:	69bb      	ldr	r3, [r7, #24]
    2d14:	4313      	orrs	r3, r2
    2d16:	f003 0303 	and.w	r3, r3, #3
    2d1a:	2b00      	cmp	r3, #0
    2d1c:	d11b      	bne.n	2d56 <memcmp+0x62>
/home/csx/share/gerrit/optee_os/lib/libutils/isoc/newlib/memcmp.c:110
    2d1e:	69fb      	ldr	r3, [r7, #28]
    2d20:	617b      	str	r3, [r7, #20]
/home/csx/share/gerrit/optee_os/lib/libutils/isoc/newlib/memcmp.c:111
    2d22:	69bb      	ldr	r3, [r7, #24]
    2d24:	613b      	str	r3, [r7, #16]
/home/csx/share/gerrit/optee_os/lib/libutils/isoc/newlib/memcmp.c:112
    2d26:	e00f      	b.n	2d48 <memcmp+0x54>
/home/csx/share/gerrit/optee_os/lib/libutils/isoc/newlib/memcmp.c:113
    2d28:	697b      	ldr	r3, [r7, #20]
    2d2a:	681a      	ldr	r2, [r3, #0]
    2d2c:	693b      	ldr	r3, [r7, #16]
    2d2e:	681b      	ldr	r3, [r3, #0]
    2d30:	429a      	cmp	r2, r3
    2d32:	d000      	beq.n	2d36 <memcmp+0x42>
/home/csx/share/gerrit/optee_os/lib/libutils/isoc/newlib/memcmp.c:114
    2d34:	e00b      	b.n	2d4e <memcmp+0x5a>
/home/csx/share/gerrit/optee_os/lib/libutils/isoc/newlib/memcmp.c:115
    2d36:	697b      	ldr	r3, [r7, #20]
    2d38:	3304      	adds	r3, #4
    2d3a:	617b      	str	r3, [r7, #20]
/home/csx/share/gerrit/optee_os/lib/libutils/isoc/newlib/memcmp.c:116
    2d3c:	693b      	ldr	r3, [r7, #16]
    2d3e:	3304      	adds	r3, #4
    2d40:	613b      	str	r3, [r7, #16]
/home/csx/share/gerrit/optee_os/lib/libutils/isoc/newlib/memcmp.c:117
    2d42:	687b      	ldr	r3, [r7, #4]
    2d44:	3b04      	subs	r3, #4
    2d46:	607b      	str	r3, [r7, #4]
/home/csx/share/gerrit/optee_os/lib/libutils/isoc/newlib/memcmp.c:112
    2d48:	687b      	ldr	r3, [r7, #4]
    2d4a:	2b03      	cmp	r3, #3
    2d4c:	d8ec      	bhi.n	2d28 <memcmp+0x34>
/home/csx/share/gerrit/optee_os/lib/libutils/isoc/newlib/memcmp.c:122
    2d4e:	697b      	ldr	r3, [r7, #20]
    2d50:	61fb      	str	r3, [r7, #28]
/home/csx/share/gerrit/optee_os/lib/libutils/isoc/newlib/memcmp.c:123
    2d52:	693b      	ldr	r3, [r7, #16]
    2d54:	61bb      	str	r3, [r7, #24]
/home/csx/share/gerrit/optee_os/lib/libutils/isoc/newlib/memcmp.c:126
    2d56:	e012      	b.n	2d7e <memcmp+0x8a>
/home/csx/share/gerrit/optee_os/lib/libutils/isoc/newlib/memcmp.c:127
    2d58:	69fb      	ldr	r3, [r7, #28]
    2d5a:	781a      	ldrb	r2, [r3, #0]
    2d5c:	69bb      	ldr	r3, [r7, #24]
    2d5e:	781b      	ldrb	r3, [r3, #0]
    2d60:	429a      	cmp	r2, r3
    2d62:	d006      	beq.n	2d72 <memcmp+0x7e>
/home/csx/share/gerrit/optee_os/lib/libutils/isoc/newlib/memcmp.c:128
    2d64:	69fb      	ldr	r3, [r7, #28]
    2d66:	781b      	ldrb	r3, [r3, #0]
    2d68:	461a      	mov	r2, r3
    2d6a:	69bb      	ldr	r3, [r7, #24]
    2d6c:	781b      	ldrb	r3, [r3, #0]
    2d6e:	1ad3      	subs	r3, r2, r3
    2d70:	e00b      	b.n	2d8a <memcmp+0x96>
/home/csx/share/gerrit/optee_os/lib/libutils/isoc/newlib/memcmp.c:129
    2d72:	69fb      	ldr	r3, [r7, #28]
    2d74:	3301      	adds	r3, #1
    2d76:	61fb      	str	r3, [r7, #28]
/home/csx/share/gerrit/optee_os/lib/libutils/isoc/newlib/memcmp.c:130
    2d78:	69bb      	ldr	r3, [r7, #24]
    2d7a:	3301      	adds	r3, #1
    2d7c:	61bb      	str	r3, [r7, #24]
/home/csx/share/gerrit/optee_os/lib/libutils/isoc/newlib/memcmp.c:126
    2d7e:	687b      	ldr	r3, [r7, #4]
    2d80:	1e5a      	subs	r2, r3, #1
    2d82:	607a      	str	r2, [r7, #4]
    2d84:	2b00      	cmp	r3, #0
    2d86:	d1e7      	bne.n	2d58 <memcmp+0x64>
/home/csx/share/gerrit/optee_os/lib/libutils/isoc/newlib/memcmp.c:133
    2d88:	2300      	movs	r3, #0
/home/csx/share/gerrit/optee_os/lib/libutils/isoc/newlib/memcmp.c:135
    2d8a:	4618      	mov	r0, r3
    2d8c:	3724      	adds	r7, #36	; 0x24
    2d8e:	46bd      	mov	sp, r7
    2d90:	f85d 7b04 	ldr.w	r7, [sp], #4
    2d94:	4770      	bx	lr
    2d96:	bf00      	nop

00002d98 <memcpy>:
memcpy():
/home/csx/share/gerrit/optee_os/lib/libutils/isoc/newlib/memcpy.c:86
    2d98:	f84d 7d04 	str.w	r7, [sp, #-4]!
    2d9c:	b089      	sub	sp, #36	; 0x24
    2d9e:	af00      	add	r7, sp, #0
    2da0:	60f8      	str	r0, [r7, #12]
    2da2:	60b9      	str	r1, [r7, #8]
    2da4:	607a      	str	r2, [r7, #4]
/home/csx/share/gerrit/optee_os/lib/libutils/isoc/newlib/memcpy.c:98
    2da6:	68fb      	ldr	r3, [r7, #12]
    2da8:	61fb      	str	r3, [r7, #28]
/home/csx/share/gerrit/optee_os/lib/libutils/isoc/newlib/memcpy.c:99
    2daa:	68bb      	ldr	r3, [r7, #8]
    2dac:	61bb      	str	r3, [r7, #24]
/home/csx/share/gerrit/optee_os/lib/libutils/isoc/newlib/memcpy.c:105
    2dae:	687b      	ldr	r3, [r7, #4]
    2db0:	2b0f      	cmp	r3, #15
    2db2:	d944      	bls.n	2e3e <memcpy+0xa6>
/home/csx/share/gerrit/optee_os/lib/libutils/isoc/newlib/memcpy.c:105 (discriminator 1)
    2db4:	69ba      	ldr	r2, [r7, #24]
    2db6:	69fb      	ldr	r3, [r7, #28]
    2db8:	4313      	orrs	r3, r2
    2dba:	f003 0303 	and.w	r3, r3, #3
    2dbe:	2b00      	cmp	r3, #0
    2dc0:	d13d      	bne.n	2e3e <memcpy+0xa6>
/home/csx/share/gerrit/optee_os/lib/libutils/isoc/newlib/memcpy.c:106
    2dc2:	69fb      	ldr	r3, [r7, #28]
    2dc4:	617b      	str	r3, [r7, #20]
/home/csx/share/gerrit/optee_os/lib/libutils/isoc/newlib/memcpy.c:107
    2dc6:	69bb      	ldr	r3, [r7, #24]
    2dc8:	613b      	str	r3, [r7, #16]
/home/csx/share/gerrit/optee_os/lib/libutils/isoc/newlib/memcpy.c:110
    2dca:	e022      	b.n	2e12 <memcpy+0x7a>
/home/csx/share/gerrit/optee_os/lib/libutils/isoc/newlib/memcpy.c:111
    2dcc:	697b      	ldr	r3, [r7, #20]
    2dce:	1d1a      	adds	r2, r3, #4
    2dd0:	617a      	str	r2, [r7, #20]
    2dd2:	693a      	ldr	r2, [r7, #16]
    2dd4:	1d11      	adds	r1, r2, #4
    2dd6:	6139      	str	r1, [r7, #16]
    2dd8:	6812      	ldr	r2, [r2, #0]
    2dda:	601a      	str	r2, [r3, #0]
/home/csx/share/gerrit/optee_os/lib/libutils/isoc/newlib/memcpy.c:112
    2ddc:	697b      	ldr	r3, [r7, #20]
    2dde:	1d1a      	adds	r2, r3, #4
    2de0:	617a      	str	r2, [r7, #20]
    2de2:	693a      	ldr	r2, [r7, #16]
    2de4:	1d11      	adds	r1, r2, #4
    2de6:	6139      	str	r1, [r7, #16]
    2de8:	6812      	ldr	r2, [r2, #0]
    2dea:	601a      	str	r2, [r3, #0]
/home/csx/share/gerrit/optee_os/lib/libutils/isoc/newlib/memcpy.c:113
    2dec:	697b      	ldr	r3, [r7, #20]
    2dee:	1d1a      	adds	r2, r3, #4
    2df0:	617a      	str	r2, [r7, #20]
    2df2:	693a      	ldr	r2, [r7, #16]
    2df4:	1d11      	adds	r1, r2, #4
    2df6:	6139      	str	r1, [r7, #16]
    2df8:	6812      	ldr	r2, [r2, #0]
    2dfa:	601a      	str	r2, [r3, #0]
/home/csx/share/gerrit/optee_os/lib/libutils/isoc/newlib/memcpy.c:114
    2dfc:	697b      	ldr	r3, [r7, #20]
    2dfe:	1d1a      	adds	r2, r3, #4
    2e00:	617a      	str	r2, [r7, #20]
    2e02:	693a      	ldr	r2, [r7, #16]
    2e04:	1d11      	adds	r1, r2, #4
    2e06:	6139      	str	r1, [r7, #16]
    2e08:	6812      	ldr	r2, [r2, #0]
    2e0a:	601a      	str	r2, [r3, #0]
/home/csx/share/gerrit/optee_os/lib/libutils/isoc/newlib/memcpy.c:115
    2e0c:	687b      	ldr	r3, [r7, #4]
    2e0e:	3b10      	subs	r3, #16
    2e10:	607b      	str	r3, [r7, #4]
/home/csx/share/gerrit/optee_os/lib/libutils/isoc/newlib/memcpy.c:110
    2e12:	687b      	ldr	r3, [r7, #4]
    2e14:	2b0f      	cmp	r3, #15
    2e16:	d8d9      	bhi.n	2dcc <memcpy+0x34>
/home/csx/share/gerrit/optee_os/lib/libutils/isoc/newlib/memcpy.c:119
    2e18:	e00a      	b.n	2e30 <memcpy+0x98>
/home/csx/share/gerrit/optee_os/lib/libutils/isoc/newlib/memcpy.c:120
    2e1a:	697b      	ldr	r3, [r7, #20]
    2e1c:	1d1a      	adds	r2, r3, #4
    2e1e:	617a      	str	r2, [r7, #20]
    2e20:	693a      	ldr	r2, [r7, #16]
    2e22:	1d11      	adds	r1, r2, #4
    2e24:	6139      	str	r1, [r7, #16]
    2e26:	6812      	ldr	r2, [r2, #0]
    2e28:	601a      	str	r2, [r3, #0]
/home/csx/share/gerrit/optee_os/lib/libutils/isoc/newlib/memcpy.c:121
    2e2a:	687b      	ldr	r3, [r7, #4]
    2e2c:	3b04      	subs	r3, #4
    2e2e:	607b      	str	r3, [r7, #4]
/home/csx/share/gerrit/optee_os/lib/libutils/isoc/newlib/memcpy.c:119
    2e30:	687b      	ldr	r3, [r7, #4]
    2e32:	2b03      	cmp	r3, #3
    2e34:	d8f1      	bhi.n	2e1a <memcpy+0x82>
/home/csx/share/gerrit/optee_os/lib/libutils/isoc/newlib/memcpy.c:125
    2e36:	697b      	ldr	r3, [r7, #20]
    2e38:	61fb      	str	r3, [r7, #28]
/home/csx/share/gerrit/optee_os/lib/libutils/isoc/newlib/memcpy.c:126
    2e3a:	693b      	ldr	r3, [r7, #16]
    2e3c:	61bb      	str	r3, [r7, #24]
/home/csx/share/gerrit/optee_os/lib/libutils/isoc/newlib/memcpy.c:129
    2e3e:	e007      	b.n	2e50 <memcpy+0xb8>
/home/csx/share/gerrit/optee_os/lib/libutils/isoc/newlib/memcpy.c:130
    2e40:	69fb      	ldr	r3, [r7, #28]
    2e42:	1c5a      	adds	r2, r3, #1
    2e44:	61fa      	str	r2, [r7, #28]
    2e46:	69ba      	ldr	r2, [r7, #24]
    2e48:	1c51      	adds	r1, r2, #1
    2e4a:	61b9      	str	r1, [r7, #24]
    2e4c:	7812      	ldrb	r2, [r2, #0]
    2e4e:	701a      	strb	r2, [r3, #0]
/home/csx/share/gerrit/optee_os/lib/libutils/isoc/newlib/memcpy.c:129
    2e50:	687b      	ldr	r3, [r7, #4]
    2e52:	1e5a      	subs	r2, r3, #1
    2e54:	607a      	str	r2, [r7, #4]
    2e56:	2b00      	cmp	r3, #0
    2e58:	d1f2      	bne.n	2e40 <memcpy+0xa8>
/home/csx/share/gerrit/optee_os/lib/libutils/isoc/newlib/memcpy.c:132
    2e5a:	68fb      	ldr	r3, [r7, #12]
/home/csx/share/gerrit/optee_os/lib/libutils/isoc/newlib/memcpy.c:134
    2e5c:	4618      	mov	r0, r3
    2e5e:	3724      	adds	r7, #36	; 0x24
    2e60:	46bd      	mov	sp, r7
    2e62:	f85d 7b04 	ldr.w	r7, [sp], #4
    2e66:	4770      	bx	lr

00002e68 <memmove>:
memmove():
/home/csx/share/gerrit/optee_os/lib/libutils/isoc/newlib/memmove.c:90
    2e68:	f84d 7d04 	str.w	r7, [sp, #-4]!
    2e6c:	b089      	sub	sp, #36	; 0x24
    2e6e:	af00      	add	r7, sp, #0
    2e70:	60f8      	str	r0, [r7, #12]
    2e72:	60b9      	str	r1, [r7, #8]
    2e74:	607a      	str	r2, [r7, #4]
/home/csx/share/gerrit/optee_os/lib/libutils/isoc/newlib/memmove.c:108
    2e76:	68fb      	ldr	r3, [r7, #12]
    2e78:	61fb      	str	r3, [r7, #28]
/home/csx/share/gerrit/optee_os/lib/libutils/isoc/newlib/memmove.c:109
    2e7a:	68bb      	ldr	r3, [r7, #8]
    2e7c:	61bb      	str	r3, [r7, #24]
/home/csx/share/gerrit/optee_os/lib/libutils/isoc/newlib/memmove.c:113
    2e7e:	69ba      	ldr	r2, [r7, #24]
    2e80:	69fb      	ldr	r3, [r7, #28]
    2e82:	429a      	cmp	r2, r3
    2e84:	d21e      	bcs.n	2ec4 <memmove+0x5c>
/home/csx/share/gerrit/optee_os/lib/libutils/isoc/newlib/memmove.c:113 (discriminator 1)
    2e86:	69ba      	ldr	r2, [r7, #24]
    2e88:	687b      	ldr	r3, [r7, #4]
    2e8a:	441a      	add	r2, r3
    2e8c:	69fb      	ldr	r3, [r7, #28]
    2e8e:	429a      	cmp	r2, r3
    2e90:	d918      	bls.n	2ec4 <memmove+0x5c>
/home/csx/share/gerrit/optee_os/lib/libutils/isoc/newlib/memmove.c:115
    2e92:	69ba      	ldr	r2, [r7, #24]
    2e94:	687b      	ldr	r3, [r7, #4]
    2e96:	4413      	add	r3, r2
    2e98:	61bb      	str	r3, [r7, #24]
/home/csx/share/gerrit/optee_os/lib/libutils/isoc/newlib/memmove.c:116
    2e9a:	69fa      	ldr	r2, [r7, #28]
    2e9c:	687b      	ldr	r3, [r7, #4]
    2e9e:	4413      	add	r3, r2
    2ea0:	61fb      	str	r3, [r7, #28]
/home/csx/share/gerrit/optee_os/lib/libutils/isoc/newlib/memmove.c:117
    2ea2:	e009      	b.n	2eb8 <memmove+0x50>
/home/csx/share/gerrit/optee_os/lib/libutils/isoc/newlib/memmove.c:118
    2ea4:	69fb      	ldr	r3, [r7, #28]
    2ea6:	3b01      	subs	r3, #1
    2ea8:	61fb      	str	r3, [r7, #28]
    2eaa:	69bb      	ldr	r3, [r7, #24]
    2eac:	3b01      	subs	r3, #1
    2eae:	61bb      	str	r3, [r7, #24]
    2eb0:	69bb      	ldr	r3, [r7, #24]
    2eb2:	781a      	ldrb	r2, [r3, #0]
    2eb4:	69fb      	ldr	r3, [r7, #28]
    2eb6:	701a      	strb	r2, [r3, #0]
/home/csx/share/gerrit/optee_os/lib/libutils/isoc/newlib/memmove.c:117
    2eb8:	687b      	ldr	r3, [r7, #4]
    2eba:	1e5a      	subs	r2, r3, #1
    2ebc:	607a      	str	r2, [r7, #4]
    2ebe:	2b00      	cmp	r3, #0
    2ec0:	d1f0      	bne.n	2ea4 <memmove+0x3c>
/home/csx/share/gerrit/optee_os/lib/libutils/isoc/newlib/memmove.c:113
    2ec2:	e055      	b.n	2f70 <memmove+0x108>
/home/csx/share/gerrit/optee_os/lib/libutils/isoc/newlib/memmove.c:126
    2ec4:	687b      	ldr	r3, [r7, #4]
    2ec6:	2b0f      	cmp	r3, #15
    2ec8:	d944      	bls.n	2f54 <memmove+0xec>
/home/csx/share/gerrit/optee_os/lib/libutils/isoc/newlib/memmove.c:126 (discriminator 1)
    2eca:	69ba      	ldr	r2, [r7, #24]
    2ecc:	69fb      	ldr	r3, [r7, #28]
    2ece:	4313      	orrs	r3, r2
    2ed0:	f003 0303 	and.w	r3, r3, #3
    2ed4:	2b00      	cmp	r3, #0
    2ed6:	d13d      	bne.n	2f54 <memmove+0xec>
/home/csx/share/gerrit/optee_os/lib/libutils/isoc/newlib/memmove.c:127
    2ed8:	69fb      	ldr	r3, [r7, #28]
    2eda:	617b      	str	r3, [r7, #20]
/home/csx/share/gerrit/optee_os/lib/libutils/isoc/newlib/memmove.c:128
    2edc:	69bb      	ldr	r3, [r7, #24]
    2ede:	613b      	str	r3, [r7, #16]
/home/csx/share/gerrit/optee_os/lib/libutils/isoc/newlib/memmove.c:131
    2ee0:	e022      	b.n	2f28 <memmove+0xc0>
/home/csx/share/gerrit/optee_os/lib/libutils/isoc/newlib/memmove.c:132
    2ee2:	697b      	ldr	r3, [r7, #20]
    2ee4:	1d1a      	adds	r2, r3, #4
    2ee6:	617a      	str	r2, [r7, #20]
    2ee8:	693a      	ldr	r2, [r7, #16]
    2eea:	1d11      	adds	r1, r2, #4
    2eec:	6139      	str	r1, [r7, #16]
    2eee:	6812      	ldr	r2, [r2, #0]
    2ef0:	601a      	str	r2, [r3, #0]
/home/csx/share/gerrit/optee_os/lib/libutils/isoc/newlib/memmove.c:133
    2ef2:	697b      	ldr	r3, [r7, #20]
    2ef4:	1d1a      	adds	r2, r3, #4
    2ef6:	617a      	str	r2, [r7, #20]
    2ef8:	693a      	ldr	r2, [r7, #16]
    2efa:	1d11      	adds	r1, r2, #4
    2efc:	6139      	str	r1, [r7, #16]
    2efe:	6812      	ldr	r2, [r2, #0]
    2f00:	601a      	str	r2, [r3, #0]
/home/csx/share/gerrit/optee_os/lib/libutils/isoc/newlib/memmove.c:134
    2f02:	697b      	ldr	r3, [r7, #20]
    2f04:	1d1a      	adds	r2, r3, #4
    2f06:	617a      	str	r2, [r7, #20]
    2f08:	693a      	ldr	r2, [r7, #16]
    2f0a:	1d11      	adds	r1, r2, #4
    2f0c:	6139      	str	r1, [r7, #16]
    2f0e:	6812      	ldr	r2, [r2, #0]
    2f10:	601a      	str	r2, [r3, #0]
/home/csx/share/gerrit/optee_os/lib/libutils/isoc/newlib/memmove.c:135
    2f12:	697b      	ldr	r3, [r7, #20]
    2f14:	1d1a      	adds	r2, r3, #4
    2f16:	617a      	str	r2, [r7, #20]
    2f18:	693a      	ldr	r2, [r7, #16]
    2f1a:	1d11      	adds	r1, r2, #4
    2f1c:	6139      	str	r1, [r7, #16]
    2f1e:	6812      	ldr	r2, [r2, #0]
    2f20:	601a      	str	r2, [r3, #0]
/home/csx/share/gerrit/optee_os/lib/libutils/isoc/newlib/memmove.c:136
    2f22:	687b      	ldr	r3, [r7, #4]
    2f24:	3b10      	subs	r3, #16
    2f26:	607b      	str	r3, [r7, #4]
/home/csx/share/gerrit/optee_os/lib/libutils/isoc/newlib/memmove.c:131
    2f28:	687b      	ldr	r3, [r7, #4]
    2f2a:	2b0f      	cmp	r3, #15
    2f2c:	d8d9      	bhi.n	2ee2 <memmove+0x7a>
/home/csx/share/gerrit/optee_os/lib/libutils/isoc/newlib/memmove.c:140
    2f2e:	e00a      	b.n	2f46 <memmove+0xde>
/home/csx/share/gerrit/optee_os/lib/libutils/isoc/newlib/memmove.c:141
    2f30:	697b      	ldr	r3, [r7, #20]
    2f32:	1d1a      	adds	r2, r3, #4
    2f34:	617a      	str	r2, [r7, #20]
    2f36:	693a      	ldr	r2, [r7, #16]
    2f38:	1d11      	adds	r1, r2, #4
    2f3a:	6139      	str	r1, [r7, #16]
    2f3c:	6812      	ldr	r2, [r2, #0]
    2f3e:	601a      	str	r2, [r3, #0]
/home/csx/share/gerrit/optee_os/lib/libutils/isoc/newlib/memmove.c:142
    2f40:	687b      	ldr	r3, [r7, #4]
    2f42:	3b04      	subs	r3, #4
    2f44:	607b      	str	r3, [r7, #4]
/home/csx/share/gerrit/optee_os/lib/libutils/isoc/newlib/memmove.c:140
    2f46:	687b      	ldr	r3, [r7, #4]
    2f48:	2b03      	cmp	r3, #3
    2f4a:	d8f1      	bhi.n	2f30 <memmove+0xc8>
/home/csx/share/gerrit/optee_os/lib/libutils/isoc/newlib/memmove.c:146
    2f4c:	697b      	ldr	r3, [r7, #20]
    2f4e:	61fb      	str	r3, [r7, #28]
/home/csx/share/gerrit/optee_os/lib/libutils/isoc/newlib/memmove.c:147
    2f50:	693b      	ldr	r3, [r7, #16]
    2f52:	61bb      	str	r3, [r7, #24]
/home/csx/share/gerrit/optee_os/lib/libutils/isoc/newlib/memmove.c:150
    2f54:	e007      	b.n	2f66 <memmove+0xfe>
/home/csx/share/gerrit/optee_os/lib/libutils/isoc/newlib/memmove.c:151
    2f56:	69fb      	ldr	r3, [r7, #28]
    2f58:	1c5a      	adds	r2, r3, #1
    2f5a:	61fa      	str	r2, [r7, #28]
    2f5c:	69ba      	ldr	r2, [r7, #24]
    2f5e:	1c51      	adds	r1, r2, #1
    2f60:	61b9      	str	r1, [r7, #24]
    2f62:	7812      	ldrb	r2, [r2, #0]
    2f64:	701a      	strb	r2, [r3, #0]
/home/csx/share/gerrit/optee_os/lib/libutils/isoc/newlib/memmove.c:150
    2f66:	687b      	ldr	r3, [r7, #4]
    2f68:	1e5a      	subs	r2, r3, #1
    2f6a:	607a      	str	r2, [r7, #4]
    2f6c:	2b00      	cmp	r3, #0
    2f6e:	d1f2      	bne.n	2f56 <memmove+0xee>
/home/csx/share/gerrit/optee_os/lib/libutils/isoc/newlib/memmove.c:154
    2f70:	68fb      	ldr	r3, [r7, #12]
/home/csx/share/gerrit/optee_os/lib/libutils/isoc/newlib/memmove.c:156
    2f72:	4618      	mov	r0, r3
    2f74:	3724      	adds	r7, #36	; 0x24
    2f76:	46bd      	mov	sp, r7
    2f78:	f85d 7b04 	ldr.w	r7, [sp], #4
    2f7c:	4770      	bx	lr
    2f7e:	bf00      	nop

00002f80 <memset>:
memset():
/home/csx/share/gerrit/optee_os/lib/libutils/isoc/newlib/memset.c:75
    2f80:	f84d 7d04 	str.w	r7, [sp, #-4]!
    2f84:	b08b      	sub	sp, #44	; 0x2c
    2f86:	af00      	add	r7, sp, #0
    2f88:	60f8      	str	r0, [r7, #12]
    2f8a:	60b9      	str	r1, [r7, #8]
    2f8c:	607a      	str	r2, [r7, #4]
/home/csx/share/gerrit/optee_os/lib/libutils/isoc/newlib/memset.c:76
    2f8e:	68fb      	ldr	r3, [r7, #12]
    2f90:	627b      	str	r3, [r7, #36]	; 0x24
/home/csx/share/gerrit/optee_os/lib/libutils/isoc/newlib/memset.c:82
    2f92:	68bb      	ldr	r3, [r7, #8]
    2f94:	b2db      	uxtb	r3, r3
    2f96:	617b      	str	r3, [r7, #20]
/home/csx/share/gerrit/optee_os/lib/libutils/isoc/newlib/memset.c:85
    2f98:	e00d      	b.n	2fb6 <memset+0x36>
/home/csx/share/gerrit/optee_os/lib/libutils/isoc/newlib/memset.c:86
    2f9a:	687b      	ldr	r3, [r7, #4]
    2f9c:	1e5a      	subs	r2, r3, #1
    2f9e:	607a      	str	r2, [r7, #4]
    2fa0:	2b00      	cmp	r3, #0
    2fa2:	d006      	beq.n	2fb2 <memset+0x32>
/home/csx/share/gerrit/optee_os/lib/libutils/isoc/newlib/memset.c:87
    2fa4:	6a7b      	ldr	r3, [r7, #36]	; 0x24
    2fa6:	1c5a      	adds	r2, r3, #1
    2fa8:	627a      	str	r2, [r7, #36]	; 0x24
    2faa:	68ba      	ldr	r2, [r7, #8]
    2fac:	b2d2      	uxtb	r2, r2
    2fae:	701a      	strb	r2, [r3, #0]
    2fb0:	e001      	b.n	2fb6 <memset+0x36>
/home/csx/share/gerrit/optee_os/lib/libutils/isoc/newlib/memset.c:89
    2fb2:	68fb      	ldr	r3, [r7, #12]
    2fb4:	e059      	b.n	306a <memset+0xea>
/home/csx/share/gerrit/optee_os/lib/libutils/isoc/newlib/memset.c:85
    2fb6:	6a7b      	ldr	r3, [r7, #36]	; 0x24
    2fb8:	f003 0303 	and.w	r3, r3, #3
    2fbc:	2b00      	cmp	r3, #0
    2fbe:	d1ec      	bne.n	2f9a <memset+0x1a>
/home/csx/share/gerrit/optee_os/lib/libutils/isoc/newlib/memset.c:92
    2fc0:	687b      	ldr	r3, [r7, #4]
    2fc2:	2b03      	cmp	r3, #3
    2fc4:	d944      	bls.n	3050 <memset+0xd0>
/home/csx/share/gerrit/optee_os/lib/libutils/isoc/newlib/memset.c:97
    2fc6:	6a7b      	ldr	r3, [r7, #36]	; 0x24
    2fc8:	61bb      	str	r3, [r7, #24]
/home/csx/share/gerrit/optee_os/lib/libutils/isoc/newlib/memset.c:101
    2fca:	697b      	ldr	r3, [r7, #20]
    2fcc:	021a      	lsls	r2, r3, #8
    2fce:	697b      	ldr	r3, [r7, #20]
    2fd0:	4313      	orrs	r3, r2
    2fd2:	61fb      	str	r3, [r7, #28]
/home/csx/share/gerrit/optee_os/lib/libutils/isoc/newlib/memset.c:102
    2fd4:	69fb      	ldr	r3, [r7, #28]
    2fd6:	041b      	lsls	r3, r3, #16
    2fd8:	69fa      	ldr	r2, [r7, #28]
    2fda:	4313      	orrs	r3, r2
    2fdc:	61fb      	str	r3, [r7, #28]
/home/csx/share/gerrit/optee_os/lib/libutils/isoc/newlib/memset.c:103
    2fde:	2320      	movs	r3, #32
    2fe0:	623b      	str	r3, [r7, #32]
    2fe2:	e009      	b.n	2ff8 <memset+0x78>
/home/csx/share/gerrit/optee_os/lib/libutils/isoc/newlib/memset.c:104 (discriminator 3)
    2fe4:	69fa      	ldr	r2, [r7, #28]
    2fe6:	6a3b      	ldr	r3, [r7, #32]
    2fe8:	fa02 f303 	lsl.w	r3, r2, r3
    2fec:	69fa      	ldr	r2, [r7, #28]
    2fee:	4313      	orrs	r3, r2
    2ff0:	61fb      	str	r3, [r7, #28]
/home/csx/share/gerrit/optee_os/lib/libutils/isoc/newlib/memset.c:103 (discriminator 3)
    2ff2:	6a3b      	ldr	r3, [r7, #32]
    2ff4:	005b      	lsls	r3, r3, #1
    2ff6:	623b      	str	r3, [r7, #32]
/home/csx/share/gerrit/optee_os/lib/libutils/isoc/newlib/memset.c:103 (discriminator 1)
    2ff8:	6a3b      	ldr	r3, [r7, #32]
    2ffa:	2b1f      	cmp	r3, #31
    2ffc:	d9f2      	bls.n	2fe4 <memset+0x64>
/home/csx/share/gerrit/optee_os/lib/libutils/isoc/newlib/memset.c:107
    2ffe:	e016      	b.n	302e <memset+0xae>
/home/csx/share/gerrit/optee_os/lib/libutils/isoc/newlib/memset.c:108
    3000:	69bb      	ldr	r3, [r7, #24]
    3002:	1d1a      	adds	r2, r3, #4
    3004:	61ba      	str	r2, [r7, #24]
    3006:	69fa      	ldr	r2, [r7, #28]
    3008:	601a      	str	r2, [r3, #0]
/home/csx/share/gerrit/optee_os/lib/libutils/isoc/newlib/memset.c:109
    300a:	69bb      	ldr	r3, [r7, #24]
    300c:	1d1a      	adds	r2, r3, #4
    300e:	61ba      	str	r2, [r7, #24]
    3010:	69fa      	ldr	r2, [r7, #28]
    3012:	601a      	str	r2, [r3, #0]
/home/csx/share/gerrit/optee_os/lib/libutils/isoc/newlib/memset.c:110
    3014:	69bb      	ldr	r3, [r7, #24]
    3016:	1d1a      	adds	r2, r3, #4
    3018:	61ba      	str	r2, [r7, #24]
    301a:	69fa      	ldr	r2, [r7, #28]
    301c:	601a      	str	r2, [r3, #0]
/home/csx/share/gerrit/optee_os/lib/libutils/isoc/newlib/memset.c:111
    301e:	69bb      	ldr	r3, [r7, #24]
    3020:	1d1a      	adds	r2, r3, #4
    3022:	61ba      	str	r2, [r7, #24]
    3024:	69fa      	ldr	r2, [r7, #28]
    3026:	601a      	str	r2, [r3, #0]
/home/csx/share/gerrit/optee_os/lib/libutils/isoc/newlib/memset.c:112
    3028:	687b      	ldr	r3, [r7, #4]
    302a:	3b10      	subs	r3, #16
    302c:	607b      	str	r3, [r7, #4]
/home/csx/share/gerrit/optee_os/lib/libutils/isoc/newlib/memset.c:107
    302e:	687b      	ldr	r3, [r7, #4]
    3030:	2b0f      	cmp	r3, #15
    3032:	d8e5      	bhi.n	3000 <memset+0x80>
/home/csx/share/gerrit/optee_os/lib/libutils/isoc/newlib/memset.c:115
    3034:	e007      	b.n	3046 <memset+0xc6>
/home/csx/share/gerrit/optee_os/lib/libutils/isoc/newlib/memset.c:116
    3036:	69bb      	ldr	r3, [r7, #24]
    3038:	1d1a      	adds	r2, r3, #4
    303a:	61ba      	str	r2, [r7, #24]
    303c:	69fa      	ldr	r2, [r7, #28]
    303e:	601a      	str	r2, [r3, #0]
/home/csx/share/gerrit/optee_os/lib/libutils/isoc/newlib/memset.c:117
    3040:	687b      	ldr	r3, [r7, #4]
    3042:	3b04      	subs	r3, #4
    3044:	607b      	str	r3, [r7, #4]
/home/csx/share/gerrit/optee_os/lib/libutils/isoc/newlib/memset.c:115
    3046:	687b      	ldr	r3, [r7, #4]
    3048:	2b03      	cmp	r3, #3
    304a:	d8f4      	bhi.n	3036 <memset+0xb6>
/home/csx/share/gerrit/optee_os/lib/libutils/isoc/newlib/memset.c:120
    304c:	69bb      	ldr	r3, [r7, #24]
    304e:	627b      	str	r3, [r7, #36]	; 0x24
/home/csx/share/gerrit/optee_os/lib/libutils/isoc/newlib/memset.c:124
    3050:	e005      	b.n	305e <memset+0xde>
/home/csx/share/gerrit/optee_os/lib/libutils/isoc/newlib/memset.c:125
    3052:	6a7b      	ldr	r3, [r7, #36]	; 0x24
    3054:	1c5a      	adds	r2, r3, #1
    3056:	627a      	str	r2, [r7, #36]	; 0x24
    3058:	68ba      	ldr	r2, [r7, #8]
    305a:	b2d2      	uxtb	r2, r2
    305c:	701a      	strb	r2, [r3, #0]
/home/csx/share/gerrit/optee_os/lib/libutils/isoc/newlib/memset.c:124
    305e:	687b      	ldr	r3, [r7, #4]
    3060:	1e5a      	subs	r2, r3, #1
    3062:	607a      	str	r2, [r7, #4]
    3064:	2b00      	cmp	r3, #0
    3066:	d1f4      	bne.n	3052 <memset+0xd2>
/home/csx/share/gerrit/optee_os/lib/libutils/isoc/newlib/memset.c:127
    3068:	68fb      	ldr	r3, [r7, #12]
/home/csx/share/gerrit/optee_os/lib/libutils/isoc/newlib/memset.c:128
    306a:	4618      	mov	r0, r3
    306c:	372c      	adds	r7, #44	; 0x2c
    306e:	46bd      	mov	sp, r7
    3070:	f85d 7b04 	ldr.w	r7, [sp], #4
    3074:	4770      	bx	lr
    3076:	bf00      	nop

00003078 <strlen>:
strlen():
/home/csx/share/gerrit/optee_os/lib/libutils/isoc/newlib/strlen.c:90
    3078:	f84d 7d04 	str.w	r7, [sp, #-4]!
    307c:	b085      	sub	sp, #20
    307e:	af00      	add	r7, sp, #0
    3080:	6078      	str	r0, [r7, #4]
/home/csx/share/gerrit/optee_os/lib/libutils/isoc/newlib/strlen.c:91
    3082:	687b      	ldr	r3, [r7, #4]
    3084:	60bb      	str	r3, [r7, #8]
/home/csx/share/gerrit/optee_os/lib/libutils/isoc/newlib/strlen.c:97
    3086:	e00a      	b.n	309e <strlen+0x26>
/home/csx/share/gerrit/optee_os/lib/libutils/isoc/newlib/strlen.c:98
    3088:	687b      	ldr	r3, [r7, #4]
    308a:	781b      	ldrb	r3, [r3, #0]
    308c:	2b00      	cmp	r3, #0
    308e:	d103      	bne.n	3098 <strlen+0x20>
/home/csx/share/gerrit/optee_os/lib/libutils/isoc/newlib/strlen.c:99
    3090:	687a      	ldr	r2, [r7, #4]
    3092:	68bb      	ldr	r3, [r7, #8]
    3094:	1ad3      	subs	r3, r2, r3
    3096:	e026      	b.n	30e6 <strlen+0x6e>
/home/csx/share/gerrit/optee_os/lib/libutils/isoc/newlib/strlen.c:100
    3098:	687b      	ldr	r3, [r7, #4]
    309a:	3301      	adds	r3, #1
    309c:	607b      	str	r3, [r7, #4]
/home/csx/share/gerrit/optee_os/lib/libutils/isoc/newlib/strlen.c:97
    309e:	687b      	ldr	r3, [r7, #4]
    30a0:	f003 0303 	and.w	r3, r3, #3
    30a4:	2b00      	cmp	r3, #0
    30a6:	d1ef      	bne.n	3088 <strlen+0x10>
/home/csx/share/gerrit/optee_os/lib/libutils/isoc/newlib/strlen.c:105
    30a8:	687b      	ldr	r3, [r7, #4]
    30aa:	60fb      	str	r3, [r7, #12]
/home/csx/share/gerrit/optee_os/lib/libutils/isoc/newlib/strlen.c:106
    30ac:	e002      	b.n	30b4 <strlen+0x3c>
/home/csx/share/gerrit/optee_os/lib/libutils/isoc/newlib/strlen.c:107
    30ae:	68fb      	ldr	r3, [r7, #12]
    30b0:	3304      	adds	r3, #4
    30b2:	60fb      	str	r3, [r7, #12]
/home/csx/share/gerrit/optee_os/lib/libutils/isoc/newlib/strlen.c:106
    30b4:	68fb      	ldr	r3, [r7, #12]
    30b6:	681b      	ldr	r3, [r3, #0]
    30b8:	f1a3 3201 	sub.w	r2, r3, #16843009	; 0x1010101
    30bc:	68fb      	ldr	r3, [r7, #12]
    30be:	681b      	ldr	r3, [r3, #0]
    30c0:	43db      	mvns	r3, r3
    30c2:	4013      	ands	r3, r2
    30c4:	f003 3380 	and.w	r3, r3, #2155905152	; 0x80808080
    30c8:	2b00      	cmp	r3, #0
    30ca:	d0f0      	beq.n	30ae <strlen+0x36>
/home/csx/share/gerrit/optee_os/lib/libutils/isoc/newlib/strlen.c:111
    30cc:	68fb      	ldr	r3, [r7, #12]
    30ce:	607b      	str	r3, [r7, #4]
/home/csx/share/gerrit/optee_os/lib/libutils/isoc/newlib/strlen.c:115
    30d0:	e002      	b.n	30d8 <strlen+0x60>
/home/csx/share/gerrit/optee_os/lib/libutils/isoc/newlib/strlen.c:116
    30d2:	687b      	ldr	r3, [r7, #4]
    30d4:	3301      	adds	r3, #1
    30d6:	607b      	str	r3, [r7, #4]
/home/csx/share/gerrit/optee_os/lib/libutils/isoc/newlib/strlen.c:115
    30d8:	687b      	ldr	r3, [r7, #4]
    30da:	781b      	ldrb	r3, [r3, #0]
    30dc:	2b00      	cmp	r3, #0
    30de:	d1f8      	bne.n	30d2 <strlen+0x5a>
/home/csx/share/gerrit/optee_os/lib/libutils/isoc/newlib/strlen.c:117
    30e0:	687a      	ldr	r2, [r7, #4]
    30e2:	68bb      	ldr	r3, [r7, #8]
    30e4:	1ad3      	subs	r3, r2, r3
/home/csx/share/gerrit/optee_os/lib/libutils/isoc/newlib/strlen.c:118
    30e6:	4618      	mov	r0, r3
    30e8:	3714      	adds	r7, #20
    30ea:	46bd      	mov	sp, r7
    30ec:	f85d 7b04 	ldr.w	r7, [sp], #4
    30f0:	4770      	bx	lr
    30f2:	bf00      	nop

000030f4 <snprintk>:
snprintk():
/home/csx/share/gerrit/optee_os/lib/libutils/ext/snprintk.c:111
    30f4:	b40c      	push	{r2, r3}
    30f6:	e96d 7e02 	strd	r7, lr, [sp, #-8]!
    30fa:	b084      	sub	sp, #16
    30fc:	af00      	add	r7, sp, #0
    30fe:	6078      	str	r0, [r7, #4]
    3100:	6039      	str	r1, [r7, #0]
/home/csx/share/gerrit/optee_os/lib/libutils/ext/snprintk.c:115
    3102:	f107 031c 	add.w	r3, r7, #28
    3106:	60bb      	str	r3, [r7, #8]
/home/csx/share/gerrit/optee_os/lib/libutils/ext/snprintk.c:116
    3108:	6878      	ldr	r0, [r7, #4]
    310a:	6839      	ldr	r1, [r7, #0]
    310c:	69ba      	ldr	r2, [r7, #24]
    310e:	68bb      	ldr	r3, [r7, #8]
    3110:	f000 f80a 	bl	3128 <vsnprintk>
    3114:	60f8      	str	r0, [r7, #12]
/home/csx/share/gerrit/optee_os/lib/libutils/ext/snprintk.c:119
    3116:	68fb      	ldr	r3, [r7, #12]
/home/csx/share/gerrit/optee_os/lib/libutils/ext/snprintk.c:120
    3118:	4618      	mov	r0, r3
    311a:	3710      	adds	r7, #16
    311c:	46bd      	mov	sp, r7
    311e:	e9dd 7e00 	ldrd	r7, lr, [sp]
    3122:	b002      	add	sp, #8
    3124:	b002      	add	sp, #8
    3126:	4770      	bx	lr

00003128 <vsnprintk>:
vsnprintk():
/home/csx/share/gerrit/optee_os/lib/libutils/ext/snprintk.c:128
    3128:	e96d 7e02 	strd	r7, lr, [sp, #-8]!
    312c:	b086      	sub	sp, #24
    312e:	af02      	add	r7, sp, #8
    3130:	60f8      	str	r0, [r7, #12]
    3132:	60b9      	str	r1, [r7, #8]
    3134:	607a      	str	r2, [r7, #4]
    3136:	603b      	str	r3, [r7, #0]
/home/csx/share/gerrit/optee_os/lib/libutils/ext/snprintk.c:129
    3138:	2301      	movs	r3, #1
    313a:	9300      	str	r3, [sp, #0]
    313c:	68f8      	ldr	r0, [r7, #12]
    313e:	68b9      	ldr	r1, [r7, #8]
    3140:	687a      	ldr	r2, [r7, #4]
    3142:	683b      	ldr	r3, [r7, #0]
    3144:	f000 f806 	bl	3154 <__vsnprintf>
    3148:	4603      	mov	r3, r0
/home/csx/share/gerrit/optee_os/lib/libutils/ext/snprintk.c:130
    314a:	4618      	mov	r0, r3
    314c:	3710      	adds	r7, #16
    314e:	46bd      	mov	sp, r7
    3150:	bd80      	pop	{r7, pc}
    3152:	bf00      	nop

00003154 <__vsnprintf>:
__vsnprintf():
/home/csx/share/gerrit/optee_os/lib/libutils/ext/snprintk.c:136
    3154:	e96d 7e02 	strd	r7, lr, [sp, #-8]!
    3158:	b088      	sub	sp, #32
    315a:	af02      	add	r7, sp, #8
    315c:	60f8      	str	r0, [r7, #12]
    315e:	60b9      	str	r1, [r7, #8]
    3160:	607a      	str	r2, [r7, #4]
    3162:	603b      	str	r3, [r7, #0]
/home/csx/share/gerrit/optee_os/lib/libutils/ext/snprintk.c:140
    3164:	68fa      	ldr	r2, [r7, #12]
    3166:	68bb      	ldr	r3, [r7, #8]
    3168:	4413      	add	r3, r2
    316a:	613b      	str	r3, [r7, #16]
/home/csx/share/gerrit/optee_os/lib/libutils/ext/snprintk.c:141
    316c:	f107 0210 	add.w	r2, r7, #16
    3170:	683b      	ldr	r3, [r7, #0]
    3172:	9300      	str	r3, [sp, #0]
    3174:	f897 3020 	ldrb.w	r3, [r7, #32]
    3178:	9301      	str	r3, [sp, #4]
    317a:	6878      	ldr	r0, [r7, #4]
    317c:	2108      	movs	r1, #8
    317e:	68fb      	ldr	r3, [r7, #12]
    3180:	f000 f870 	bl	3264 <kprintf>
    3184:	6178      	str	r0, [r7, #20]
/home/csx/share/gerrit/optee_os/lib/libutils/ext/snprintk.c:142
    3186:	68fb      	ldr	r3, [r7, #12]
    3188:	2b00      	cmp	r3, #0
    318a:	d012      	beq.n	31b2 <__vsnprintf+0x5e>
/home/csx/share/gerrit/optee_os/lib/libutils/ext/snprintk.c:142 (discriminator 1)
    318c:	68bb      	ldr	r3, [r7, #8]
    318e:	2b00      	cmp	r3, #0
    3190:	d00f      	beq.n	31b2 <__vsnprintf+0x5e>
/home/csx/share/gerrit/optee_os/lib/libutils/ext/snprintk.c:144
    3192:	697a      	ldr	r2, [r7, #20]
    3194:	68bb      	ldr	r3, [r7, #8]
    3196:	429a      	cmp	r2, r3
    3198:	d306      	bcc.n	31a8 <__vsnprintf+0x54>
/home/csx/share/gerrit/optee_os/lib/libutils/ext/snprintk.c:145
    319a:	68bb      	ldr	r3, [r7, #8]
    319c:	3b01      	subs	r3, #1
    319e:	68fa      	ldr	r2, [r7, #12]
    31a0:	4413      	add	r3, r2
    31a2:	2200      	movs	r2, #0
    31a4:	701a      	strb	r2, [r3, #0]
    31a6:	e004      	b.n	31b2 <__vsnprintf+0x5e>
/home/csx/share/gerrit/optee_os/lib/libutils/ext/snprintk.c:147
    31a8:	697b      	ldr	r3, [r7, #20]
    31aa:	68fa      	ldr	r2, [r7, #12]
    31ac:	4413      	add	r3, r2
    31ae:	2200      	movs	r2, #0
    31b0:	701a      	strb	r2, [r3, #0]
/home/csx/share/gerrit/optee_os/lib/libutils/ext/snprintk.c:149
    31b2:	697b      	ldr	r3, [r7, #20]
/home/csx/share/gerrit/optee_os/lib/libutils/ext/snprintk.c:150
    31b4:	4618      	mov	r0, r3
    31b6:	3718      	adds	r7, #24
    31b8:	46bd      	mov	sp, r7
    31ba:	bd80      	pop	{r7, pc}

000031bc <uuid2str>:
uuid2str():
/home/csx/share/gerrit/optee_os/lib/libutils/ext/snprintk.c:214
    31bc:	f84d 4d1c 	str.w	r4, [sp, #-28]!
    31c0:	e9cd 5601 	strd	r5, r6, [sp, #4]
    31c4:	e9cd 7803 	strd	r7, r8, [sp, #12]
    31c8:	e9cd 9e05 	strd	r9, lr, [sp, #20]
    31cc:	b091      	sub	sp, #68	; 0x44
    31ce:	af0a      	add	r7, sp, #40	; 0x28
    31d0:	60f8      	str	r0, [r7, #12]
    31d2:	60b9      	str	r1, [r7, #8]
    31d4:	607a      	str	r2, [r7, #4]
/home/csx/share/gerrit/optee_os/lib/libutils/ext/snprintk.c:220
    31d6:	687b      	ldr	r3, [r7, #4]
    31d8:	617b      	str	r3, [r7, #20]
/home/csx/share/gerrit/optee_os/lib/libutils/ext/snprintk.c:222
    31da:	697b      	ldr	r3, [r7, #20]
    31dc:	681c      	ldr	r4, [r3, #0]
/home/csx/share/gerrit/optee_os/lib/libutils/ext/snprintk.c:224
    31de:	697b      	ldr	r3, [r7, #20]
    31e0:	889b      	ldrh	r3, [r3, #4]
/home/csx/share/gerrit/optee_os/lib/libutils/ext/snprintk.c:222
    31e2:	4699      	mov	r9, r3
/home/csx/share/gerrit/optee_os/lib/libutils/ext/snprintk.c:224
    31e4:	697b      	ldr	r3, [r7, #20]
    31e6:	88db      	ldrh	r3, [r3, #6]
/home/csx/share/gerrit/optee_os/lib/libutils/ext/snprintk.c:222
    31e8:	4698      	mov	r8, r3
/home/csx/share/gerrit/optee_os/lib/libutils/ext/snprintk.c:225
    31ea:	697b      	ldr	r3, [r7, #20]
    31ec:	7a1b      	ldrb	r3, [r3, #8]
/home/csx/share/gerrit/optee_os/lib/libutils/ext/snprintk.c:222
    31ee:	469c      	mov	ip, r3
/home/csx/share/gerrit/optee_os/lib/libutils/ext/snprintk.c:225
    31f0:	697b      	ldr	r3, [r7, #20]
    31f2:	7a5b      	ldrb	r3, [r3, #9]
/home/csx/share/gerrit/optee_os/lib/libutils/ext/snprintk.c:222
    31f4:	469e      	mov	lr, r3
/home/csx/share/gerrit/optee_os/lib/libutils/ext/snprintk.c:226
    31f6:	697b      	ldr	r3, [r7, #20]
    31f8:	7a9b      	ldrb	r3, [r3, #10]
/home/csx/share/gerrit/optee_os/lib/libutils/ext/snprintk.c:222
    31fa:	461e      	mov	r6, r3
/home/csx/share/gerrit/optee_os/lib/libutils/ext/snprintk.c:226
    31fc:	697b      	ldr	r3, [r7, #20]
    31fe:	7adb      	ldrb	r3, [r3, #11]
/home/csx/share/gerrit/optee_os/lib/libutils/ext/snprintk.c:222
    3200:	461d      	mov	r5, r3
/home/csx/share/gerrit/optee_os/lib/libutils/ext/snprintk.c:227
    3202:	697b      	ldr	r3, [r7, #20]
    3204:	7b1b      	ldrb	r3, [r3, #12]
/home/csx/share/gerrit/optee_os/lib/libutils/ext/snprintk.c:222
    3206:	4618      	mov	r0, r3
/home/csx/share/gerrit/optee_os/lib/libutils/ext/snprintk.c:227
    3208:	697b      	ldr	r3, [r7, #20]
    320a:	7b5b      	ldrb	r3, [r3, #13]
/home/csx/share/gerrit/optee_os/lib/libutils/ext/snprintk.c:222
    320c:	4619      	mov	r1, r3
/home/csx/share/gerrit/optee_os/lib/libutils/ext/snprintk.c:228
    320e:	697b      	ldr	r3, [r7, #20]
    3210:	7b9b      	ldrb	r3, [r3, #14]
/home/csx/share/gerrit/optee_os/lib/libutils/ext/snprintk.c:222
    3212:	461a      	mov	r2, r3
/home/csx/share/gerrit/optee_os/lib/libutils/ext/snprintk.c:228
    3214:	697b      	ldr	r3, [r7, #20]
    3216:	7bdb      	ldrb	r3, [r3, #15]
/home/csx/share/gerrit/optee_os/lib/libutils/ext/snprintk.c:222
    3218:	f8cd 9000 	str.w	r9, [sp]
    321c:	f8cd 8004 	str.w	r8, [sp, #4]
    3220:	f8cd c008 	str.w	ip, [sp, #8]
    3224:	f8cd e00c 	str.w	lr, [sp, #12]
    3228:	9604      	str	r6, [sp, #16]
    322a:	9505      	str	r5, [sp, #20]
    322c:	9006      	str	r0, [sp, #24]
    322e:	9107      	str	r1, [sp, #28]
    3230:	9208      	str	r2, [sp, #32]
    3232:	9309      	str	r3, [sp, #36]	; 0x24
    3234:	68f8      	ldr	r0, [r7, #12]
    3236:	68b9      	ldr	r1, [r7, #8]
    3238:	4b09      	ldr	r3, [pc, #36]	; (3260 <uuid2str+0xa4>)
    323a:	447b      	add	r3, pc
    323c:	461a      	mov	r2, r3
    323e:	4623      	mov	r3, r4
    3240:	f7ff ff58 	bl	30f4 <snprintk>
    3244:	4603      	mov	r3, r0
/home/csx/share/gerrit/optee_os/lib/libutils/ext/snprintk.c:229
    3246:	4618      	mov	r0, r3
    3248:	371c      	adds	r7, #28
    324a:	46bd      	mov	sp, r7
    324c:	e9dd 4500 	ldrd	r4, r5, [sp]
    3250:	e9dd 6702 	ldrd	r6, r7, [sp, #8]
    3254:	e9dd 8904 	ldrd	r8, r9, [sp, #16]
    3258:	b006      	add	sp, #24
    325a:	f85d fb04 	ldr.w	pc, [sp], #4
    325e:	bf00      	nop
    3260:	00005c46 	.word	0x00005c46

00003264 <kprintf>:
kprintf():
/home/csx/share/gerrit/optee_os/lib/libutils/ext/snprintk.c:237
    3264:	e96d 4506 	strd	r4, r5, [sp, #-24]!
    3268:	e9cd 7802 	strd	r7, r8, [sp, #8]
    326c:	e9cd 9e04 	strd	r9, lr, [sp, #16]
    3270:	b0a0      	sub	sp, #128	; 0x80
    3272:	af00      	add	r7, sp, #0
    3274:	60f8      	str	r0, [r7, #12]
    3276:	60b9      	str	r1, [r7, #8]
    3278:	607a      	str	r2, [r7, #4]
    327a:	603b      	str	r3, [r7, #0]
/home/csx/share/gerrit/optee_os/lib/libutils/ext/snprintk.c:257
    327c:	68bb      	ldr	r3, [r7, #8]
    327e:	2b08      	cmp	r3, #8
    3280:	d106      	bne.n	3290 <kprintf+0x2c>
/home/csx/share/gerrit/optee_os/lib/libutils/ext/snprintk.c:257 (discriminator 1)
    3282:	687b      	ldr	r3, [r7, #4]
    3284:	2b00      	cmp	r3, #0
    3286:	d003      	beq.n	3290 <kprintf+0x2c>
/home/csx/share/gerrit/optee_os/lib/libutils/ext/snprintk.c:258
    3288:	687b      	ldr	r3, [r7, #4]
    328a:	681b      	ldr	r3, [r3, #0]
    328c:	63bb      	str	r3, [r7, #56]	; 0x38
    328e:	e001      	b.n	3294 <kprintf+0x30>
/home/csx/share/gerrit/optee_os/lib/libutils/ext/snprintk.c:260
    3290:	2300      	movs	r3, #0
    3292:	63bb      	str	r3, [r7, #56]	; 0x38
/home/csx/share/gerrit/optee_os/lib/libutils/ext/snprintk.c:262
    3294:	2300      	movs	r3, #0
    3296:	673b      	str	r3, [r7, #112]	; 0x70
/home/csx/share/gerrit/optee_os/lib/libutils/ext/snprintk.c:263
    3298:	2300      	movs	r3, #0
    329a:	643b      	str	r3, [r7, #64]	; 0x40
/home/csx/share/gerrit/optee_os/lib/libutils/ext/snprintk.c:265
    329c:	68fb      	ldr	r3, [r7, #12]
    329e:	67fb      	str	r3, [r7, #124]	; 0x7c
/home/csx/share/gerrit/optee_os/lib/libutils/ext/snprintk.c:266
    32a0:	2300      	movs	r3, #0
    32a2:	66bb      	str	r3, [r7, #104]	; 0x68
/home/csx/share/gerrit/optee_os/lib/libutils/ext/snprintk.c:268
    32a4:	2300      	movs	r3, #0
    32a6:	63fb      	str	r3, [r7, #60]	; 0x3c
/home/csx/share/gerrit/optee_os/lib/libutils/ext/snprintk.c:274 (discriminator 3)
    32a8:	e018      	b.n	32dc <kprintf+0x78>
/home/csx/share/gerrit/optee_os/lib/libutils/ext/snprintk.c:275
    32aa:	6ebb      	ldr	r3, [r7, #104]	; 0x68
    32ac:	3301      	adds	r3, #1
    32ae:	66bb      	str	r3, [r7, #104]	; 0x68
/home/csx/share/gerrit/optee_os/lib/libutils/ext/snprintk.c:276
    32b0:	68bb      	ldr	r3, [r7, #8]
    32b2:	2b08      	cmp	r3, #8
    32b4:	d10f      	bne.n	32d6 <kprintf+0x72>
/home/csx/share/gerrit/optee_os/lib/libutils/ext/snprintk.c:276 (discriminator 1)
    32b6:	683b      	ldr	r3, [r7, #0]
    32b8:	2b00      	cmp	r3, #0
    32ba:	d00c      	beq.n	32d6 <kprintf+0x72>
/home/csx/share/gerrit/optee_os/lib/libutils/ext/snprintk.c:276 (discriminator 2)
    32bc:	687b      	ldr	r3, [r7, #4]
    32be:	2b00      	cmp	r3, #0
    32c0:	d003      	beq.n	32ca <kprintf+0x66>
/home/csx/share/gerrit/optee_os/lib/libutils/ext/snprintk.c:276 (discriminator 4)
    32c2:	683a      	ldr	r2, [r7, #0]
    32c4:	6bbb      	ldr	r3, [r7, #56]	; 0x38
    32c6:	429a      	cmp	r2, r3
    32c8:	d205      	bcs.n	32d6 <kprintf+0x72>
/home/csx/share/gerrit/optee_os/lib/libutils/ext/snprintk.c:276 (discriminator 5)
    32ca:	683b      	ldr	r3, [r7, #0]
    32cc:	1c5a      	adds	r2, r3, #1
    32ce:	603a      	str	r2, [r7, #0]
    32d0:	6ffa      	ldr	r2, [r7, #124]	; 0x7c
    32d2:	7812      	ldrb	r2, [r2, #0]
    32d4:	701a      	strb	r2, [r3, #0]
/home/csx/share/gerrit/optee_os/lib/libutils/ext/snprintk.c:274
    32d6:	6ffb      	ldr	r3, [r7, #124]	; 0x7c
    32d8:	3301      	adds	r3, #1
    32da:	67fb      	str	r3, [r7, #124]	; 0x7c
/home/csx/share/gerrit/optee_os/lib/libutils/ext/snprintk.c:274 (discriminator 1)
    32dc:	6ffb      	ldr	r3, [r7, #124]	; 0x7c
    32de:	781b      	ldrb	r3, [r3, #0]
    32e0:	2b25      	cmp	r3, #37	; 0x25
    32e2:	d003      	beq.n	32ec <kprintf+0x88>
/home/csx/share/gerrit/optee_os/lib/libutils/ext/snprintk.c:274 (discriminator 2)
    32e4:	6ffb      	ldr	r3, [r7, #124]	; 0x7c
    32e6:	781b      	ldrb	r3, [r3, #0]
    32e8:	2b00      	cmp	r3, #0
    32ea:	d1de      	bne.n	32aa <kprintf+0x46>
/home/csx/share/gerrit/optee_os/lib/libutils/ext/snprintk.c:278
    32ec:	6ffb      	ldr	r3, [r7, #124]	; 0x7c
    32ee:	781b      	ldrb	r3, [r3, #0]
    32f0:	2b00      	cmp	r3, #0
    32f2:	d101      	bne.n	32f8 <kprintf+0x94>
/home/csx/share/gerrit/optee_os/lib/libutils/ext/snprintk.c:279
    32f4:	f000 bded 	b.w	3ed2 <kprintf+0xc6e>
/home/csx/share/gerrit/optee_os/lib/libutils/ext/snprintk.c:281
    32f8:	6ffb      	ldr	r3, [r7, #124]	; 0x7c
    32fa:	3301      	adds	r3, #1
    32fc:	67fb      	str	r3, [r7, #124]	; 0x7c
/home/csx/share/gerrit/optee_os/lib/libutils/ext/snprintk.c:283
    32fe:	2300      	movs	r3, #0
    3300:	66fb      	str	r3, [r7, #108]	; 0x6c
/home/csx/share/gerrit/optee_os/lib/libutils/ext/snprintk.c:284
    3302:	2300      	movs	r3, #0
    3304:	64bb      	str	r3, [r7, #72]	; 0x48
/home/csx/share/gerrit/optee_os/lib/libutils/ext/snprintk.c:285
    3306:	2300      	movs	r3, #0
    3308:	667b      	str	r3, [r7, #100]	; 0x64
/home/csx/share/gerrit/optee_os/lib/libutils/ext/snprintk.c:286
    330a:	f04f 33ff 	mov.w	r3, #4294967295	; 0xffffffff
    330e:	663b      	str	r3, [r7, #96]	; 0x60
/home/csx/share/gerrit/optee_os/lib/libutils/ext/snprintk.c:287
    3310:	2300      	movs	r3, #0
    3312:	f887 305f 	strb.w	r3, [r7, #95]	; 0x5f
/home/csx/share/gerrit/optee_os/lib/libutils/ext/snprintk.c:289
    3316:	6ffb      	ldr	r3, [r7, #124]	; 0x7c
    3318:	1c5a      	adds	r2, r3, #1
    331a:	67fa      	str	r2, [r7, #124]	; 0x7c
    331c:	781b      	ldrb	r3, [r3, #0]
    331e:	67bb      	str	r3, [r7, #120]	; 0x78
/home/csx/share/gerrit/optee_os/lib/libutils/ext/snprintk.c:290
    3320:	6fbb      	ldr	r3, [r7, #120]	; 0x78
    3322:	3b20      	subs	r3, #32
    3324:	2b5a      	cmp	r3, #90	; 0x5a
    3326:	f200 84c3 	bhi.w	3cb0 <kprintf+0xa4c>
    332a:	a202      	add	r2, pc, #8	; (adr r2, 3334 <kprintf+0xd0>)
    332c:	f852 3023 	ldr.w	r3, [r2, r3, lsl #2]
    3330:	441a      	add	r2, r3
    3332:	4710      	bx	r2
    3334:	0000016d 	.word	0x0000016d
    3338:	0000097d 	.word	0x0000097d
    333c:	0000097d 	.word	0x0000097d
    3340:	0000017d 	.word	0x0000017d
    3344:	0000097d 	.word	0x0000097d
    3348:	0000097d 	.word	0x0000097d
    334c:	0000097d 	.word	0x0000097d
    3350:	0000097d 	.word	0x0000097d
    3354:	0000097d 	.word	0x0000097d
    3358:	0000097d 	.word	0x0000097d
    335c:	00000187 	.word	0x00000187
    3360:	000001ad 	.word	0x000001ad
    3364:	0000097d 	.word	0x0000097d
    3368:	000001a3 	.word	0x000001a3
    336c:	000001b5 	.word	0x000001b5
    3370:	0000097d 	.word	0x0000097d
    3374:	0000020f 	.word	0x0000020f
    3378:	00000219 	.word	0x00000219
    337c:	00000219 	.word	0x00000219
    3380:	00000219 	.word	0x00000219
    3384:	00000219 	.word	0x00000219
    3388:	00000219 	.word	0x00000219
    338c:	00000219 	.word	0x00000219
    3390:	00000219 	.word	0x00000219
    3394:	00000219 	.word	0x00000219
    3398:	00000219 	.word	0x00000219
    339c:	0000097d 	.word	0x0000097d
    33a0:	0000097d 	.word	0x0000097d
    33a4:	0000097d 	.word	0x0000097d
    33a8:	0000097d 	.word	0x0000097d
    33ac:	0000097d 	.word	0x0000097d
    33b0:	0000097d 	.word	0x0000097d
    33b4:	0000097d 	.word	0x0000097d
    33b8:	0000097d 	.word	0x0000097d
    33bc:	0000097d 	.word	0x0000097d
    33c0:	0000097d 	.word	0x0000097d
    33c4:	000002bd 	.word	0x000002bd
    33c8:	0000097d 	.word	0x0000097d
    33cc:	0000097d 	.word	0x0000097d
    33d0:	0000097d 	.word	0x0000097d
    33d4:	0000097d 	.word	0x0000097d
    33d8:	0000097d 	.word	0x0000097d
    33dc:	0000097d 	.word	0x0000097d
    33e0:	0000097d 	.word	0x0000097d
    33e4:	0000097d 	.word	0x0000097d
    33e8:	0000097d 	.word	0x0000097d
    33ec:	0000097d 	.word	0x0000097d
    33f0:	0000048d 	.word	0x0000048d
    33f4:	0000097d 	.word	0x0000097d
    33f8:	0000097d 	.word	0x0000097d
    33fc:	0000097d 	.word	0x0000097d
    3400:	0000097d 	.word	0x0000097d
    3404:	0000097d 	.word	0x0000097d
    3408:	0000064f 	.word	0x0000064f
    340c:	0000097d 	.word	0x0000097d
    3410:	0000097d 	.word	0x0000097d
    3414:	00000731 	.word	0x00000731
    3418:	0000097d 	.word	0x0000097d
    341c:	0000097d 	.word	0x0000097d
    3420:	0000097d 	.word	0x0000097d
    3424:	0000097d 	.word	0x0000097d
    3428:	0000097d 	.word	0x0000097d
    342c:	0000097d 	.word	0x0000097d
    3430:	0000097d 	.word	0x0000097d
    3434:	0000097d 	.word	0x0000097d
    3438:	0000097d 	.word	0x0000097d
    343c:	0000097d 	.word	0x0000097d
    3440:	00000299 	.word	0x00000299
    3444:	000002c5 	.word	0x000002c5
    3448:	0000097d 	.word	0x0000097d
    344c:	0000097d 	.word	0x0000097d
    3450:	0000097d 	.word	0x0000097d
    3454:	00000245 	.word	0x00000245
    3458:	000002c5 	.word	0x000002c5
    345c:	0000024f 	.word	0x0000024f
    3460:	0000097d 	.word	0x0000097d
    3464:	00000259 	.word	0x00000259
    3468:	0000097d 	.word	0x0000097d
    346c:	000003bf 	.word	0x000003bf
    3470:	00000495 	.word	0x00000495
    3474:	0000056f 	.word	0x0000056f
    3478:	0000027b 	.word	0x0000027b
    347c:	0000097d 	.word	0x0000097d
    3480:	000005e9 	.word	0x000005e9
    3484:	00000285 	.word	0x00000285
    3488:	00000657 	.word	0x00000657
    348c:	0000097d 	.word	0x0000097d
    3490:	0000097d 	.word	0x0000097d
    3494:	0000073b 	.word	0x0000073b
    3498:	0000097d 	.word	0x0000097d
    349c:	0000028f 	.word	0x0000028f
/home/csx/share/gerrit/optee_os/lib/libutils/ext/snprintk.c:297
    34a0:	f897 305f 	ldrb.w	r3, [r7, #95]	; 0x5f
    34a4:	2b00      	cmp	r3, #0
    34a6:	d102      	bne.n	34ae <kprintf+0x24a>
/home/csx/share/gerrit/optee_os/lib/libutils/ext/snprintk.c:298
    34a8:	2320      	movs	r3, #32
    34aa:	f887 305f 	strb.w	r3, [r7, #95]	; 0x5f
/home/csx/share/gerrit/optee_os/lib/libutils/ext/snprintk.c:299
    34ae:	e732      	b.n	3316 <kprintf+0xb2>
/home/csx/share/gerrit/optee_os/lib/libutils/ext/snprintk.c:301
    34b0:	6efb      	ldr	r3, [r7, #108]	; 0x6c
    34b2:	f043 0301 	orr.w	r3, r3, #1
    34b6:	66fb      	str	r3, [r7, #108]	; 0x6c
/home/csx/share/gerrit/optee_os/lib/libutils/ext/snprintk.c:302
    34b8:	e72d      	b.n	3316 <kprintf+0xb2>
/home/csx/share/gerrit/optee_os/lib/libutils/ext/snprintk.c:310
    34ba:	f8d7 3098 	ldr.w	r3, [r7, #152]	; 0x98
    34be:	1d1a      	adds	r2, r3, #4
    34c0:	f8c7 2098 	str.w	r2, [r7, #152]	; 0x98
    34c4:	681b      	ldr	r3, [r3, #0]
    34c6:	667b      	str	r3, [r7, #100]	; 0x64
    34c8:	6e7b      	ldr	r3, [r7, #100]	; 0x64
    34ca:	2b00      	cmp	r3, #0
    34cc:	db00      	blt.n	34d0 <kprintf+0x26c>
/home/csx/share/gerrit/optee_os/lib/libutils/ext/snprintk.c:311
    34ce:	e722      	b.n	3316 <kprintf+0xb2>
/home/csx/share/gerrit/optee_os/lib/libutils/ext/snprintk.c:312
    34d0:	6e7b      	ldr	r3, [r7, #100]	; 0x64
    34d2:	425b      	negs	r3, r3
    34d4:	667b      	str	r3, [r7, #100]	; 0x64
/home/csx/share/gerrit/optee_os/lib/libutils/ext/snprintk.c:315
    34d6:	6efb      	ldr	r3, [r7, #108]	; 0x6c
    34d8:	f043 0304 	orr.w	r3, r3, #4
    34dc:	66fb      	str	r3, [r7, #108]	; 0x6c
/home/csx/share/gerrit/optee_os/lib/libutils/ext/snprintk.c:316
    34de:	e71a      	b.n	3316 <kprintf+0xb2>
/home/csx/share/gerrit/optee_os/lib/libutils/ext/snprintk.c:318
    34e0:	232b      	movs	r3, #43	; 0x2b
    34e2:	f887 305f 	strb.w	r3, [r7, #95]	; 0x5f
/home/csx/share/gerrit/optee_os/lib/libutils/ext/snprintk.c:319
    34e6:	e716      	b.n	3316 <kprintf+0xb2>
/home/csx/share/gerrit/optee_os/lib/libutils/ext/snprintk.c:321
    34e8:	6ffb      	ldr	r3, [r7, #124]	; 0x7c
    34ea:	1c5a      	adds	r2, r3, #1
    34ec:	67fa      	str	r2, [r7, #124]	; 0x7c
    34ee:	781b      	ldrb	r3, [r3, #0]
    34f0:	67bb      	str	r3, [r7, #120]	; 0x78
    34f2:	6fbb      	ldr	r3, [r7, #120]	; 0x78
    34f4:	2b2a      	cmp	r3, #42	; 0x2a
    34f6:	d10b      	bne.n	3510 <kprintf+0x2ac>
/home/csx/share/gerrit/optee_os/lib/libutils/ext/snprintk.c:322
    34f8:	f8d7 3098 	ldr.w	r3, [r7, #152]	; 0x98
    34fc:	1d1a      	adds	r2, r3, #4
    34fe:	f8c7 2098 	str.w	r2, [r7, #152]	; 0x98
    3502:	681b      	ldr	r3, [r3, #0]
    3504:	677b      	str	r3, [r7, #116]	; 0x74
/home/csx/share/gerrit/optee_os/lib/libutils/ext/snprintk.c:323
    3506:	6f7b      	ldr	r3, [r7, #116]	; 0x74
    3508:	ea43 73e3 	orr.w	r3, r3, r3, asr #31
    350c:	663b      	str	r3, [r7, #96]	; 0x60
/home/csx/share/gerrit/optee_os/lib/libutils/ext/snprintk.c:324
    350e:	e702      	b.n	3316 <kprintf+0xb2>
/home/csx/share/gerrit/optee_os/lib/libutils/ext/snprintk.c:326
    3510:	2300      	movs	r3, #0
    3512:	677b      	str	r3, [r7, #116]	; 0x74
/home/csx/share/gerrit/optee_os/lib/libutils/ext/snprintk.c:327
    3514:	e00c      	b.n	3530 <kprintf+0x2cc>
/home/csx/share/gerrit/optee_os/lib/libutils/ext/snprintk.c:328
    3516:	6f7b      	ldr	r3, [r7, #116]	; 0x74
    3518:	005b      	lsls	r3, r3, #1
    351a:	009a      	lsls	r2, r3, #2
    351c:	441a      	add	r2, r3
    351e:	6fbb      	ldr	r3, [r7, #120]	; 0x78
    3520:	3b30      	subs	r3, #48	; 0x30
    3522:	4413      	add	r3, r2
    3524:	677b      	str	r3, [r7, #116]	; 0x74
/home/csx/share/gerrit/optee_os/lib/libutils/ext/snprintk.c:329
    3526:	6ffb      	ldr	r3, [r7, #124]	; 0x7c
    3528:	1c5a      	adds	r2, r3, #1
    352a:	67fa      	str	r2, [r7, #124]	; 0x7c
    352c:	781b      	ldrb	r3, [r3, #0]
    352e:	67bb      	str	r3, [r7, #120]	; 0x78
/home/csx/share/gerrit/optee_os/lib/libutils/ext/snprintk.c:327
    3530:	6fbb      	ldr	r3, [r7, #120]	; 0x78
    3532:	3b30      	subs	r3, #48	; 0x30
    3534:	2b09      	cmp	r3, #9
    3536:	d9ee      	bls.n	3516 <kprintf+0x2b2>
/home/csx/share/gerrit/optee_os/lib/libutils/ext/snprintk.c:331
    3538:	6f7b      	ldr	r3, [r7, #116]	; 0x74
    353a:	ea43 73e3 	orr.w	r3, r3, r3, asr #31
    353e:	663b      	str	r3, [r7, #96]	; 0x60
/home/csx/share/gerrit/optee_os/lib/libutils/ext/snprintk.c:332
    3540:	e6ee      	b.n	3320 <kprintf+0xbc>
/home/csx/share/gerrit/optee_os/lib/libutils/ext/snprintk.c:339
    3542:	6efb      	ldr	r3, [r7, #108]	; 0x6c
    3544:	f443 6380 	orr.w	r3, r3, #1024	; 0x400
    3548:	66fb      	str	r3, [r7, #108]	; 0x6c
/home/csx/share/gerrit/optee_os/lib/libutils/ext/snprintk.c:340
    354a:	e6e4      	b.n	3316 <kprintf+0xb2>
/home/csx/share/gerrit/optee_os/lib/libutils/ext/snprintk.c:343
    354c:	2300      	movs	r3, #0
    354e:	677b      	str	r3, [r7, #116]	; 0x74
/home/csx/share/gerrit/optee_os/lib/libutils/ext/snprintk.c:345 (discriminator 1)
    3550:	6f7b      	ldr	r3, [r7, #116]	; 0x74
    3552:	005b      	lsls	r3, r3, #1
    3554:	009a      	lsls	r2, r3, #2
    3556:	441a      	add	r2, r3
    3558:	6fbb      	ldr	r3, [r7, #120]	; 0x78
    355a:	3b30      	subs	r3, #48	; 0x30
    355c:	4413      	add	r3, r2
    355e:	677b      	str	r3, [r7, #116]	; 0x74
/home/csx/share/gerrit/optee_os/lib/libutils/ext/snprintk.c:346 (discriminator 1)
    3560:	6ffb      	ldr	r3, [r7, #124]	; 0x7c
    3562:	1c5a      	adds	r2, r3, #1
    3564:	67fa      	str	r2, [r7, #124]	; 0x7c
    3566:	781b      	ldrb	r3, [r3, #0]
    3568:	67bb      	str	r3, [r7, #120]	; 0x78
/home/csx/share/gerrit/optee_os/lib/libutils/ext/snprintk.c:347 (discriminator 1)
    356a:	6fbb      	ldr	r3, [r7, #120]	; 0x78
    356c:	3b30      	subs	r3, #48	; 0x30
    356e:	2b09      	cmp	r3, #9
    3570:	d9ee      	bls.n	3550 <kprintf+0x2ec>
/home/csx/share/gerrit/optee_os/lib/libutils/ext/snprintk.c:348
    3572:	6f7b      	ldr	r3, [r7, #116]	; 0x74
    3574:	667b      	str	r3, [r7, #100]	; 0x64
/home/csx/share/gerrit/optee_os/lib/libutils/ext/snprintk.c:349
    3576:	e6d3      	b.n	3320 <kprintf+0xbc>
/home/csx/share/gerrit/optee_os/lib/libutils/ext/snprintk.c:351
    3578:	6efb      	ldr	r3, [r7, #108]	; 0x6c
    357a:	f043 0340 	orr.w	r3, r3, #64	; 0x40
    357e:	66fb      	str	r3, [r7, #108]	; 0x6c
/home/csx/share/gerrit/optee_os/lib/libutils/ext/snprintk.c:352
    3580:	e6c9      	b.n	3316 <kprintf+0xb2>
/home/csx/share/gerrit/optee_os/lib/libutils/ext/snprintk.c:354
    3582:	6efb      	ldr	r3, [r7, #108]	; 0x6c
    3584:	f043 0380 	orr.w	r3, r3, #128	; 0x80
    3588:	66fb      	str	r3, [r7, #108]	; 0x6c
/home/csx/share/gerrit/optee_os/lib/libutils/ext/snprintk.c:355
    358a:	e6c4      	b.n	3316 <kprintf+0xb2>
/home/csx/share/gerrit/optee_os/lib/libutils/ext/snprintk.c:357
    358c:	6ffb      	ldr	r3, [r7, #124]	; 0x7c
    358e:	781b      	ldrb	r3, [r3, #0]
    3590:	2b6c      	cmp	r3, #108	; 0x6c
    3592:	d107      	bne.n	35a4 <kprintf+0x340>
/home/csx/share/gerrit/optee_os/lib/libutils/ext/snprintk.c:358
    3594:	6ffb      	ldr	r3, [r7, #124]	; 0x7c
    3596:	3301      	adds	r3, #1
    3598:	67fb      	str	r3, [r7, #124]	; 0x7c
/home/csx/share/gerrit/optee_os/lib/libutils/ext/snprintk.c:359
    359a:	6efb      	ldr	r3, [r7, #108]	; 0x6c
    359c:	f043 0320 	orr.w	r3, r3, #32
    35a0:	66fb      	str	r3, [r7, #108]	; 0x6c
    35a2:	e003      	b.n	35ac <kprintf+0x348>
/home/csx/share/gerrit/optee_os/lib/libutils/ext/snprintk.c:361
    35a4:	6efb      	ldr	r3, [r7, #108]	; 0x6c
    35a6:	f043 0310 	orr.w	r3, r3, #16
    35aa:	66fb      	str	r3, [r7, #108]	; 0x6c
/home/csx/share/gerrit/optee_os/lib/libutils/ext/snprintk.c:363
    35ac:	e6b3      	b.n	3316 <kprintf+0xb2>
/home/csx/share/gerrit/optee_os/lib/libutils/ext/snprintk.c:365
    35ae:	6efb      	ldr	r3, [r7, #108]	; 0x6c
    35b0:	f043 0320 	orr.w	r3, r3, #32
    35b4:	66fb      	str	r3, [r7, #108]	; 0x6c
/home/csx/share/gerrit/optee_os/lib/libutils/ext/snprintk.c:366
    35b6:	e6ae      	b.n	3316 <kprintf+0xb2>
/home/csx/share/gerrit/optee_os/lib/libutils/ext/snprintk.c:368
    35b8:	6efb      	ldr	r3, [r7, #108]	; 0x6c
    35ba:	f443 7380 	orr.w	r3, r3, #256	; 0x100
    35be:	66fb      	str	r3, [r7, #108]	; 0x6c
/home/csx/share/gerrit/optee_os/lib/libutils/ext/snprintk.c:369
    35c0:	e6a9      	b.n	3316 <kprintf+0xb2>
/home/csx/share/gerrit/optee_os/lib/libutils/ext/snprintk.c:371
    35c2:	6efb      	ldr	r3, [r7, #108]	; 0x6c
    35c4:	f443 7300 	orr.w	r3, r3, #512	; 0x200
    35c8:	66fb      	str	r3, [r7, #108]	; 0x6c
/home/csx/share/gerrit/optee_os/lib/libutils/ext/snprintk.c:372
    35ca:	e6a4      	b.n	3316 <kprintf+0xb2>
/home/csx/share/gerrit/optee_os/lib/libutils/ext/snprintk.c:374
    35cc:	f107 0310 	add.w	r3, r7, #16
    35d0:	673b      	str	r3, [r7, #112]	; 0x70
    35d2:	f8d7 3098 	ldr.w	r3, [r7, #152]	; 0x98
    35d6:	1d1a      	adds	r2, r3, #4
    35d8:	f8c7 2098 	str.w	r2, [r7, #152]	; 0x98
    35dc:	681b      	ldr	r3, [r3, #0]
    35de:	b2da      	uxtb	r2, r3
    35e0:	6f3b      	ldr	r3, [r7, #112]	; 0x70
    35e2:	701a      	strb	r2, [r3, #0]
/home/csx/share/gerrit/optee_os/lib/libutils/ext/snprintk.c:375
    35e4:	2301      	movs	r3, #1
    35e6:	643b      	str	r3, [r7, #64]	; 0x40
/home/csx/share/gerrit/optee_os/lib/libutils/ext/snprintk.c:376
    35e8:	2300      	movs	r3, #0
    35ea:	f887 305f 	strb.w	r3, [r7, #95]	; 0x5f
/home/csx/share/gerrit/optee_os/lib/libutils/ext/snprintk.c:377
    35ee:	e370      	b.n	3cd2 <kprintf+0xa6e>
/home/csx/share/gerrit/optee_os/lib/libutils/ext/snprintk.c:379
    35f0:	6efb      	ldr	r3, [r7, #108]	; 0x6c
    35f2:	f043 0310 	orr.w	r3, r3, #16
    35f6:	66fb      	str	r3, [r7, #108]	; 0x6c
/home/csx/share/gerrit/optee_os/lib/libutils/ext/snprintk.c:383
    35f8:	6efb      	ldr	r3, [r7, #108]	; 0x6c
    35fa:	f003 0380 	and.w	r3, r3, #128	; 0x80
    35fe:	2b00      	cmp	r3, #0
    3600:	d00b      	beq.n	361a <kprintf+0x3b6>
/home/csx/share/gerrit/optee_os/lib/libutils/ext/snprintk.c:383 (discriminator 1)
    3602:	f8d7 3098 	ldr.w	r3, [r7, #152]	; 0x98
    3606:	3307      	adds	r3, #7
    3608:	f023 0307 	bic.w	r3, r3, #7
    360c:	f103 0208 	add.w	r2, r3, #8
    3610:	f8c7 2098 	str.w	r2, [r7, #152]	; 0x98
    3614:	e9d3 2300 	ldrd	r2, r3, [r3]
    3618:	e056      	b.n	36c8 <kprintf+0x464>
/home/csx/share/gerrit/optee_os/lib/libutils/ext/snprintk.c:383 (discriminator 2)
    361a:	6efb      	ldr	r3, [r7, #108]	; 0x6c
    361c:	f403 7380 	and.w	r3, r3, #256	; 0x100
    3620:	2b00      	cmp	r3, #0
    3622:	d009      	beq.n	3638 <kprintf+0x3d4>
/home/csx/share/gerrit/optee_os/lib/libutils/ext/snprintk.c:383 (discriminator 4)
    3624:	f8d7 3098 	ldr.w	r3, [r7, #152]	; 0x98
    3628:	1d1a      	adds	r2, r3, #4
    362a:	f8c7 2098 	str.w	r2, [r7, #152]	; 0x98
    362e:	681b      	ldr	r3, [r3, #0]
    3630:	461a      	mov	r2, r3
    3632:	ea4f 73e2 	mov.w	r3, r2, asr #31
    3636:	e047      	b.n	36c8 <kprintf+0x464>
/home/csx/share/gerrit/optee_os/lib/libutils/ext/snprintk.c:383 (discriminator 5)
    3638:	6efb      	ldr	r3, [r7, #108]	; 0x6c
    363a:	f403 7300 	and.w	r3, r3, #512	; 0x200
    363e:	2b00      	cmp	r3, #0
    3640:	d009      	beq.n	3656 <kprintf+0x3f2>
/home/csx/share/gerrit/optee_os/lib/libutils/ext/snprintk.c:383 (discriminator 7)
    3642:	f8d7 3098 	ldr.w	r3, [r7, #152]	; 0x98
    3646:	1d1a      	adds	r2, r3, #4
    3648:	f8c7 2098 	str.w	r2, [r7, #152]	; 0x98
    364c:	681b      	ldr	r3, [r3, #0]
    364e:	461a      	mov	r2, r3
    3650:	ea4f 73e2 	mov.w	r3, r2, asr #31
    3654:	e038      	b.n	36c8 <kprintf+0x464>
/home/csx/share/gerrit/optee_os/lib/libutils/ext/snprintk.c:383 (discriminator 8)
    3656:	6efb      	ldr	r3, [r7, #108]	; 0x6c
    3658:	f003 0320 	and.w	r3, r3, #32
    365c:	2b00      	cmp	r3, #0
    365e:	d00b      	beq.n	3678 <kprintf+0x414>
/home/csx/share/gerrit/optee_os/lib/libutils/ext/snprintk.c:383 (discriminator 10)
    3660:	f8d7 3098 	ldr.w	r3, [r7, #152]	; 0x98
    3664:	3307      	adds	r3, #7
    3666:	f023 0307 	bic.w	r3, r3, #7
    366a:	f103 0208 	add.w	r2, r3, #8
    366e:	f8c7 2098 	str.w	r2, [r7, #152]	; 0x98
    3672:	e9d3 2300 	ldrd	r2, r3, [r3]
    3676:	e027      	b.n	36c8 <kprintf+0x464>
/home/csx/share/gerrit/optee_os/lib/libutils/ext/snprintk.c:383 (discriminator 11)
    3678:	6efb      	ldr	r3, [r7, #108]	; 0x6c
    367a:	f003 0310 	and.w	r3, r3, #16
    367e:	2b00      	cmp	r3, #0
    3680:	d009      	beq.n	3696 <kprintf+0x432>
/home/csx/share/gerrit/optee_os/lib/libutils/ext/snprintk.c:383 (discriminator 13)
    3682:	f8d7 3098 	ldr.w	r3, [r7, #152]	; 0x98
    3686:	1d1a      	adds	r2, r3, #4
    3688:	f8c7 2098 	str.w	r2, [r7, #152]	; 0x98
    368c:	681b      	ldr	r3, [r3, #0]
    368e:	461a      	mov	r2, r3
    3690:	ea4f 73e2 	mov.w	r3, r2, asr #31
    3694:	e018      	b.n	36c8 <kprintf+0x464>
/home/csx/share/gerrit/optee_os/lib/libutils/ext/snprintk.c:383 (discriminator 14)
    3696:	6efb      	ldr	r3, [r7, #108]	; 0x6c
    3698:	f003 0340 	and.w	r3, r3, #64	; 0x40
    369c:	2b00      	cmp	r3, #0
    369e:	d00a      	beq.n	36b6 <kprintf+0x452>
/home/csx/share/gerrit/optee_os/lib/libutils/ext/snprintk.c:383 (discriminator 16)
    36a0:	f8d7 3098 	ldr.w	r3, [r7, #152]	; 0x98
    36a4:	1d1a      	adds	r2, r3, #4
    36a6:	f8c7 2098 	str.w	r2, [r7, #152]	; 0x98
    36aa:	681b      	ldr	r3, [r3, #0]
    36ac:	b29b      	uxth	r3, r3
    36ae:	b21a      	sxth	r2, r3
    36b0:	ea4f 73e2 	mov.w	r3, r2, asr #31
    36b4:	e008      	b.n	36c8 <kprintf+0x464>
/home/csx/share/gerrit/optee_os/lib/libutils/ext/snprintk.c:383 (discriminator 17)
    36b6:	f8d7 3098 	ldr.w	r3, [r7, #152]	; 0x98
    36ba:	1d1a      	adds	r2, r3, #4
    36bc:	f8c7 2098 	str.w	r2, [r7, #152]	; 0x98
    36c0:	681b      	ldr	r3, [r3, #0]
    36c2:	461a      	mov	r2, r3
    36c4:	ea4f 73e2 	mov.w	r3, r2, asr #31
/home/csx/share/gerrit/optee_os/lib/libutils/ext/snprintk.c:383 (discriminator 24)
    36c8:	e9c7 2314 	strd	r2, r3, [r7, #80]	; 0x50
/home/csx/share/gerrit/optee_os/lib/libutils/ext/snprintk.c:384 (discriminator 24)
    36cc:	e9d7 2314 	ldrd	r2, r3, [r7, #80]	; 0x50
    36d0:	2a00      	cmp	r2, #0
    36d2:	f173 0300 	sbcs.w	r3, r3, #0
    36d6:	da09      	bge.n	36ec <kprintf+0x488>
/home/csx/share/gerrit/optee_os/lib/libutils/ext/snprintk.c:385
    36d8:	e9d7 2314 	ldrd	r2, r3, [r7, #80]	; 0x50
    36dc:	4252      	negs	r2, r2
    36de:	eb63 0343 	sbc.w	r3, r3, r3, lsl #1
    36e2:	e9c7 2314 	strd	r2, r3, [r7, #80]	; 0x50
/home/csx/share/gerrit/optee_os/lib/libutils/ext/snprintk.c:386
    36e6:	232d      	movs	r3, #45	; 0x2d
    36e8:	f887 305f 	strb.w	r3, [r7, #95]	; 0x5f
/home/csx/share/gerrit/optee_os/lib/libutils/ext/snprintk.c:388
    36ec:	2301      	movs	r3, #1
    36ee:	64fb      	str	r3, [r7, #76]	; 0x4c
/home/csx/share/gerrit/optee_os/lib/libutils/ext/snprintk.c:389
    36f0:	e23d      	b.n	3b6e <kprintf+0x90a>
/home/csx/share/gerrit/optee_os/lib/libutils/ext/snprintk.c:391
    36f2:	6efb      	ldr	r3, [r7, #108]	; 0x6c
    36f4:	f003 0380 	and.w	r3, r3, #128	; 0x80
    36f8:	2b00      	cmp	r3, #0
    36fa:	d00c      	beq.n	3716 <kprintf+0x4b2>
/home/csx/share/gerrit/optee_os/lib/libutils/ext/snprintk.c:392
    36fc:	f8d7 3098 	ldr.w	r3, [r7, #152]	; 0x98
    3700:	1d1a      	adds	r2, r3, #4
    3702:	f8c7 2098 	str.w	r2, [r7, #152]	; 0x98
    3706:	6819      	ldr	r1, [r3, #0]
    3708:	6ebb      	ldr	r3, [r7, #104]	; 0x68
    370a:	461a      	mov	r2, r3
    370c:	ea4f 73e2 	mov.w	r3, r2, asr #31
    3710:	e9c1 2300 	strd	r2, r3, [r1]
    3714:	e053      	b.n	37be <kprintf+0x55a>
/home/csx/share/gerrit/optee_os/lib/libutils/ext/snprintk.c:393
    3716:	6efb      	ldr	r3, [r7, #108]	; 0x6c
    3718:	f403 7380 	and.w	r3, r3, #256	; 0x100
    371c:	2b00      	cmp	r3, #0
    371e:	d008      	beq.n	3732 <kprintf+0x4ce>
/home/csx/share/gerrit/optee_os/lib/libutils/ext/snprintk.c:394
    3720:	f8d7 3098 	ldr.w	r3, [r7, #152]	; 0x98
    3724:	1d1a      	adds	r2, r3, #4
    3726:	f8c7 2098 	str.w	r2, [r7, #152]	; 0x98
    372a:	681b      	ldr	r3, [r3, #0]
    372c:	6eba      	ldr	r2, [r7, #104]	; 0x68
    372e:	601a      	str	r2, [r3, #0]
    3730:	e045      	b.n	37be <kprintf+0x55a>
/home/csx/share/gerrit/optee_os/lib/libutils/ext/snprintk.c:395
    3732:	6efb      	ldr	r3, [r7, #108]	; 0x6c
    3734:	f403 7300 	and.w	r3, r3, #512	; 0x200
    3738:	2b00      	cmp	r3, #0
    373a:	d008      	beq.n	374e <kprintf+0x4ea>
/home/csx/share/gerrit/optee_os/lib/libutils/ext/snprintk.c:396
    373c:	f8d7 3098 	ldr.w	r3, [r7, #152]	; 0x98
    3740:	1d1a      	adds	r2, r3, #4
    3742:	f8c7 2098 	str.w	r2, [r7, #152]	; 0x98
    3746:	681b      	ldr	r3, [r3, #0]
    3748:	6eba      	ldr	r2, [r7, #104]	; 0x68
    374a:	601a      	str	r2, [r3, #0]
    374c:	e037      	b.n	37be <kprintf+0x55a>
/home/csx/share/gerrit/optee_os/lib/libutils/ext/snprintk.c:397
    374e:	6efb      	ldr	r3, [r7, #108]	; 0x6c
    3750:	f003 0320 	and.w	r3, r3, #32
    3754:	2b00      	cmp	r3, #0
    3756:	d00c      	beq.n	3772 <kprintf+0x50e>
/home/csx/share/gerrit/optee_os/lib/libutils/ext/snprintk.c:398
    3758:	f8d7 3098 	ldr.w	r3, [r7, #152]	; 0x98
    375c:	1d1a      	adds	r2, r3, #4
    375e:	f8c7 2098 	str.w	r2, [r7, #152]	; 0x98
    3762:	6819      	ldr	r1, [r3, #0]
    3764:	6ebb      	ldr	r3, [r7, #104]	; 0x68
    3766:	461a      	mov	r2, r3
    3768:	ea4f 73e2 	mov.w	r3, r2, asr #31
    376c:	e9c1 2300 	strd	r2, r3, [r1]
    3770:	e025      	b.n	37be <kprintf+0x55a>
/home/csx/share/gerrit/optee_os/lib/libutils/ext/snprintk.c:399
    3772:	6efb      	ldr	r3, [r7, #108]	; 0x6c
    3774:	f003 0310 	and.w	r3, r3, #16
    3778:	2b00      	cmp	r3, #0
    377a:	d008      	beq.n	378e <kprintf+0x52a>
/home/csx/share/gerrit/optee_os/lib/libutils/ext/snprintk.c:400
    377c:	f8d7 3098 	ldr.w	r3, [r7, #152]	; 0x98
    3780:	1d1a      	adds	r2, r3, #4
    3782:	f8c7 2098 	str.w	r2, [r7, #152]	; 0x98
    3786:	681b      	ldr	r3, [r3, #0]
    3788:	6eba      	ldr	r2, [r7, #104]	; 0x68
    378a:	601a      	str	r2, [r3, #0]
    378c:	e017      	b.n	37be <kprintf+0x55a>
/home/csx/share/gerrit/optee_os/lib/libutils/ext/snprintk.c:401
    378e:	6efb      	ldr	r3, [r7, #108]	; 0x6c
    3790:	f003 0340 	and.w	r3, r3, #64	; 0x40
    3794:	2b00      	cmp	r3, #0
    3796:	d009      	beq.n	37ac <kprintf+0x548>
/home/csx/share/gerrit/optee_os/lib/libutils/ext/snprintk.c:402
    3798:	f8d7 3098 	ldr.w	r3, [r7, #152]	; 0x98
    379c:	1d1a      	adds	r2, r3, #4
    379e:	f8c7 2098 	str.w	r2, [r7, #152]	; 0x98
    37a2:	681b      	ldr	r3, [r3, #0]
    37a4:	6eba      	ldr	r2, [r7, #104]	; 0x68
    37a6:	b292      	uxth	r2, r2
    37a8:	801a      	strh	r2, [r3, #0]
    37aa:	e008      	b.n	37be <kprintf+0x55a>
/home/csx/share/gerrit/optee_os/lib/libutils/ext/snprintk.c:404
    37ac:	f8d7 3098 	ldr.w	r3, [r7, #152]	; 0x98
    37b0:	1d1a      	adds	r2, r3, #4
    37b2:	f8c7 2098 	str.w	r2, [r7, #152]	; 0x98
    37b6:	681b      	ldr	r3, [r3, #0]
    37b8:	6eba      	ldr	r2, [r7, #104]	; 0x68
    37ba:	601a      	str	r2, [r3, #0]
/home/csx/share/gerrit/optee_os/lib/libutils/ext/snprintk.c:405
    37bc:	e387      	b.n	3ece <kprintf+0xc6a>
    37be:	e386      	b.n	3ece <kprintf+0xc6a>
/home/csx/share/gerrit/optee_os/lib/libutils/ext/snprintk.c:407
    37c0:	6efb      	ldr	r3, [r7, #108]	; 0x6c
    37c2:	f043 0310 	orr.w	r3, r3, #16
    37c6:	66fb      	str	r3, [r7, #108]	; 0x6c
/home/csx/share/gerrit/optee_os/lib/libutils/ext/snprintk.c:410
    37c8:	6efb      	ldr	r3, [r7, #108]	; 0x6c
    37ca:	f003 0380 	and.w	r3, r3, #128	; 0x80
    37ce:	2b00      	cmp	r3, #0
    37d0:	d00b      	beq.n	37ea <kprintf+0x586>
/home/csx/share/gerrit/optee_os/lib/libutils/ext/snprintk.c:410 (discriminator 1)
    37d2:	f8d7 3098 	ldr.w	r3, [r7, #152]	; 0x98
    37d6:	3307      	adds	r3, #7
    37d8:	f023 0307 	bic.w	r3, r3, #7
    37dc:	f103 0208 	add.w	r2, r3, #8
    37e0:	f8c7 2098 	str.w	r2, [r7, #152]	; 0x98
    37e4:	e9d3 2300 	ldrd	r2, r3, [r3]
    37e8:	e056      	b.n	3898 <kprintf+0x634>
/home/csx/share/gerrit/optee_os/lib/libutils/ext/snprintk.c:410 (discriminator 2)
    37ea:	6efb      	ldr	r3, [r7, #108]	; 0x6c
    37ec:	f403 7380 	and.w	r3, r3, #256	; 0x100
    37f0:	2b00      	cmp	r3, #0
    37f2:	d009      	beq.n	3808 <kprintf+0x5a4>
/home/csx/share/gerrit/optee_os/lib/libutils/ext/snprintk.c:410 (discriminator 4)
    37f4:	f8d7 3098 	ldr.w	r3, [r7, #152]	; 0x98
    37f8:	1d1a      	adds	r2, r3, #4
    37fa:	f8c7 2098 	str.w	r2, [r7, #152]	; 0x98
    37fe:	681b      	ldr	r3, [r3, #0]
    3800:	461a      	mov	r2, r3
    3802:	f04f 0300 	mov.w	r3, #0
    3806:	e047      	b.n	3898 <kprintf+0x634>
/home/csx/share/gerrit/optee_os/lib/libutils/ext/snprintk.c:410 (discriminator 5)
    3808:	6efb      	ldr	r3, [r7, #108]	; 0x6c
    380a:	f403 7300 	and.w	r3, r3, #512	; 0x200
    380e:	2b00      	cmp	r3, #0
    3810:	d009      	beq.n	3826 <kprintf+0x5c2>
/home/csx/share/gerrit/optee_os/lib/libutils/ext/snprintk.c:410 (discriminator 7)
    3812:	f8d7 3098 	ldr.w	r3, [r7, #152]	; 0x98
    3816:	1d1a      	adds	r2, r3, #4
    3818:	f8c7 2098 	str.w	r2, [r7, #152]	; 0x98
    381c:	681b      	ldr	r3, [r3, #0]
    381e:	461a      	mov	r2, r3
    3820:	f04f 0300 	mov.w	r3, #0
    3824:	e038      	b.n	3898 <kprintf+0x634>
/home/csx/share/gerrit/optee_os/lib/libutils/ext/snprintk.c:410 (discriminator 8)
    3826:	6efb      	ldr	r3, [r7, #108]	; 0x6c
    3828:	f003 0320 	and.w	r3, r3, #32
    382c:	2b00      	cmp	r3, #0
    382e:	d00b      	beq.n	3848 <kprintf+0x5e4>
/home/csx/share/gerrit/optee_os/lib/libutils/ext/snprintk.c:410 (discriminator 10)
    3830:	f8d7 3098 	ldr.w	r3, [r7, #152]	; 0x98
    3834:	3307      	adds	r3, #7
    3836:	f023 0307 	bic.w	r3, r3, #7
    383a:	f103 0208 	add.w	r2, r3, #8
    383e:	f8c7 2098 	str.w	r2, [r7, #152]	; 0x98
    3842:	e9d3 2300 	ldrd	r2, r3, [r3]
    3846:	e027      	b.n	3898 <kprintf+0x634>
/home/csx/share/gerrit/optee_os/lib/libutils/ext/snprintk.c:410 (discriminator 11)
    3848:	6efb      	ldr	r3, [r7, #108]	; 0x6c
    384a:	f003 0310 	and.w	r3, r3, #16
    384e:	2b00      	cmp	r3, #0
    3850:	d009      	beq.n	3866 <kprintf+0x602>
/home/csx/share/gerrit/optee_os/lib/libutils/ext/snprintk.c:410 (discriminator 13)
    3852:	f8d7 3098 	ldr.w	r3, [r7, #152]	; 0x98
    3856:	1d1a      	adds	r2, r3, #4
    3858:	f8c7 2098 	str.w	r2, [r7, #152]	; 0x98
    385c:	681b      	ldr	r3, [r3, #0]
    385e:	461a      	mov	r2, r3
    3860:	f04f 0300 	mov.w	r3, #0
    3864:	e018      	b.n	3898 <kprintf+0x634>
/home/csx/share/gerrit/optee_os/lib/libutils/ext/snprintk.c:410 (discriminator 14)
    3866:	6efb      	ldr	r3, [r7, #108]	; 0x6c
    3868:	f003 0340 	and.w	r3, r3, #64	; 0x40
    386c:	2b00      	cmp	r3, #0
    386e:	d00a      	beq.n	3886 <kprintf+0x622>
/home/csx/share/gerrit/optee_os/lib/libutils/ext/snprintk.c:410 (discriminator 16)
    3870:	f8d7 3098 	ldr.w	r3, [r7, #152]	; 0x98
    3874:	1d1a      	adds	r2, r3, #4
    3876:	f8c7 2098 	str.w	r2, [r7, #152]	; 0x98
    387a:	681b      	ldr	r3, [r3, #0]
    387c:	b29b      	uxth	r3, r3
    387e:	b29a      	uxth	r2, r3
    3880:	f04f 0300 	mov.w	r3, #0
    3884:	e008      	b.n	3898 <kprintf+0x634>
/home/csx/share/gerrit/optee_os/lib/libutils/ext/snprintk.c:410 (discriminator 17)
    3886:	f8d7 3098 	ldr.w	r3, [r7, #152]	; 0x98
    388a:	1d1a      	adds	r2, r3, #4
    388c:	f8c7 2098 	str.w	r2, [r7, #152]	; 0x98
    3890:	681b      	ldr	r3, [r3, #0]
    3892:	461a      	mov	r2, r3
    3894:	f04f 0300 	mov.w	r3, #0
/home/csx/share/gerrit/optee_os/lib/libutils/ext/snprintk.c:410 (discriminator 24)
    3898:	e9c7 2314 	strd	r2, r3, [r7, #80]	; 0x50
/home/csx/share/gerrit/optee_os/lib/libutils/ext/snprintk.c:411 (discriminator 24)
    389c:	2300      	movs	r3, #0
    389e:	64fb      	str	r3, [r7, #76]	; 0x4c
/home/csx/share/gerrit/optee_os/lib/libutils/ext/snprintk.c:412 (discriminator 24)
    38a0:	e162      	b.n	3b68 <kprintf+0x904>
/home/csx/share/gerrit/optee_os/lib/libutils/ext/snprintk.c:414
    38a2:	f897 309c 	ldrb.w	r3, [r7, #156]	; 0x9c
    38a6:	2b00      	cmp	r3, #0
    38a8:	d020      	beq.n	38ec <kprintf+0x688>
/home/csx/share/gerrit/optee_os/lib/libutils/ext/snprintk.c:414 (discriminator 1)
    38aa:	6ffb      	ldr	r3, [r7, #124]	; 0x7c
    38ac:	781b      	ldrb	r3, [r3, #0]
    38ae:	2b55      	cmp	r3, #85	; 0x55
    38b0:	d11c      	bne.n	38ec <kprintf+0x688>
/home/csx/share/gerrit/optee_os/lib/libutils/ext/snprintk.c:414 (discriminator 2)
    38b2:	6ffb      	ldr	r3, [r7, #124]	; 0x7c
    38b4:	3301      	adds	r3, #1
    38b6:	781b      	ldrb	r3, [r3, #0]
    38b8:	2b6c      	cmp	r3, #108	; 0x6c
    38ba:	d117      	bne.n	38ec <kprintf+0x688>
/home/csx/share/gerrit/optee_os/lib/libutils/ext/snprintk.c:419
    38bc:	6ffb      	ldr	r3, [r7, #124]	; 0x7c
    38be:	3302      	adds	r3, #2
    38c0:	67fb      	str	r3, [r7, #124]	; 0x7c
/home/csx/share/gerrit/optee_os/lib/libutils/ext/snprintk.c:420
    38c2:	f8d7 3098 	ldr.w	r3, [r7, #152]	; 0x98
    38c6:	1d1a      	adds	r2, r3, #4
    38c8:	f8c7 2098 	str.w	r2, [r7, #152]	; 0x98
    38cc:	681b      	ldr	r3, [r3, #0]
    38ce:	f107 0210 	add.w	r2, r7, #16
    38d2:	4610      	mov	r0, r2
    38d4:	2124      	movs	r1, #36	; 0x24
    38d6:	461a      	mov	r2, r3
    38d8:	f7ff fc70 	bl	31bc <uuid2str>
    38dc:	6438      	str	r0, [r7, #64]	; 0x40
/home/csx/share/gerrit/optee_os/lib/libutils/ext/snprintk.c:422
    38de:	f107 0310 	add.w	r3, r7, #16
    38e2:	673b      	str	r3, [r7, #112]	; 0x70
/home/csx/share/gerrit/optee_os/lib/libutils/ext/snprintk.c:423
    38e4:	2300      	movs	r3, #0
    38e6:	f887 305f 	strb.w	r3, [r7, #95]	; 0x5f
/home/csx/share/gerrit/optee_os/lib/libutils/ext/snprintk.c:424
    38ea:	e1f2      	b.n	3cd2 <kprintf+0xa6e>
/home/csx/share/gerrit/optee_os/lib/libutils/ext/snprintk.c:434
    38ec:	f8d7 3098 	ldr.w	r3, [r7, #152]	; 0x98
    38f0:	1d1a      	adds	r2, r3, #4
    38f2:	f8c7 2098 	str.w	r2, [r7, #152]	; 0x98
    38f6:	681b      	ldr	r3, [r3, #0]
    38f8:	461a      	mov	r2, r3
    38fa:	f04f 0300 	mov.w	r3, #0
    38fe:	e9c7 2314 	strd	r2, r3, [r7, #80]	; 0x50
/home/csx/share/gerrit/optee_os/lib/libutils/ext/snprintk.c:435
    3902:	2302      	movs	r3, #2
    3904:	64fb      	str	r3, [r7, #76]	; 0x4c
/home/csx/share/gerrit/optee_os/lib/libutils/ext/snprintk.c:436
    3906:	f8df 35f4 	ldr.w	r3, [pc, #1524]	; 3efc <kprintf+0xc98>
    390a:	447b      	add	r3, pc
    390c:	63fb      	str	r3, [r7, #60]	; 0x3c
/home/csx/share/gerrit/optee_os/lib/libutils/ext/snprintk.c:437
    390e:	6efb      	ldr	r3, [r7, #108]	; 0x6c
    3910:	f043 0302 	orr.w	r3, r3, #2
    3914:	66fb      	str	r3, [r7, #108]	; 0x6c
/home/csx/share/gerrit/optee_os/lib/libutils/ext/snprintk.c:438
    3916:	2378      	movs	r3, #120	; 0x78
    3918:	67bb      	str	r3, [r7, #120]	; 0x78
/home/csx/share/gerrit/optee_os/lib/libutils/ext/snprintk.c:439
    391a:	e125      	b.n	3b68 <kprintf+0x904>
/home/csx/share/gerrit/optee_os/lib/libutils/ext/snprintk.c:441
    391c:	f8d7 3098 	ldr.w	r3, [r7, #152]	; 0x98
    3920:	1d1a      	adds	r2, r3, #4
    3922:	f8c7 2098 	str.w	r2, [r7, #152]	; 0x98
    3926:	681b      	ldr	r3, [r3, #0]
    3928:	673b      	str	r3, [r7, #112]	; 0x70
    392a:	6f3b      	ldr	r3, [r7, #112]	; 0x70
    392c:	2b00      	cmp	r3, #0
    392e:	d103      	bne.n	3938 <kprintf+0x6d4>
/home/csx/share/gerrit/optee_os/lib/libutils/ext/snprintk.c:443
    3930:	f8df 35cc 	ldr.w	r3, [pc, #1484]	; 3f00 <kprintf+0xc9c>
    3934:	447b      	add	r3, pc
    3936:	673b      	str	r3, [r7, #112]	; 0x70
/home/csx/share/gerrit/optee_os/lib/libutils/ext/snprintk.c:444
    3938:	6e3b      	ldr	r3, [r7, #96]	; 0x60
    393a:	2b00      	cmp	r3, #0
    393c:	db18      	blt.n	3970 <kprintf+0x70c>
/home/csx/share/gerrit/optee_os/lib/libutils/ext/snprintk.c:450
    393e:	6e3b      	ldr	r3, [r7, #96]	; 0x60
    3940:	6f38      	ldr	r0, [r7, #112]	; 0x70
    3942:	2100      	movs	r1, #0
    3944:	461a      	mov	r2, r3
    3946:	f000 fc51 	bl	41ec <memchr>
    394a:	6378      	str	r0, [r7, #52]	; 0x34
/home/csx/share/gerrit/optee_os/lib/libutils/ext/snprintk.c:452
    394c:	6b7b      	ldr	r3, [r7, #52]	; 0x34
    394e:	2b00      	cmp	r3, #0
    3950:	d00a      	beq.n	3968 <kprintf+0x704>
/home/csx/share/gerrit/optee_os/lib/libutils/ext/snprintk.c:453
    3952:	6b7a      	ldr	r2, [r7, #52]	; 0x34
    3954:	6f3b      	ldr	r3, [r7, #112]	; 0x70
    3956:	1ad3      	subs	r3, r2, r3
    3958:	643b      	str	r3, [r7, #64]	; 0x40
/home/csx/share/gerrit/optee_os/lib/libutils/ext/snprintk.c:454
    395a:	6c3a      	ldr	r2, [r7, #64]	; 0x40
    395c:	6e3b      	ldr	r3, [r7, #96]	; 0x60
    395e:	429a      	cmp	r2, r3
    3960:	dd05      	ble.n	396e <kprintf+0x70a>
/home/csx/share/gerrit/optee_os/lib/libutils/ext/snprintk.c:455
    3962:	6e3b      	ldr	r3, [r7, #96]	; 0x60
    3964:	643b      	str	r3, [r7, #64]	; 0x40
    3966:	e008      	b.n	397a <kprintf+0x716>
/home/csx/share/gerrit/optee_os/lib/libutils/ext/snprintk.c:457
    3968:	6e3b      	ldr	r3, [r7, #96]	; 0x60
    396a:	643b      	str	r3, [r7, #64]	; 0x40
    396c:	e005      	b.n	397a <kprintf+0x716>
    396e:	e004      	b.n	397a <kprintf+0x716>
/home/csx/share/gerrit/optee_os/lib/libutils/ext/snprintk.c:459
    3970:	6f38      	ldr	r0, [r7, #112]	; 0x70
    3972:	f7ff fb81 	bl	3078 <strlen>
    3976:	4603      	mov	r3, r0
    3978:	643b      	str	r3, [r7, #64]	; 0x40
/home/csx/share/gerrit/optee_os/lib/libutils/ext/snprintk.c:460
    397a:	2300      	movs	r3, #0
    397c:	f887 305f 	strb.w	r3, [r7, #95]	; 0x5f
/home/csx/share/gerrit/optee_os/lib/libutils/ext/snprintk.c:461
    3980:	e1a7      	b.n	3cd2 <kprintf+0xa6e>
/home/csx/share/gerrit/optee_os/lib/libutils/ext/snprintk.c:463
    3982:	6efb      	ldr	r3, [r7, #108]	; 0x6c
    3984:	f043 0310 	orr.w	r3, r3, #16
    3988:	66fb      	str	r3, [r7, #108]	; 0x6c
/home/csx/share/gerrit/optee_os/lib/libutils/ext/snprintk.c:466
    398a:	6efb      	ldr	r3, [r7, #108]	; 0x6c
    398c:	f003 0380 	and.w	r3, r3, #128	; 0x80
    3990:	2b00      	cmp	r3, #0
    3992:	d00b      	beq.n	39ac <kprintf+0x748>
/home/csx/share/gerrit/optee_os/lib/libutils/ext/snprintk.c:466 (discriminator 1)
    3994:	f8d7 3098 	ldr.w	r3, [r7, #152]	; 0x98
    3998:	3307      	adds	r3, #7
    399a:	f023 0307 	bic.w	r3, r3, #7
    399e:	f103 0208 	add.w	r2, r3, #8
    39a2:	f8c7 2098 	str.w	r2, [r7, #152]	; 0x98
    39a6:	e9d3 2300 	ldrd	r2, r3, [r3]
    39aa:	e056      	b.n	3a5a <kprintf+0x7f6>
/home/csx/share/gerrit/optee_os/lib/libutils/ext/snprintk.c:466 (discriminator 2)
    39ac:	6efb      	ldr	r3, [r7, #108]	; 0x6c
    39ae:	f403 7380 	and.w	r3, r3, #256	; 0x100
    39b2:	2b00      	cmp	r3, #0
    39b4:	d009      	beq.n	39ca <kprintf+0x766>
/home/csx/share/gerrit/optee_os/lib/libutils/ext/snprintk.c:466 (discriminator 4)
    39b6:	f8d7 3098 	ldr.w	r3, [r7, #152]	; 0x98
    39ba:	1d1a      	adds	r2, r3, #4
    39bc:	f8c7 2098 	str.w	r2, [r7, #152]	; 0x98
    39c0:	681b      	ldr	r3, [r3, #0]
    39c2:	461a      	mov	r2, r3
    39c4:	f04f 0300 	mov.w	r3, #0
    39c8:	e047      	b.n	3a5a <kprintf+0x7f6>
/home/csx/share/gerrit/optee_os/lib/libutils/ext/snprintk.c:466 (discriminator 5)
    39ca:	6efb      	ldr	r3, [r7, #108]	; 0x6c
    39cc:	f403 7300 	and.w	r3, r3, #512	; 0x200
    39d0:	2b00      	cmp	r3, #0
    39d2:	d009      	beq.n	39e8 <kprintf+0x784>
/home/csx/share/gerrit/optee_os/lib/libutils/ext/snprintk.c:466 (discriminator 7)
    39d4:	f8d7 3098 	ldr.w	r3, [r7, #152]	; 0x98
    39d8:	1d1a      	adds	r2, r3, #4
    39da:	f8c7 2098 	str.w	r2, [r7, #152]	; 0x98
    39de:	681b      	ldr	r3, [r3, #0]
    39e0:	461a      	mov	r2, r3
    39e2:	f04f 0300 	mov.w	r3, #0
    39e6:	e038      	b.n	3a5a <kprintf+0x7f6>
/home/csx/share/gerrit/optee_os/lib/libutils/ext/snprintk.c:466 (discriminator 8)
    39e8:	6efb      	ldr	r3, [r7, #108]	; 0x6c
    39ea:	f003 0320 	and.w	r3, r3, #32
    39ee:	2b00      	cmp	r3, #0
    39f0:	d00b      	beq.n	3a0a <kprintf+0x7a6>
/home/csx/share/gerrit/optee_os/lib/libutils/ext/snprintk.c:466 (discriminator 10)
    39f2:	f8d7 3098 	ldr.w	r3, [r7, #152]	; 0x98
    39f6:	3307      	adds	r3, #7
    39f8:	f023 0307 	bic.w	r3, r3, #7
    39fc:	f103 0208 	add.w	r2, r3, #8
    3a00:	f8c7 2098 	str.w	r2, [r7, #152]	; 0x98
    3a04:	e9d3 2300 	ldrd	r2, r3, [r3]
    3a08:	e027      	b.n	3a5a <kprintf+0x7f6>
/home/csx/share/gerrit/optee_os/lib/libutils/ext/snprintk.c:466 (discriminator 11)
    3a0a:	6efb      	ldr	r3, [r7, #108]	; 0x6c
    3a0c:	f003 0310 	and.w	r3, r3, #16
    3a10:	2b00      	cmp	r3, #0
    3a12:	d009      	beq.n	3a28 <kprintf+0x7c4>
/home/csx/share/gerrit/optee_os/lib/libutils/ext/snprintk.c:466 (discriminator 13)
    3a14:	f8d7 3098 	ldr.w	r3, [r7, #152]	; 0x98
    3a18:	1d1a      	adds	r2, r3, #4
    3a1a:	f8c7 2098 	str.w	r2, [r7, #152]	; 0x98
    3a1e:	681b      	ldr	r3, [r3, #0]
    3a20:	461a      	mov	r2, r3
    3a22:	f04f 0300 	mov.w	r3, #0
    3a26:	e018      	b.n	3a5a <kprintf+0x7f6>
/home/csx/share/gerrit/optee_os/lib/libutils/ext/snprintk.c:466 (discriminator 14)
    3a28:	6efb      	ldr	r3, [r7, #108]	; 0x6c
    3a2a:	f003 0340 	and.w	r3, r3, #64	; 0x40
    3a2e:	2b00      	cmp	r3, #0
    3a30:	d00a      	beq.n	3a48 <kprintf+0x7e4>
/home/csx/share/gerrit/optee_os/lib/libutils/ext/snprintk.c:466 (discriminator 16)
    3a32:	f8d7 3098 	ldr.w	r3, [r7, #152]	; 0x98
    3a36:	1d1a      	adds	r2, r3, #4
    3a38:	f8c7 2098 	str.w	r2, [r7, #152]	; 0x98
    3a3c:	681b      	ldr	r3, [r3, #0]
    3a3e:	b29b      	uxth	r3, r3
    3a40:	b29a      	uxth	r2, r3
    3a42:	f04f 0300 	mov.w	r3, #0
    3a46:	e008      	b.n	3a5a <kprintf+0x7f6>
/home/csx/share/gerrit/optee_os/lib/libutils/ext/snprintk.c:466 (discriminator 17)
    3a48:	f8d7 3098 	ldr.w	r3, [r7, #152]	; 0x98
    3a4c:	1d1a      	adds	r2, r3, #4
    3a4e:	f8c7 2098 	str.w	r2, [r7, #152]	; 0x98
    3a52:	681b      	ldr	r3, [r3, #0]
    3a54:	461a      	mov	r2, r3
    3a56:	f04f 0300 	mov.w	r3, #0
/home/csx/share/gerrit/optee_os/lib/libutils/ext/snprintk.c:466 (discriminator 24)
    3a5a:	e9c7 2314 	strd	r2, r3, [r7, #80]	; 0x50
/home/csx/share/gerrit/optee_os/lib/libutils/ext/snprintk.c:467 (discriminator 24)
    3a5e:	2301      	movs	r3, #1
    3a60:	64fb      	str	r3, [r7, #76]	; 0x4c
/home/csx/share/gerrit/optee_os/lib/libutils/ext/snprintk.c:468 (discriminator 24)
    3a62:	e081      	b.n	3b68 <kprintf+0x904>
/home/csx/share/gerrit/optee_os/lib/libutils/ext/snprintk.c:470
    3a64:	f8df 349c 	ldr.w	r3, [pc, #1180]	; 3f04 <kprintf+0xca0>
    3a68:	447b      	add	r3, pc
    3a6a:	63fb      	str	r3, [r7, #60]	; 0x3c
/home/csx/share/gerrit/optee_os/lib/libutils/ext/snprintk.c:471
    3a6c:	e003      	b.n	3a76 <kprintf+0x812>
/home/csx/share/gerrit/optee_os/lib/libutils/ext/snprintk.c:473
    3a6e:	f8df 3498 	ldr.w	r3, [pc, #1176]	; 3f08 <kprintf+0xca4>
    3a72:	447b      	add	r3, pc
    3a74:	63fb      	str	r3, [r7, #60]	; 0x3c
/home/csx/share/gerrit/optee_os/lib/libutils/ext/snprintk.c:474
    3a76:	6efb      	ldr	r3, [r7, #108]	; 0x6c
    3a78:	f003 0380 	and.w	r3, r3, #128	; 0x80
    3a7c:	2b00      	cmp	r3, #0
    3a7e:	d00b      	beq.n	3a98 <kprintf+0x834>
/home/csx/share/gerrit/optee_os/lib/libutils/ext/snprintk.c:474 (discriminator 1)
    3a80:	f8d7 3098 	ldr.w	r3, [r7, #152]	; 0x98
    3a84:	3307      	adds	r3, #7
    3a86:	f023 0307 	bic.w	r3, r3, #7
    3a8a:	f103 0208 	add.w	r2, r3, #8
    3a8e:	f8c7 2098 	str.w	r2, [r7, #152]	; 0x98
    3a92:	e9d3 2300 	ldrd	r2, r3, [r3]
    3a96:	e056      	b.n	3b46 <kprintf+0x8e2>
/home/csx/share/gerrit/optee_os/lib/libutils/ext/snprintk.c:474 (discriminator 2)
    3a98:	6efb      	ldr	r3, [r7, #108]	; 0x6c
    3a9a:	f403 7380 	and.w	r3, r3, #256	; 0x100
    3a9e:	2b00      	cmp	r3, #0
    3aa0:	d009      	beq.n	3ab6 <kprintf+0x852>
/home/csx/share/gerrit/optee_os/lib/libutils/ext/snprintk.c:474 (discriminator 4)
    3aa2:	f8d7 3098 	ldr.w	r3, [r7, #152]	; 0x98
    3aa6:	1d1a      	adds	r2, r3, #4
    3aa8:	f8c7 2098 	str.w	r2, [r7, #152]	; 0x98
    3aac:	681b      	ldr	r3, [r3, #0]
    3aae:	461a      	mov	r2, r3
    3ab0:	f04f 0300 	mov.w	r3, #0
    3ab4:	e047      	b.n	3b46 <kprintf+0x8e2>
/home/csx/share/gerrit/optee_os/lib/libutils/ext/snprintk.c:474 (discriminator 5)
    3ab6:	6efb      	ldr	r3, [r7, #108]	; 0x6c
    3ab8:	f403 7300 	and.w	r3, r3, #512	; 0x200
    3abc:	2b00      	cmp	r3, #0
    3abe:	d009      	beq.n	3ad4 <kprintf+0x870>
/home/csx/share/gerrit/optee_os/lib/libutils/ext/snprintk.c:474 (discriminator 7)
    3ac0:	f8d7 3098 	ldr.w	r3, [r7, #152]	; 0x98
    3ac4:	1d1a      	adds	r2, r3, #4
    3ac6:	f8c7 2098 	str.w	r2, [r7, #152]	; 0x98
    3aca:	681b      	ldr	r3, [r3, #0]
    3acc:	461a      	mov	r2, r3
    3ace:	f04f 0300 	mov.w	r3, #0
    3ad2:	e038      	b.n	3b46 <kprintf+0x8e2>
/home/csx/share/gerrit/optee_os/lib/libutils/ext/snprintk.c:474 (discriminator 8)
    3ad4:	6efb      	ldr	r3, [r7, #108]	; 0x6c
    3ad6:	f003 0320 	and.w	r3, r3, #32
    3ada:	2b00      	cmp	r3, #0
    3adc:	d00b      	beq.n	3af6 <kprintf+0x892>
/home/csx/share/gerrit/optee_os/lib/libutils/ext/snprintk.c:474 (discriminator 10)
    3ade:	f8d7 3098 	ldr.w	r3, [r7, #152]	; 0x98
    3ae2:	3307      	adds	r3, #7
    3ae4:	f023 0307 	bic.w	r3, r3, #7
    3ae8:	f103 0208 	add.w	r2, r3, #8
    3aec:	f8c7 2098 	str.w	r2, [r7, #152]	; 0x98
    3af0:	e9d3 2300 	ldrd	r2, r3, [r3]
    3af4:	e027      	b.n	3b46 <kprintf+0x8e2>
/home/csx/share/gerrit/optee_os/lib/libutils/ext/snprintk.c:474 (discriminator 11)
    3af6:	6efb      	ldr	r3, [r7, #108]	; 0x6c
    3af8:	f003 0310 	and.w	r3, r3, #16
    3afc:	2b00      	cmp	r3, #0
    3afe:	d009      	beq.n	3b14 <kprintf+0x8b0>
/home/csx/share/gerrit/optee_os/lib/libutils/ext/snprintk.c:474 (discriminator 13)
    3b00:	f8d7 3098 	ldr.w	r3, [r7, #152]	; 0x98
    3b04:	1d1a      	adds	r2, r3, #4
    3b06:	f8c7 2098 	str.w	r2, [r7, #152]	; 0x98
    3b0a:	681b      	ldr	r3, [r3, #0]
    3b0c:	461a      	mov	r2, r3
    3b0e:	f04f 0300 	mov.w	r3, #0
    3b12:	e018      	b.n	3b46 <kprintf+0x8e2>
/home/csx/share/gerrit/optee_os/lib/libutils/ext/snprintk.c:474 (discriminator 14)
    3b14:	6efb      	ldr	r3, [r7, #108]	; 0x6c
    3b16:	f003 0340 	and.w	r3, r3, #64	; 0x40
    3b1a:	2b00      	cmp	r3, #0
    3b1c:	d00a      	beq.n	3b34 <kprintf+0x8d0>
/home/csx/share/gerrit/optee_os/lib/libutils/ext/snprintk.c:474 (discriminator 16)
    3b1e:	f8d7 3098 	ldr.w	r3, [r7, #152]	; 0x98
    3b22:	1d1a      	adds	r2, r3, #4
    3b24:	f8c7 2098 	str.w	r2, [r7, #152]	; 0x98
    3b28:	681b      	ldr	r3, [r3, #0]
    3b2a:	b29b      	uxth	r3, r3
    3b2c:	b29a      	uxth	r2, r3
    3b2e:	f04f 0300 	mov.w	r3, #0
    3b32:	e008      	b.n	3b46 <kprintf+0x8e2>
/home/csx/share/gerrit/optee_os/lib/libutils/ext/snprintk.c:474 (discriminator 17)
    3b34:	f8d7 3098 	ldr.w	r3, [r7, #152]	; 0x98
    3b38:	1d1a      	adds	r2, r3, #4
    3b3a:	f8c7 2098 	str.w	r2, [r7, #152]	; 0x98
    3b3e:	681b      	ldr	r3, [r3, #0]
    3b40:	461a      	mov	r2, r3
    3b42:	f04f 0300 	mov.w	r3, #0
/home/csx/share/gerrit/optee_os/lib/libutils/ext/snprintk.c:474 (discriminator 24)
    3b46:	e9c7 2314 	strd	r2, r3, [r7, #80]	; 0x50
/home/csx/share/gerrit/optee_os/lib/libutils/ext/snprintk.c:475 (discriminator 24)
    3b4a:	2302      	movs	r3, #2
    3b4c:	64fb      	str	r3, [r7, #76]	; 0x4c
/home/csx/share/gerrit/optee_os/lib/libutils/ext/snprintk.c:477 (discriminator 24)
    3b4e:	6efb      	ldr	r3, [r7, #108]	; 0x6c
    3b50:	f003 0301 	and.w	r3, r3, #1
    3b54:	2b00      	cmp	r3, #0
    3b56:	d007      	beq.n	3b68 <kprintf+0x904>
/home/csx/share/gerrit/optee_os/lib/libutils/ext/snprintk.c:477 (discriminator 1)
    3b58:	e9d7 2314 	ldrd	r2, r3, [r7, #80]	; 0x50
    3b5c:	4313      	orrs	r3, r2
    3b5e:	d003      	beq.n	3b68 <kprintf+0x904>
/home/csx/share/gerrit/optee_os/lib/libutils/ext/snprintk.c:478
    3b60:	6efb      	ldr	r3, [r7, #108]	; 0x6c
    3b62:	f043 0302 	orr.w	r3, r3, #2
    3b66:	66fb      	str	r3, [r7, #108]	; 0x6c
/home/csx/share/gerrit/optee_os/lib/libutils/ext/snprintk.c:481
    3b68:	2300      	movs	r3, #0
    3b6a:	f887 305f 	strb.w	r3, [r7, #95]	; 0x5f
/home/csx/share/gerrit/optee_os/lib/libutils/ext/snprintk.c:487
    3b6e:	6e3b      	ldr	r3, [r7, #96]	; 0x60
    3b70:	64bb      	str	r3, [r7, #72]	; 0x48
    3b72:	6cbb      	ldr	r3, [r7, #72]	; 0x48
    3b74:	2b00      	cmp	r3, #0
    3b76:	db03      	blt.n	3b80 <kprintf+0x91c>
/home/csx/share/gerrit/optee_os/lib/libutils/ext/snprintk.c:488
    3b78:	6efb      	ldr	r3, [r7, #108]	; 0x6c
    3b7a:	f423 6380 	bic.w	r3, r3, #1024	; 0x400
    3b7e:	66fb      	str	r3, [r7, #108]	; 0x6c
/home/csx/share/gerrit/optee_os/lib/libutils/ext/snprintk.c:495
    3b80:	f107 0310 	add.w	r3, r7, #16
    3b84:	3324      	adds	r3, #36	; 0x24
    3b86:	673b      	str	r3, [r7, #112]	; 0x70
/home/csx/share/gerrit/optee_os/lib/libutils/ext/snprintk.c:496
    3b88:	e9d7 2314 	ldrd	r2, r3, [r7, #80]	; 0x50
    3b8c:	4313      	orrs	r3, r2
    3b8e:	d103      	bne.n	3b98 <kprintf+0x934>
/home/csx/share/gerrit/optee_os/lib/libutils/ext/snprintk.c:496 (discriminator 1)
    3b90:	6e3b      	ldr	r3, [r7, #96]	; 0x60
    3b92:	2b00      	cmp	r3, #0
    3b94:	f000 8085 	beq.w	3ca2 <kprintf+0xa3e>
/home/csx/share/gerrit/optee_os/lib/libutils/ext/snprintk.c:502
    3b98:	6cfb      	ldr	r3, [r7, #76]	; 0x4c
    3b9a:	2b01      	cmp	r3, #1
    3b9c:	d04d      	beq.n	3c3a <kprintf+0x9d6>
    3b9e:	2b01      	cmp	r3, #1
    3ba0:	d302      	bcc.n	3ba8 <kprintf+0x944>
    3ba2:	2b02      	cmp	r3, #2
    3ba4:	d059      	beq.n	3c5a <kprintf+0x9f6>
    3ba6:	e072      	b.n	3c8e <kprintf+0xa2a>
/home/csx/share/gerrit/optee_os/lib/libutils/ext/snprintk.c:505 (discriminator 1)
    3ba8:	6f3b      	ldr	r3, [r7, #112]	; 0x70
    3baa:	3b01      	subs	r3, #1
    3bac:	673b      	str	r3, [r7, #112]	; 0x70
    3bae:	f897 3050 	ldrb.w	r3, [r7, #80]	; 0x50
    3bb2:	f003 0307 	and.w	r3, r3, #7
    3bb6:	b2db      	uxtb	r3, r3
    3bb8:	3330      	adds	r3, #48	; 0x30
    3bba:	b2da      	uxtb	r2, r3
    3bbc:	6f3b      	ldr	r3, [r7, #112]	; 0x70
    3bbe:	701a      	strb	r2, [r3, #0]
/home/csx/share/gerrit/optee_os/lib/libutils/ext/snprintk.c:506 (discriminator 1)
    3bc0:	e9d7 2314 	ldrd	r2, r3, [r7, #80]	; 0x50
    3bc4:	08d4      	lsrs	r4, r2, #3
    3bc6:	ea44 7443 	orr.w	r4, r4, r3, lsl #29
    3bca:	08dd      	lsrs	r5, r3, #3
    3bcc:	e9c7 4514 	strd	r4, r5, [r7, #80]	; 0x50
/home/csx/share/gerrit/optee_os/lib/libutils/ext/snprintk.c:507 (discriminator 1)
    3bd0:	e9d7 2314 	ldrd	r2, r3, [r7, #80]	; 0x50
    3bd4:	4313      	orrs	r3, r2
    3bd6:	d1e7      	bne.n	3ba8 <kprintf+0x944>
/home/csx/share/gerrit/optee_os/lib/libutils/ext/snprintk.c:509
    3bd8:	6efb      	ldr	r3, [r7, #108]	; 0x6c
    3bda:	f003 0301 	and.w	r3, r3, #1
    3bde:	2b00      	cmp	r3, #0
    3be0:	d00a      	beq.n	3bf8 <kprintf+0x994>
/home/csx/share/gerrit/optee_os/lib/libutils/ext/snprintk.c:509 (discriminator 1)
    3be2:	6f3b      	ldr	r3, [r7, #112]	; 0x70
    3be4:	781b      	ldrb	r3, [r3, #0]
    3be6:	2b30      	cmp	r3, #48	; 0x30
    3be8:	d006      	beq.n	3bf8 <kprintf+0x994>
/home/csx/share/gerrit/optee_os/lib/libutils/ext/snprintk.c:510
    3bea:	6f3b      	ldr	r3, [r7, #112]	; 0x70
    3bec:	3b01      	subs	r3, #1
    3bee:	673b      	str	r3, [r7, #112]	; 0x70
    3bf0:	6f3b      	ldr	r3, [r7, #112]	; 0x70
    3bf2:	2230      	movs	r2, #48	; 0x30
    3bf4:	701a      	strb	r2, [r3, #0]
/home/csx/share/gerrit/optee_os/lib/libutils/ext/snprintk.c:511
    3bf6:	e054      	b.n	3ca2 <kprintf+0xa3e>
    3bf8:	e053      	b.n	3ca2 <kprintf+0xa3e>
/home/csx/share/gerrit/optee_os/lib/libutils/ext/snprintk.c:516
    3bfa:	6f3b      	ldr	r3, [r7, #112]	; 0x70
    3bfc:	3b01      	subs	r3, #1
    3bfe:	673b      	str	r3, [r7, #112]	; 0x70
    3c00:	e9d7 2314 	ldrd	r2, r3, [r7, #80]	; 0x50
    3c04:	4610      	mov	r0, r2
    3c06:	4619      	mov	r1, r3
    3c08:	f04f 020a 	mov.w	r2, #10
    3c0c:	f04f 0300 	mov.w	r3, #0
    3c10:	f000 eb6e 	blx	42f0 <__aeabi_uldivmod>
    3c14:	b2d3      	uxtb	r3, r2
    3c16:	3330      	adds	r3, #48	; 0x30
    3c18:	b2da      	uxtb	r2, r3
    3c1a:	6f3b      	ldr	r3, [r7, #112]	; 0x70
    3c1c:	701a      	strb	r2, [r3, #0]
/home/csx/share/gerrit/optee_os/lib/libutils/ext/snprintk.c:517
    3c1e:	e9d7 2314 	ldrd	r2, r3, [r7, #80]	; 0x50
    3c22:	4610      	mov	r0, r2
    3c24:	4619      	mov	r1, r3
    3c26:	f04f 020a 	mov.w	r2, #10
    3c2a:	f04f 0300 	mov.w	r3, #0
    3c2e:	f000 eb60 	blx	42f0 <__aeabi_uldivmod>
    3c32:	4602      	mov	r2, r0
    3c34:	460b      	mov	r3, r1
    3c36:	e9c7 2314 	strd	r2, r3, [r7, #80]	; 0x50
/home/csx/share/gerrit/optee_os/lib/libutils/ext/snprintk.c:515
    3c3a:	e9d7 2314 	ldrd	r2, r3, [r7, #80]	; 0x50
    3c3e:	2b00      	cmp	r3, #0
    3c40:	bf08      	it	eq
    3c42:	2a0a      	cmpeq	r2, #10
    3c44:	d2d9      	bcs.n	3bfa <kprintf+0x996>
/home/csx/share/gerrit/optee_os/lib/libutils/ext/snprintk.c:519
    3c46:	6f3b      	ldr	r3, [r7, #112]	; 0x70
    3c48:	3b01      	subs	r3, #1
    3c4a:	673b      	str	r3, [r7, #112]	; 0x70
    3c4c:	f897 3050 	ldrb.w	r3, [r7, #80]	; 0x50
    3c50:	3330      	adds	r3, #48	; 0x30
    3c52:	b2da      	uxtb	r2, r3
    3c54:	6f3b      	ldr	r3, [r7, #112]	; 0x70
    3c56:	701a      	strb	r2, [r3, #0]
/home/csx/share/gerrit/optee_os/lib/libutils/ext/snprintk.c:520
    3c58:	e023      	b.n	3ca2 <kprintf+0xa3e>
/home/csx/share/gerrit/optee_os/lib/libutils/ext/snprintk.c:524 (discriminator 1)
    3c5a:	6f3b      	ldr	r3, [r7, #112]	; 0x70
    3c5c:	3b01      	subs	r3, #1
    3c5e:	673b      	str	r3, [r7, #112]	; 0x70
    3c60:	6d3b      	ldr	r3, [r7, #80]	; 0x50
    3c62:	f003 030f 	and.w	r3, r3, #15
    3c66:	6bfa      	ldr	r2, [r7, #60]	; 0x3c
    3c68:	4413      	add	r3, r2
    3c6a:	781a      	ldrb	r2, [r3, #0]
    3c6c:	6f3b      	ldr	r3, [r7, #112]	; 0x70
    3c6e:	701a      	strb	r2, [r3, #0]
/home/csx/share/gerrit/optee_os/lib/libutils/ext/snprintk.c:525 (discriminator 1)
    3c70:	e9d7 2314 	ldrd	r2, r3, [r7, #80]	; 0x50
    3c74:	ea4f 1812 	mov.w	r8, r2, lsr #4
    3c78:	ea48 7803 	orr.w	r8, r8, r3, lsl #28
    3c7c:	ea4f 1913 	mov.w	r9, r3, lsr #4
    3c80:	e9c7 8914 	strd	r8, r9, [r7, #80]	; 0x50
/home/csx/share/gerrit/optee_os/lib/libutils/ext/snprintk.c:526 (discriminator 1)
    3c84:	e9d7 2314 	ldrd	r2, r3, [r7, #80]	; 0x50
    3c88:	4313      	orrs	r3, r2
    3c8a:	d1e6      	bne.n	3c5a <kprintf+0x9f6>
/home/csx/share/gerrit/optee_os/lib/libutils/ext/snprintk.c:527
    3c8c:	e009      	b.n	3ca2 <kprintf+0xa3e>
/home/csx/share/gerrit/optee_os/lib/libutils/ext/snprintk.c:531
    3c8e:	4b9f      	ldr	r3, [pc, #636]	; (3f0c <kprintf+0xca8>)
    3c90:	447b      	add	r3, pc
    3c92:	673b      	str	r3, [r7, #112]	; 0x70
/home/csx/share/gerrit/optee_os/lib/libutils/ext/snprintk.c:532
    3c94:	6f38      	ldr	r0, [r7, #112]	; 0x70
    3c96:	f7ff f9ef 	bl	3078 <strlen>
    3c9a:	4603      	mov	r3, r0
    3c9c:	643b      	str	r3, [r7, #64]	; 0x40
/home/csx/share/gerrit/optee_os/lib/libutils/ext/snprintk.c:533
    3c9e:	bf00      	nop
/home/csx/share/gerrit/optee_os/lib/libutils/ext/snprintk.c:538
    3ca0:	e017      	b.n	3cd2 <kprintf+0xa6e>
/home/csx/share/gerrit/optee_os/lib/libutils/ext/snprintk.c:536
    3ca2:	f107 0310 	add.w	r3, r7, #16
    3ca6:	3324      	adds	r3, #36	; 0x24
    3ca8:	6f3a      	ldr	r2, [r7, #112]	; 0x70
    3caa:	1a9b      	subs	r3, r3, r2
    3cac:	643b      	str	r3, [r7, #64]	; 0x40
/home/csx/share/gerrit/optee_os/lib/libutils/ext/snprintk.c:538
    3cae:	e010      	b.n	3cd2 <kprintf+0xa6e>
/home/csx/share/gerrit/optee_os/lib/libutils/ext/snprintk.c:540
    3cb0:	6fbb      	ldr	r3, [r7, #120]	; 0x78
    3cb2:	2b00      	cmp	r3, #0
    3cb4:	d100      	bne.n	3cb8 <kprintf+0xa54>
/home/csx/share/gerrit/optee_os/lib/libutils/ext/snprintk.c:541
    3cb6:	e10c      	b.n	3ed2 <kprintf+0xc6e>
/home/csx/share/gerrit/optee_os/lib/libutils/ext/snprintk.c:543
    3cb8:	f107 0310 	add.w	r3, r7, #16
    3cbc:	673b      	str	r3, [r7, #112]	; 0x70
/home/csx/share/gerrit/optee_os/lib/libutils/ext/snprintk.c:544
    3cbe:	6fbb      	ldr	r3, [r7, #120]	; 0x78
    3cc0:	b2da      	uxtb	r2, r3
    3cc2:	6f3b      	ldr	r3, [r7, #112]	; 0x70
    3cc4:	701a      	strb	r2, [r3, #0]
/home/csx/share/gerrit/optee_os/lib/libutils/ext/snprintk.c:545
    3cc6:	2301      	movs	r3, #1
    3cc8:	643b      	str	r3, [r7, #64]	; 0x40
/home/csx/share/gerrit/optee_os/lib/libutils/ext/snprintk.c:546
    3cca:	2300      	movs	r3, #0
    3ccc:	f887 305f 	strb.w	r3, [r7, #95]	; 0x5f
/home/csx/share/gerrit/optee_os/lib/libutils/ext/snprintk.c:547
    3cd0:	bf00      	nop
/home/csx/share/gerrit/optee_os/lib/libutils/ext/snprintk.c:564
    3cd2:	6c3a      	ldr	r2, [r7, #64]	; 0x40
    3cd4:	6cbb      	ldr	r3, [r7, #72]	; 0x48
    3cd6:	4293      	cmp	r3, r2
    3cd8:	bfb8      	it	lt
    3cda:	4613      	movlt	r3, r2
    3cdc:	647b      	str	r3, [r7, #68]	; 0x44
/home/csx/share/gerrit/optee_os/lib/libutils/ext/snprintk.c:565
    3cde:	f897 305f 	ldrb.w	r3, [r7, #95]	; 0x5f
    3ce2:	2b00      	cmp	r3, #0
    3ce4:	d003      	beq.n	3cee <kprintf+0xa8a>
/home/csx/share/gerrit/optee_os/lib/libutils/ext/snprintk.c:566
    3ce6:	6c7b      	ldr	r3, [r7, #68]	; 0x44
    3ce8:	3301      	adds	r3, #1
    3cea:	647b      	str	r3, [r7, #68]	; 0x44
    3cec:	e007      	b.n	3cfe <kprintf+0xa9a>
/home/csx/share/gerrit/optee_os/lib/libutils/ext/snprintk.c:567
    3cee:	6efb      	ldr	r3, [r7, #108]	; 0x6c
    3cf0:	f003 0302 	and.w	r3, r3, #2
    3cf4:	2b00      	cmp	r3, #0
    3cf6:	d002      	beq.n	3cfe <kprintf+0xa9a>
/home/csx/share/gerrit/optee_os/lib/libutils/ext/snprintk.c:568
    3cf8:	6c7b      	ldr	r3, [r7, #68]	; 0x44
    3cfa:	3302      	adds	r3, #2
    3cfc:	647b      	str	r3, [r7, #68]	; 0x44
/home/csx/share/gerrit/optee_os/lib/libutils/ext/snprintk.c:571
    3cfe:	6c7a      	ldr	r2, [r7, #68]	; 0x44
    3d00:	6e7b      	ldr	r3, [r7, #100]	; 0x64
    3d02:	4293      	cmp	r3, r2
    3d04:	bfb8      	it	lt
    3d06:	4613      	movlt	r3, r2
    3d08:	6eba      	ldr	r2, [r7, #104]	; 0x68
    3d0a:	4413      	add	r3, r2
    3d0c:	66bb      	str	r3, [r7, #104]	; 0x68
/home/csx/share/gerrit/optee_os/lib/libutils/ext/snprintk.c:574
    3d0e:	6efa      	ldr	r2, [r7, #108]	; 0x6c
    3d10:	f240 4304 	movw	r3, #1028	; 0x404
    3d14:	4013      	ands	r3, r2
    3d16:	2b00      	cmp	r3, #0
    3d18:	d11b      	bne.n	3d52 <kprintf+0xaee>
/home/csx/share/gerrit/optee_os/lib/libutils/ext/snprintk.c:575
    3d1a:	6e7a      	ldr	r2, [r7, #100]	; 0x64
    3d1c:	6c7b      	ldr	r3, [r7, #68]	; 0x44
    3d1e:	1ad3      	subs	r3, r2, r3
    3d20:	677b      	str	r3, [r7, #116]	; 0x74
/home/csx/share/gerrit/optee_os/lib/libutils/ext/snprintk.c:576
    3d22:	e011      	b.n	3d48 <kprintf+0xae4>
/home/csx/share/gerrit/optee_os/lib/libutils/ext/snprintk.c:577
    3d24:	68bb      	ldr	r3, [r7, #8]
    3d26:	2b08      	cmp	r3, #8
    3d28:	d10e      	bne.n	3d48 <kprintf+0xae4>
/home/csx/share/gerrit/optee_os/lib/libutils/ext/snprintk.c:577 (discriminator 1)
    3d2a:	683b      	ldr	r3, [r7, #0]
    3d2c:	2b00      	cmp	r3, #0
    3d2e:	d00b      	beq.n	3d48 <kprintf+0xae4>
/home/csx/share/gerrit/optee_os/lib/libutils/ext/snprintk.c:577 (discriminator 2)
    3d30:	687b      	ldr	r3, [r7, #4]
    3d32:	2b00      	cmp	r3, #0
    3d34:	d003      	beq.n	3d3e <kprintf+0xada>
/home/csx/share/gerrit/optee_os/lib/libutils/ext/snprintk.c:577 (discriminator 4)
    3d36:	683a      	ldr	r2, [r7, #0]
    3d38:	6bbb      	ldr	r3, [r7, #56]	; 0x38
    3d3a:	429a      	cmp	r2, r3
    3d3c:	d204      	bcs.n	3d48 <kprintf+0xae4>
/home/csx/share/gerrit/optee_os/lib/libutils/ext/snprintk.c:577 (discriminator 5)
    3d3e:	683b      	ldr	r3, [r7, #0]
    3d40:	1c5a      	adds	r2, r3, #1
    3d42:	603a      	str	r2, [r7, #0]
    3d44:	2220      	movs	r2, #32
    3d46:	701a      	strb	r2, [r3, #0]
/home/csx/share/gerrit/optee_os/lib/libutils/ext/snprintk.c:576
    3d48:	6f7b      	ldr	r3, [r7, #116]	; 0x74
    3d4a:	1e5a      	subs	r2, r3, #1
    3d4c:	677a      	str	r2, [r7, #116]	; 0x74
    3d4e:	2b00      	cmp	r3, #0
    3d50:	dce8      	bgt.n	3d24 <kprintf+0xac0>
/home/csx/share/gerrit/optee_os/lib/libutils/ext/snprintk.c:581
    3d52:	f897 305f 	ldrb.w	r3, [r7, #95]	; 0x5f
    3d56:	2b00      	cmp	r3, #0
    3d58:	d013      	beq.n	3d82 <kprintf+0xb1e>
/home/csx/share/gerrit/optee_os/lib/libutils/ext/snprintk.c:582
    3d5a:	68bb      	ldr	r3, [r7, #8]
    3d5c:	2b08      	cmp	r3, #8
    3d5e:	d13a      	bne.n	3dd6 <kprintf+0xb72>
/home/csx/share/gerrit/optee_os/lib/libutils/ext/snprintk.c:582 (discriminator 1)
    3d60:	683b      	ldr	r3, [r7, #0]
    3d62:	2b00      	cmp	r3, #0
    3d64:	d037      	beq.n	3dd6 <kprintf+0xb72>
/home/csx/share/gerrit/optee_os/lib/libutils/ext/snprintk.c:582 (discriminator 2)
    3d66:	687b      	ldr	r3, [r7, #4]
    3d68:	2b00      	cmp	r3, #0
    3d6a:	d003      	beq.n	3d74 <kprintf+0xb10>
/home/csx/share/gerrit/optee_os/lib/libutils/ext/snprintk.c:582 (discriminator 4)
    3d6c:	683a      	ldr	r2, [r7, #0]
    3d6e:	6bbb      	ldr	r3, [r7, #56]	; 0x38
    3d70:	429a      	cmp	r2, r3
    3d72:	d230      	bcs.n	3dd6 <kprintf+0xb72>
/home/csx/share/gerrit/optee_os/lib/libutils/ext/snprintk.c:582 (discriminator 5)
    3d74:	683b      	ldr	r3, [r7, #0]
    3d76:	1c5a      	adds	r2, r3, #1
    3d78:	603a      	str	r2, [r7, #0]
    3d7a:	f897 205f 	ldrb.w	r2, [r7, #95]	; 0x5f
    3d7e:	701a      	strb	r2, [r3, #0]
    3d80:	e029      	b.n	3dd6 <kprintf+0xb72>
/home/csx/share/gerrit/optee_os/lib/libutils/ext/snprintk.c:583
    3d82:	6efb      	ldr	r3, [r7, #108]	; 0x6c
    3d84:	f003 0302 	and.w	r3, r3, #2
    3d88:	2b00      	cmp	r3, #0
    3d8a:	d024      	beq.n	3dd6 <kprintf+0xb72>
/home/csx/share/gerrit/optee_os/lib/libutils/ext/snprintk.c:584
    3d8c:	68bb      	ldr	r3, [r7, #8]
    3d8e:	2b08      	cmp	r3, #8
    3d90:	d10e      	bne.n	3db0 <kprintf+0xb4c>
/home/csx/share/gerrit/optee_os/lib/libutils/ext/snprintk.c:584 (discriminator 1)
    3d92:	683b      	ldr	r3, [r7, #0]
    3d94:	2b00      	cmp	r3, #0
    3d96:	d00b      	beq.n	3db0 <kprintf+0xb4c>
/home/csx/share/gerrit/optee_os/lib/libutils/ext/snprintk.c:584 (discriminator 2)
    3d98:	687b      	ldr	r3, [r7, #4]
    3d9a:	2b00      	cmp	r3, #0
    3d9c:	d003      	beq.n	3da6 <kprintf+0xb42>
/home/csx/share/gerrit/optee_os/lib/libutils/ext/snprintk.c:584 (discriminator 4)
    3d9e:	683a      	ldr	r2, [r7, #0]
    3da0:	6bbb      	ldr	r3, [r7, #56]	; 0x38
    3da2:	429a      	cmp	r2, r3
    3da4:	d204      	bcs.n	3db0 <kprintf+0xb4c>
/home/csx/share/gerrit/optee_os/lib/libutils/ext/snprintk.c:584 (discriminator 5)
    3da6:	683b      	ldr	r3, [r7, #0]
    3da8:	1c5a      	adds	r2, r3, #1
    3daa:	603a      	str	r2, [r7, #0]
    3dac:	2230      	movs	r2, #48	; 0x30
    3dae:	701a      	strb	r2, [r3, #0]
/home/csx/share/gerrit/optee_os/lib/libutils/ext/snprintk.c:585
    3db0:	68bb      	ldr	r3, [r7, #8]
    3db2:	2b08      	cmp	r3, #8
    3db4:	d10f      	bne.n	3dd6 <kprintf+0xb72>
/home/csx/share/gerrit/optee_os/lib/libutils/ext/snprintk.c:585 (discriminator 1)
    3db6:	683b      	ldr	r3, [r7, #0]
    3db8:	2b00      	cmp	r3, #0
    3dba:	d00c      	beq.n	3dd6 <kprintf+0xb72>
/home/csx/share/gerrit/optee_os/lib/libutils/ext/snprintk.c:585 (discriminator 2)
    3dbc:	687b      	ldr	r3, [r7, #4]
    3dbe:	2b00      	cmp	r3, #0
    3dc0:	d003      	beq.n	3dca <kprintf+0xb66>
/home/csx/share/gerrit/optee_os/lib/libutils/ext/snprintk.c:585 (discriminator 4)
    3dc2:	683a      	ldr	r2, [r7, #0]
    3dc4:	6bbb      	ldr	r3, [r7, #56]	; 0x38
    3dc6:	429a      	cmp	r2, r3
    3dc8:	d205      	bcs.n	3dd6 <kprintf+0xb72>
/home/csx/share/gerrit/optee_os/lib/libutils/ext/snprintk.c:585 (discriminator 5)
    3dca:	683b      	ldr	r3, [r7, #0]
    3dcc:	1c5a      	adds	r2, r3, #1
    3dce:	603a      	str	r2, [r7, #0]
    3dd0:	6fba      	ldr	r2, [r7, #120]	; 0x78
    3dd2:	b2d2      	uxtb	r2, r2
    3dd4:	701a      	strb	r2, [r3, #0]
/home/csx/share/gerrit/optee_os/lib/libutils/ext/snprintk.c:589
    3dd6:	6efa      	ldr	r2, [r7, #108]	; 0x6c
    3dd8:	f240 4304 	movw	r3, #1028	; 0x404
    3ddc:	4013      	ands	r3, r2
    3dde:	f5b3 6f80 	cmp.w	r3, #1024	; 0x400
    3de2:	d11b      	bne.n	3e1c <kprintf+0xbb8>
/home/csx/share/gerrit/optee_os/lib/libutils/ext/snprintk.c:590
    3de4:	6e7a      	ldr	r2, [r7, #100]	; 0x64
    3de6:	6c7b      	ldr	r3, [r7, #68]	; 0x44
    3de8:	1ad3      	subs	r3, r2, r3
    3dea:	677b      	str	r3, [r7, #116]	; 0x74
/home/csx/share/gerrit/optee_os/lib/libutils/ext/snprintk.c:591
    3dec:	e011      	b.n	3e12 <kprintf+0xbae>
/home/csx/share/gerrit/optee_os/lib/libutils/ext/snprintk.c:592
    3dee:	68bb      	ldr	r3, [r7, #8]
    3df0:	2b08      	cmp	r3, #8
    3df2:	d10e      	bne.n	3e12 <kprintf+0xbae>
/home/csx/share/gerrit/optee_os/lib/libutils/ext/snprintk.c:592 (discriminator 1)
    3df4:	683b      	ldr	r3, [r7, #0]
    3df6:	2b00      	cmp	r3, #0
    3df8:	d00b      	beq.n	3e12 <kprintf+0xbae>
/home/csx/share/gerrit/optee_os/lib/libutils/ext/snprintk.c:592 (discriminator 2)
    3dfa:	687b      	ldr	r3, [r7, #4]
    3dfc:	2b00      	cmp	r3, #0
    3dfe:	d003      	beq.n	3e08 <kprintf+0xba4>
/home/csx/share/gerrit/optee_os/lib/libutils/ext/snprintk.c:592 (discriminator 4)
    3e00:	683a      	ldr	r2, [r7, #0]
    3e02:	6bbb      	ldr	r3, [r7, #56]	; 0x38
    3e04:	429a      	cmp	r2, r3
    3e06:	d204      	bcs.n	3e12 <kprintf+0xbae>
/home/csx/share/gerrit/optee_os/lib/libutils/ext/snprintk.c:592 (discriminator 5)
    3e08:	683b      	ldr	r3, [r7, #0]
    3e0a:	1c5a      	adds	r2, r3, #1
    3e0c:	603a      	str	r2, [r7, #0]
    3e0e:	2230      	movs	r2, #48	; 0x30
    3e10:	701a      	strb	r2, [r3, #0]
/home/csx/share/gerrit/optee_os/lib/libutils/ext/snprintk.c:591
    3e12:	6f7b      	ldr	r3, [r7, #116]	; 0x74
    3e14:	1e5a      	subs	r2, r3, #1
    3e16:	677a      	str	r2, [r7, #116]	; 0x74
    3e18:	2b00      	cmp	r3, #0
    3e1a:	dce8      	bgt.n	3dee <kprintf+0xb8a>
/home/csx/share/gerrit/optee_os/lib/libutils/ext/snprintk.c:596
    3e1c:	6cba      	ldr	r2, [r7, #72]	; 0x48
    3e1e:	6c3b      	ldr	r3, [r7, #64]	; 0x40
    3e20:	1ad3      	subs	r3, r2, r3
    3e22:	677b      	str	r3, [r7, #116]	; 0x74
/home/csx/share/gerrit/optee_os/lib/libutils/ext/snprintk.c:597
    3e24:	e011      	b.n	3e4a <kprintf+0xbe6>
/home/csx/share/gerrit/optee_os/lib/libutils/ext/snprintk.c:598
    3e26:	68bb      	ldr	r3, [r7, #8]
    3e28:	2b08      	cmp	r3, #8
    3e2a:	d10e      	bne.n	3e4a <kprintf+0xbe6>
/home/csx/share/gerrit/optee_os/lib/libutils/ext/snprintk.c:598 (discriminator 1)
    3e2c:	683b      	ldr	r3, [r7, #0]
    3e2e:	2b00      	cmp	r3, #0
    3e30:	d00b      	beq.n	3e4a <kprintf+0xbe6>
/home/csx/share/gerrit/optee_os/lib/libutils/ext/snprintk.c:598 (discriminator 2)
    3e32:	687b      	ldr	r3, [r7, #4]
    3e34:	2b00      	cmp	r3, #0
    3e36:	d003      	beq.n	3e40 <kprintf+0xbdc>
/home/csx/share/gerrit/optee_os/lib/libutils/ext/snprintk.c:598 (discriminator 4)
    3e38:	683a      	ldr	r2, [r7, #0]
    3e3a:	6bbb      	ldr	r3, [r7, #56]	; 0x38
    3e3c:	429a      	cmp	r2, r3
    3e3e:	d204      	bcs.n	3e4a <kprintf+0xbe6>
/home/csx/share/gerrit/optee_os/lib/libutils/ext/snprintk.c:598 (discriminator 5)
    3e40:	683b      	ldr	r3, [r7, #0]
    3e42:	1c5a      	adds	r2, r3, #1
    3e44:	603a      	str	r2, [r7, #0]
    3e46:	2230      	movs	r2, #48	; 0x30
    3e48:	701a      	strb	r2, [r3, #0]
/home/csx/share/gerrit/optee_os/lib/libutils/ext/snprintk.c:597
    3e4a:	6f7b      	ldr	r3, [r7, #116]	; 0x74
    3e4c:	1e5a      	subs	r2, r3, #1
    3e4e:	677a      	str	r2, [r7, #116]	; 0x74
    3e50:	2b00      	cmp	r3, #0
    3e52:	dce8      	bgt.n	3e26 <kprintf+0xbc2>
/home/csx/share/gerrit/optee_os/lib/libutils/ext/snprintk.c:601
    3e54:	e015      	b.n	3e82 <kprintf+0xc1e>
/home/csx/share/gerrit/optee_os/lib/libutils/ext/snprintk.c:602
    3e56:	68bb      	ldr	r3, [r7, #8]
    3e58:	2b08      	cmp	r3, #8
    3e5a:	d10f      	bne.n	3e7c <kprintf+0xc18>
/home/csx/share/gerrit/optee_os/lib/libutils/ext/snprintk.c:602 (discriminator 1)
    3e5c:	683b      	ldr	r3, [r7, #0]
    3e5e:	2b00      	cmp	r3, #0
    3e60:	d00c      	beq.n	3e7c <kprintf+0xc18>
/home/csx/share/gerrit/optee_os/lib/libutils/ext/snprintk.c:602 (discriminator 2)
    3e62:	687b      	ldr	r3, [r7, #4]
    3e64:	2b00      	cmp	r3, #0
    3e66:	d003      	beq.n	3e70 <kprintf+0xc0c>
/home/csx/share/gerrit/optee_os/lib/libutils/ext/snprintk.c:602 (discriminator 4)
    3e68:	683a      	ldr	r2, [r7, #0]
    3e6a:	6bbb      	ldr	r3, [r7, #56]	; 0x38
    3e6c:	429a      	cmp	r2, r3
    3e6e:	d205      	bcs.n	3e7c <kprintf+0xc18>
/home/csx/share/gerrit/optee_os/lib/libutils/ext/snprintk.c:602 (discriminator 5)
    3e70:	683b      	ldr	r3, [r7, #0]
    3e72:	1c5a      	adds	r2, r3, #1
    3e74:	603a      	str	r2, [r7, #0]
    3e76:	6f3a      	ldr	r2, [r7, #112]	; 0x70
    3e78:	7812      	ldrb	r2, [r2, #0]
    3e7a:	701a      	strb	r2, [r3, #0]
/home/csx/share/gerrit/optee_os/lib/libutils/ext/snprintk.c:601
    3e7c:	6f3b      	ldr	r3, [r7, #112]	; 0x70
    3e7e:	3301      	adds	r3, #1
    3e80:	673b      	str	r3, [r7, #112]	; 0x70
/home/csx/share/gerrit/optee_os/lib/libutils/ext/snprintk.c:601 (discriminator 1)
    3e82:	6c3b      	ldr	r3, [r7, #64]	; 0x40
    3e84:	1e5a      	subs	r2, r3, #1
    3e86:	643a      	str	r2, [r7, #64]	; 0x40
    3e88:	2b00      	cmp	r3, #0
    3e8a:	d1e4      	bne.n	3e56 <kprintf+0xbf2>
/home/csx/share/gerrit/optee_os/lib/libutils/ext/snprintk.c:604
    3e8c:	6efb      	ldr	r3, [r7, #108]	; 0x6c
    3e8e:	f003 0304 	and.w	r3, r3, #4
    3e92:	2b00      	cmp	r3, #0
    3e94:	d01b      	beq.n	3ece <kprintf+0xc6a>
/home/csx/share/gerrit/optee_os/lib/libutils/ext/snprintk.c:605
    3e96:	6e7a      	ldr	r2, [r7, #100]	; 0x64
    3e98:	6c7b      	ldr	r3, [r7, #68]	; 0x44
    3e9a:	1ad3      	subs	r3, r2, r3
    3e9c:	677b      	str	r3, [r7, #116]	; 0x74
/home/csx/share/gerrit/optee_os/lib/libutils/ext/snprintk.c:606
    3e9e:	e011      	b.n	3ec4 <kprintf+0xc60>
/home/csx/share/gerrit/optee_os/lib/libutils/ext/snprintk.c:607
    3ea0:	68bb      	ldr	r3, [r7, #8]
    3ea2:	2b08      	cmp	r3, #8
    3ea4:	d10e      	bne.n	3ec4 <kprintf+0xc60>
/home/csx/share/gerrit/optee_os/lib/libutils/ext/snprintk.c:607 (discriminator 1)
    3ea6:	683b      	ldr	r3, [r7, #0]
    3ea8:	2b00      	cmp	r3, #0
    3eaa:	d00b      	beq.n	3ec4 <kprintf+0xc60>
/home/csx/share/gerrit/optee_os/lib/libutils/ext/snprintk.c:607 (discriminator 2)
    3eac:	687b      	ldr	r3, [r7, #4]
    3eae:	2b00      	cmp	r3, #0
    3eb0:	d003      	beq.n	3eba <kprintf+0xc56>
/home/csx/share/gerrit/optee_os/lib/libutils/ext/snprintk.c:607 (discriminator 4)
    3eb2:	683a      	ldr	r2, [r7, #0]
    3eb4:	6bbb      	ldr	r3, [r7, #56]	; 0x38
    3eb6:	429a      	cmp	r2, r3
    3eb8:	d204      	bcs.n	3ec4 <kprintf+0xc60>
/home/csx/share/gerrit/optee_os/lib/libutils/ext/snprintk.c:607 (discriminator 5)
    3eba:	683b      	ldr	r3, [r7, #0]
    3ebc:	1c5a      	adds	r2, r3, #1
    3ebe:	603a      	str	r2, [r7, #0]
    3ec0:	2220      	movs	r2, #32
    3ec2:	701a      	strb	r2, [r3, #0]
/home/csx/share/gerrit/optee_os/lib/libutils/ext/snprintk.c:606
    3ec4:	6f7b      	ldr	r3, [r7, #116]	; 0x74
    3ec6:	1e5a      	subs	r2, r3, #1
    3ec8:	677a      	str	r2, [r7, #116]	; 0x74
    3eca:	2b00      	cmp	r3, #0
    3ecc:	dce8      	bgt.n	3ea0 <kprintf+0xc3c>
/home/csx/share/gerrit/optee_os/lib/libutils/ext/snprintk.c:609
    3ece:	f7ff b9eb 	b.w	32a8 <kprintf+0x44>
/home/csx/share/gerrit/optee_os/lib/libutils/ext/snprintk.c:612
    3ed2:	68bb      	ldr	r3, [r7, #8]
    3ed4:	2b08      	cmp	r3, #8
    3ed6:	d105      	bne.n	3ee4 <kprintf+0xc80>
/home/csx/share/gerrit/optee_os/lib/libutils/ext/snprintk.c:612 (discriminator 1)
    3ed8:	687b      	ldr	r3, [r7, #4]
    3eda:	2b00      	cmp	r3, #0
    3edc:	d002      	beq.n	3ee4 <kprintf+0xc80>
/home/csx/share/gerrit/optee_os/lib/libutils/ext/snprintk.c:613
    3ede:	687b      	ldr	r3, [r7, #4]
    3ee0:	683a      	ldr	r2, [r7, #0]
    3ee2:	601a      	str	r2, [r3, #0]
/home/csx/share/gerrit/optee_os/lib/libutils/ext/snprintk.c:614
    3ee4:	6ebb      	ldr	r3, [r7, #104]	; 0x68
/home/csx/share/gerrit/optee_os/lib/libutils/ext/snprintk.c:615
    3ee6:	4618      	mov	r0, r3
    3ee8:	3780      	adds	r7, #128	; 0x80
    3eea:	46bd      	mov	sp, r7
    3eec:	e9dd 4500 	ldrd	r4, r5, [sp]
    3ef0:	e9dd 7802 	ldrd	r7, r8, [sp, #8]
    3ef4:	b004      	add	sp, #16
    3ef6:	e8bd 8200 	ldmia.w	sp!, {r9, pc}
    3efa:	bf00      	nop
    3efc:	0000554e 	.word	0x0000554e
    3f00:	0000557c 	.word	0x0000557c
    3f04:	00005404 	.word	0x00005404
    3f08:	000053e6 	.word	0x000053e6
    3f0c:	00005228 	.word	0x00005228

00003f10 <strlcpy>:
strlcpy():
/home/csx/share/gerrit/optee_os/lib/libutils/ext/strlcpy.c:46
    3f10:	e96d 4504 	strd	r4, r5, [sp, #-16]!
    3f14:	e9cd 6702 	strd	r6, r7, [sp, #8]
    3f18:	b084      	sub	sp, #16
    3f1a:	af00      	add	r7, sp, #0
    3f1c:	60f8      	str	r0, [r7, #12]
    3f1e:	60b9      	str	r1, [r7, #8]
    3f20:	607a      	str	r2, [r7, #4]
/home/csx/share/gerrit/optee_os/lib/libutils/ext/strlcpy.c:47
    3f22:	68fe      	ldr	r6, [r7, #12]
/home/csx/share/gerrit/optee_os/lib/libutils/ext/strlcpy.c:48
    3f24:	68bd      	ldr	r5, [r7, #8]
/home/csx/share/gerrit/optee_os/lib/libutils/ext/strlcpy.c:49
    3f26:	687c      	ldr	r4, [r7, #4]
/home/csx/share/gerrit/optee_os/lib/libutils/ext/strlcpy.c:52
    3f28:	2c00      	cmp	r4, #0
    3f2a:	d00f      	beq.n	3f4c <strlcpy+0x3c>
/home/csx/share/gerrit/optee_os/lib/libutils/ext/strlcpy.c:52 (discriminator 1)
    3f2c:	3c01      	subs	r4, #1
    3f2e:	2c00      	cmp	r4, #0
    3f30:	d00c      	beq.n	3f4c <strlcpy+0x3c>
/home/csx/share/gerrit/optee_os/lib/libutils/ext/strlcpy.c:54
    3f32:	4633      	mov	r3, r6
    3f34:	1c5e      	adds	r6, r3, #1
    3f36:	462a      	mov	r2, r5
    3f38:	1c55      	adds	r5, r2, #1
    3f3a:	7812      	ldrb	r2, [r2, #0]
    3f3c:	701a      	strb	r2, [r3, #0]
    3f3e:	781b      	ldrb	r3, [r3, #0]
    3f40:	2b00      	cmp	r3, #0
    3f42:	d100      	bne.n	3f46 <strlcpy+0x36>
/home/csx/share/gerrit/optee_os/lib/libutils/ext/strlcpy.c:55
    3f44:	e002      	b.n	3f4c <strlcpy+0x3c>
/home/csx/share/gerrit/optee_os/lib/libutils/ext/strlcpy.c:56
    3f46:	3c01      	subs	r4, #1
    3f48:	2c00      	cmp	r4, #0
    3f4a:	d1f2      	bne.n	3f32 <strlcpy+0x22>
/home/csx/share/gerrit/optee_os/lib/libutils/ext/strlcpy.c:60
    3f4c:	2c00      	cmp	r4, #0
    3f4e:	d10a      	bne.n	3f66 <strlcpy+0x56>
/home/csx/share/gerrit/optee_os/lib/libutils/ext/strlcpy.c:61
    3f50:	687b      	ldr	r3, [r7, #4]
    3f52:	2b00      	cmp	r3, #0
    3f54:	d001      	beq.n	3f5a <strlcpy+0x4a>
/home/csx/share/gerrit/optee_os/lib/libutils/ext/strlcpy.c:62
    3f56:	2300      	movs	r3, #0
    3f58:	7033      	strb	r3, [r6, #0]
/home/csx/share/gerrit/optee_os/lib/libutils/ext/strlcpy.c:63
    3f5a:	bf00      	nop
/home/csx/share/gerrit/optee_os/lib/libutils/ext/strlcpy.c:63 (discriminator 1)
    3f5c:	462b      	mov	r3, r5
    3f5e:	1c5d      	adds	r5, r3, #1
    3f60:	781b      	ldrb	r3, [r3, #0]
    3f62:	2b00      	cmp	r3, #0
    3f64:	d1fa      	bne.n	3f5c <strlcpy+0x4c>
/home/csx/share/gerrit/optee_os/lib/libutils/ext/strlcpy.c:67
    3f66:	462a      	mov	r2, r5
    3f68:	68bb      	ldr	r3, [r7, #8]
    3f6a:	1ad3      	subs	r3, r2, r3
    3f6c:	3b01      	subs	r3, #1
/home/csx/share/gerrit/optee_os/lib/libutils/ext/strlcpy.c:68
    3f6e:	4618      	mov	r0, r3
    3f70:	3710      	adds	r7, #16
    3f72:	46bd      	mov	sp, r7
    3f74:	e9dd 4500 	ldrd	r4, r5, [sp]
    3f78:	e9dd 6702 	ldrd	r6, r7, [sp, #8]
    3f7c:	b004      	add	sp, #16
    3f7e:	4770      	bx	lr

00003f80 <trace_set_level>:
trace_set_level():
/home/csx/share/gerrit/optee_os/lib/libutils/ext/trace.c:42
    3f80:	f84d 7d04 	str.w	r7, [sp, #-4]!
    3f84:	b083      	sub	sp, #12
    3f86:	af00      	add	r7, sp, #0
    3f88:	6078      	str	r0, [r7, #4]
    3f8a:	4b0c      	ldr	r3, [pc, #48]	; (3fbc <trace_set_level+0x3c>)
    3f8c:	447b      	add	r3, pc
/home/csx/share/gerrit/optee_os/lib/libutils/ext/trace.c:43
    3f8e:	687a      	ldr	r2, [r7, #4]
    3f90:	2a00      	cmp	r2, #0
    3f92:	dd08      	ble.n	3fa6 <trace_set_level+0x26>
/home/csx/share/gerrit/optee_os/lib/libutils/ext/trace.c:43 (discriminator 1)
    3f94:	687a      	ldr	r2, [r7, #4]
    3f96:	2a04      	cmp	r2, #4
    3f98:	dc05      	bgt.n	3fa6 <trace_set_level+0x26>
/home/csx/share/gerrit/optee_os/lib/libutils/ext/trace.c:44
    3f9a:	4a09      	ldr	r2, [pc, #36]	; (3fc0 <trace_set_level+0x40>)
    3f9c:	589b      	ldr	r3, [r3, r2]
    3f9e:	461a      	mov	r2, r3
    3fa0:	687b      	ldr	r3, [r7, #4]
    3fa2:	6013      	str	r3, [r2, #0]
    3fa4:	e004      	b.n	3fb0 <trace_set_level+0x30>
/home/csx/share/gerrit/optee_os/lib/libutils/ext/trace.c:46
    3fa6:	4a06      	ldr	r2, [pc, #24]	; (3fc0 <trace_set_level+0x40>)
    3fa8:	589b      	ldr	r3, [r3, r2]
    3faa:	461a      	mov	r2, r3
    3fac:	2304      	movs	r3, #4
    3fae:	6013      	str	r3, [r2, #0]
/home/csx/share/gerrit/optee_os/lib/libutils/ext/trace.c:47
    3fb0:	370c      	adds	r7, #12
    3fb2:	46bd      	mov	sp, r7
    3fb4:	f85d 7b04 	ldr.w	r7, [sp], #4
    3fb8:	4770      	bx	lr
    3fba:	bf00      	nop
    3fbc:	00006050 	.word	0x00006050
    3fc0:	00000018 	.word	0x00000018

00003fc4 <trace_get_level>:
trace_get_level():
/home/csx/share/gerrit/optee_os/lib/libutils/ext/trace.c:50
    3fc4:	f84d 7d04 	str.w	r7, [sp, #-4]!
    3fc8:	af00      	add	r7, sp, #0
    3fca:	4a05      	ldr	r2, [pc, #20]	; (3fe0 <trace_get_level+0x1c>)
    3fcc:	447a      	add	r2, pc
/home/csx/share/gerrit/optee_os/lib/libutils/ext/trace.c:51
    3fce:	4b05      	ldr	r3, [pc, #20]	; (3fe4 <trace_get_level+0x20>)
    3fd0:	58d3      	ldr	r3, [r2, r3]
    3fd2:	681b      	ldr	r3, [r3, #0]
/home/csx/share/gerrit/optee_os/lib/libutils/ext/trace.c:52
    3fd4:	4618      	mov	r0, r3
    3fd6:	46bd      	mov	sp, r7
    3fd8:	f85d 7b04 	ldr.w	r7, [sp], #4
    3fdc:	4770      	bx	lr
    3fde:	bf00      	nop
    3fe0:	00006010 	.word	0x00006010
    3fe4:	00000018 	.word	0x00000018

00003fe8 <trace_level_to_string>:
trace_level_to_string():
/home/csx/share/gerrit/optee_os/lib/libutils/ext/trace.c:55
    3fe8:	f84d 7d04 	str.w	r7, [sp, #-4]!
    3fec:	b085      	sub	sp, #20
    3fee:	af00      	add	r7, sp, #0
    3ff0:	6078      	str	r0, [r7, #4]
    3ff2:	460b      	mov	r3, r1
    3ff4:	70fb      	strb	r3, [r7, #3]
/home/csx/share/gerrit/optee_os/lib/libutils/ext/trace.c:58
    3ff6:	2300      	movs	r3, #0
    3ff8:	60fb      	str	r3, [r7, #12]
/home/csx/share/gerrit/optee_os/lib/libutils/ext/trace.c:60
    3ffa:	78fb      	ldrb	r3, [r7, #3]
    3ffc:	f083 0301 	eor.w	r3, r3, #1
    4000:	b2db      	uxtb	r3, r3
    4002:	2b00      	cmp	r3, #0
    4004:	d002      	beq.n	400c <trace_level_to_string+0x24>
/home/csx/share/gerrit/optee_os/lib/libutils/ext/trace.c:61
    4006:	4b0b      	ldr	r3, [pc, #44]	; (4034 <trace_level_to_string+0x4c>)
    4008:	447b      	add	r3, pc
    400a:	e00c      	b.n	4026 <trace_level_to_string+0x3e>
/home/csx/share/gerrit/optee_os/lib/libutils/ext/trace.c:63
    400c:	687b      	ldr	r3, [r7, #4]
    400e:	2b00      	cmp	r3, #0
    4010:	dd04      	ble.n	401c <trace_level_to_string+0x34>
/home/csx/share/gerrit/optee_os/lib/libutils/ext/trace.c:63 (discriminator 1)
    4012:	687b      	ldr	r3, [r7, #4]
    4014:	2b04      	cmp	r3, #4
    4016:	dc01      	bgt.n	401c <trace_level_to_string+0x34>
/home/csx/share/gerrit/optee_os/lib/libutils/ext/trace.c:64
    4018:	687b      	ldr	r3, [r7, #4]
    401a:	60fb      	str	r3, [r7, #12]
/home/csx/share/gerrit/optee_os/lib/libutils/ext/trace.c:66
    401c:	68fb      	ldr	r3, [r7, #12]
    401e:	009b      	lsls	r3, r3, #2
    4020:	4a05      	ldr	r2, [pc, #20]	; (4038 <trace_level_to_string+0x50>)
    4022:	447a      	add	r2, pc
    4024:	4413      	add	r3, r2
/home/csx/share/gerrit/optee_os/lib/libutils/ext/trace.c:67
    4026:	4618      	mov	r0, r3
    4028:	3714      	adds	r7, #20
    402a:	46bd      	mov	sp, r7
    402c:	f85d 7b04 	ldr.w	r7, [sp], #4
    4030:	4770      	bx	lr
    4032:	bf00      	nop
    4034:	00004ecc 	.word	0x00004ecc
    4038:	00004ede 	.word	0x00004ede

0000403c <trace_printf>:
trace_printf():
/home/csx/share/gerrit/optee_os/lib/libutils/ext/trace.c:72
    403c:	e96d 4504 	strd	r4, r5, [sp, #-16]!
    4040:	e9cd 7e02 	strd	r7, lr, [sp, #8]
    4044:	b0cc      	sub	sp, #304	; 0x130
    4046:	af04      	add	r7, sp, #16
    4048:	f107 040c 	add.w	r4, r7, #12
    404c:	6020      	str	r0, [r4, #0]
    404e:	f107 0008 	add.w	r0, r7, #8
    4052:	6001      	str	r1, [r0, #0]
    4054:	1d39      	adds	r1, r7, #4
    4056:	600a      	str	r2, [r1, #0]
    4058:	461a      	mov	r2, r3
    405a:	1cfb      	adds	r3, r7, #3
    405c:	701a      	strb	r2, [r3, #0]
    405e:	4c57      	ldr	r4, [pc, #348]	; (41bc <trace_printf+0x180>)
    4060:	447c      	add	r4, pc
/home/csx/share/gerrit/optee_os/lib/libutils/ext/trace.c:75
    4062:	2300      	movs	r3, #0
    4064:	f8c7 311c 	str.w	r3, [r7, #284]	; 0x11c
/home/csx/share/gerrit/optee_os/lib/libutils/ext/trace.c:78
    4068:	1cfb      	adds	r3, r7, #3
    406a:	781b      	ldrb	r3, [r3, #0]
    406c:	2b00      	cmp	r3, #0
    406e:	d007      	beq.n	4080 <trace_printf+0x44>
/home/csx/share/gerrit/optee_os/lib/libutils/ext/trace.c:78 (discriminator 1)
    4070:	4b53      	ldr	r3, [pc, #332]	; (41c0 <trace_printf+0x184>)
    4072:	58e3      	ldr	r3, [r4, r3]
    4074:	681b      	ldr	r3, [r3, #0]
    4076:	1d3a      	adds	r2, r7, #4
    4078:	6812      	ldr	r2, [r2, #0]
    407a:	429a      	cmp	r2, r3
    407c:	dd00      	ble.n	4080 <trace_printf+0x44>
/home/csx/share/gerrit/optee_os/lib/libutils/ext/trace.c:79
    407e:	e095      	b.n	41ac <trace_printf+0x170>
/home/csx/share/gerrit/optee_os/lib/libutils/ext/trace.c:81
    4080:	f107 030c 	add.w	r3, r7, #12
    4084:	681b      	ldr	r3, [r3, #0]
    4086:	2b00      	cmp	r3, #0
    4088:	d054      	beq.n	4134 <trace_printf+0xf8>
/home/csx/share/gerrit/optee_os/lib/libutils/ext/trace.c:82
    408a:	f7fd fb39 	bl	1700 <trace_ext_get_thread_id>
    408e:	f8c7 0114 	str.w	r0, [r7, #276]	; 0x114
/home/csx/share/gerrit/optee_os/lib/libutils/ext/trace.c:84
    4092:	f8d7 3114 	ldr.w	r3, [r7, #276]	; 0x114
    4096:	2b00      	cmp	r3, #0
    4098:	db23      	blt.n	40e2 <trace_printf+0xa6>
/home/csx/share/gerrit/optee_os/lib/libutils/ext/trace.c:85
    409a:	1d3b      	adds	r3, r7, #4
    409c:	1cfa      	adds	r2, r7, #3
    409e:	7812      	ldrb	r2, [r2, #0]
    40a0:	6818      	ldr	r0, [r3, #0]
    40a2:	4611      	mov	r1, r2
    40a4:	f7ff ffa0 	bl	3fe8 <trace_level_to_string>
    40a8:	4605      	mov	r5, r0
    40aa:	f107 0210 	add.w	r2, r7, #16
    40ae:	f8d7 3114 	ldr.w	r3, [r7, #276]	; 0x114
    40b2:	9300      	str	r3, [sp, #0]
    40b4:	4b43      	ldr	r3, [pc, #268]	; (41c4 <trace_printf+0x188>)
    40b6:	58e3      	ldr	r3, [r4, r3]
    40b8:	9301      	str	r3, [sp, #4]
    40ba:	f107 030c 	add.w	r3, r7, #12
    40be:	681b      	ldr	r3, [r3, #0]
    40c0:	9302      	str	r3, [sp, #8]
    40c2:	f107 0308 	add.w	r3, r7, #8
    40c6:	681b      	ldr	r3, [r3, #0]
    40c8:	9303      	str	r3, [sp, #12]
    40ca:	4610      	mov	r0, r2
    40cc:	f44f 7180 	mov.w	r1, #256	; 0x100
    40d0:	4b3d      	ldr	r3, [pc, #244]	; (41c8 <trace_printf+0x18c>)
    40d2:	447b      	add	r3, pc
    40d4:	461a      	mov	r2, r3
    40d6:	462b      	mov	r3, r5
    40d8:	f7ff f80c 	bl	30f4 <snprintk>
    40dc:	f8c7 0118 	str.w	r0, [r7, #280]	; 0x118
    40e0:	e01f      	b.n	4122 <trace_printf+0xe6>
/home/csx/share/gerrit/optee_os/lib/libutils/ext/trace.c:90
    40e2:	1d3b      	adds	r3, r7, #4
    40e4:	1cfa      	adds	r2, r7, #3
    40e6:	7812      	ldrb	r2, [r2, #0]
    40e8:	6818      	ldr	r0, [r3, #0]
    40ea:	4611      	mov	r1, r2
    40ec:	f7ff ff7c 	bl	3fe8 <trace_level_to_string>
    40f0:	4605      	mov	r5, r0
    40f2:	f107 0210 	add.w	r2, r7, #16
    40f6:	4b33      	ldr	r3, [pc, #204]	; (41c4 <trace_printf+0x188>)
    40f8:	58e3      	ldr	r3, [r4, r3]
    40fa:	9300      	str	r3, [sp, #0]
    40fc:	f107 030c 	add.w	r3, r7, #12
    4100:	681b      	ldr	r3, [r3, #0]
    4102:	9301      	str	r3, [sp, #4]
    4104:	f107 0308 	add.w	r3, r7, #8
    4108:	681b      	ldr	r3, [r3, #0]
    410a:	9302      	str	r3, [sp, #8]
    410c:	4610      	mov	r0, r2
    410e:	f44f 7180 	mov.w	r1, #256	; 0x100
    4112:	4b2e      	ldr	r3, [pc, #184]	; (41cc <trace_printf+0x190>)
    4114:	447b      	add	r3, pc
    4116:	461a      	mov	r2, r3
    4118:	462b      	mov	r3, r5
    411a:	f7fe ffeb 	bl	30f4 <snprintk>
    411e:	f8c7 0118 	str.w	r0, [r7, #280]	; 0x118
/home/csx/share/gerrit/optee_os/lib/libutils/ext/trace.c:93
    4122:	f8d7 3118 	ldr.w	r3, [r7, #280]	; 0x118
    4126:	2b00      	cmp	r3, #0
    4128:	da00      	bge.n	412c <trace_printf+0xf0>
/home/csx/share/gerrit/optee_os/lib/libutils/ext/trace.c:94
    412a:	e03f      	b.n	41ac <trace_printf+0x170>
/home/csx/share/gerrit/optee_os/lib/libutils/ext/trace.c:95
    412c:	f8d7 3118 	ldr.w	r3, [r7, #280]	; 0x118
    4130:	f8c7 311c 	str.w	r3, [r7, #284]	; 0x11c
/home/csx/share/gerrit/optee_os/lib/libutils/ext/trace.c:98
    4134:	f507 739a 	add.w	r3, r7, #308	; 0x134
    4138:	f8c7 3110 	str.w	r3, [r7, #272]	; 0x110
/home/csx/share/gerrit/optee_os/lib/libutils/ext/trace.c:99
    413c:	f107 0210 	add.w	r2, r7, #16
    4140:	f8d7 311c 	ldr.w	r3, [r7, #284]	; 0x11c
    4144:	441a      	add	r2, r3
    4146:	f8d7 311c 	ldr.w	r3, [r7, #284]	; 0x11c
    414a:	f5c3 7380 	rsb	r3, r3, #256	; 0x100
    414e:	4610      	mov	r0, r2
    4150:	4619      	mov	r1, r3
    4152:	f8d7 2130 	ldr.w	r2, [r7, #304]	; 0x130
    4156:	f8d7 3110 	ldr.w	r3, [r7, #272]	; 0x110
    415a:	f7fe ffe5 	bl	3128 <vsnprintk>
    415e:	f8c7 0118 	str.w	r0, [r7, #280]	; 0x118
/home/csx/share/gerrit/optee_os/lib/libutils/ext/trace.c:101
    4162:	f8d7 3118 	ldr.w	r3, [r7, #280]	; 0x118
    4166:	2b00      	cmp	r3, #0
    4168:	dd06      	ble.n	4178 <trace_printf+0x13c>
/home/csx/share/gerrit/optee_os/lib/libutils/ext/trace.c:102
    416a:	f8d7 3118 	ldr.w	r3, [r7, #280]	; 0x118
    416e:	f8d7 211c 	ldr.w	r2, [r7, #284]	; 0x11c
    4172:	4413      	add	r3, r2
    4174:	f8c7 311c 	str.w	r3, [r7, #284]	; 0x11c
/home/csx/share/gerrit/optee_os/lib/libutils/ext/trace.c:104
    4178:	f8d7 311c 	ldr.w	r3, [r7, #284]	; 0x11c
    417c:	2bfe      	cmp	r3, #254	; 0xfe
    417e:	d902      	bls.n	4186 <trace_printf+0x14a>
/home/csx/share/gerrit/optee_os/lib/libutils/ext/trace.c:105
    4180:	23fe      	movs	r3, #254	; 0xfe
    4182:	f8c7 311c 	str.w	r3, [r7, #284]	; 0x11c
/home/csx/share/gerrit/optee_os/lib/libutils/ext/trace.c:107
    4186:	f107 0210 	add.w	r2, r7, #16
    418a:	f8d7 311c 	ldr.w	r3, [r7, #284]	; 0x11c
    418e:	4413      	add	r3, r2
    4190:	220a      	movs	r2, #10
    4192:	701a      	strb	r2, [r3, #0]
/home/csx/share/gerrit/optee_os/lib/libutils/ext/trace.c:108
    4194:	f8d7 311c 	ldr.w	r3, [r7, #284]	; 0x11c
    4198:	3301      	adds	r3, #1
    419a:	f107 0210 	add.w	r2, r7, #16
    419e:	2100      	movs	r1, #0
    41a0:	54d1      	strb	r1, [r2, r3]
/home/csx/share/gerrit/optee_os/lib/libutils/ext/trace.c:110
    41a2:	f107 0310 	add.w	r3, r7, #16
    41a6:	4618      	mov	r0, r3
    41a8:	f7fd faa0 	bl	16ec <trace_ext_puts>
/home/csx/share/gerrit/optee_os/lib/libutils/ext/trace.c:111
    41ac:	f507 7790 	add.w	r7, r7, #288	; 0x120
    41b0:	46bd      	mov	sp, r7
    41b2:	e9dd 4500 	ldrd	r4, r5, [sp]
    41b6:	b002      	add	sp, #8
    41b8:	bd80      	pop	{r7, pc}
    41ba:	bf00      	nop
    41bc:	00005f7c 	.word	0x00005f7c
    41c0:	00000018 	.word	0x00000018
    41c4:	0000001c 	.word	0x0000001c
    41c8:	00004e06 	.word	0x00004e06
    41cc:	00004ddc 	.word	0x00004ddc

000041d0 <dhex_dump>:
dhex_dump():
/home/csx/share/gerrit/optee_os/lib/libutils/ext/trace.c:222
    41d0:	f84d 7d04 	str.w	r7, [sp, #-4]!
    41d4:	b085      	sub	sp, #20
    41d6:	af00      	add	r7, sp, #0
    41d8:	60f8      	str	r0, [r7, #12]
    41da:	60b9      	str	r1, [r7, #8]
    41dc:	607a      	str	r2, [r7, #4]
    41de:	603b      	str	r3, [r7, #0]
/home/csx/share/gerrit/optee_os/lib/libutils/ext/trace.c:223
    41e0:	3714      	adds	r7, #20
    41e2:	46bd      	mov	sp, r7
    41e4:	f85d 7b04 	ldr.w	r7, [sp], #4
    41e8:	4770      	bx	lr
    41ea:	bf00      	nop

000041ec <memchr>:
memchr():
/home/csx/share/gerrit/optee_os/lib/libutils/isoc/newlib/memchr.c:105
    41ec:	f84d 7d04 	str.w	r7, [sp, #-4]!
    41f0:	b08b      	sub	sp, #44	; 0x2c
    41f2:	af00      	add	r7, sp, #0
    41f4:	60f8      	str	r0, [r7, #12]
    41f6:	60b9      	str	r1, [r7, #8]
    41f8:	607a      	str	r2, [r7, #4]
/home/csx/share/gerrit/optee_os/lib/libutils/isoc/newlib/memchr.c:106
    41fa:	68fb      	ldr	r3, [r7, #12]
    41fc:	627b      	str	r3, [r7, #36]	; 0x24
/home/csx/share/gerrit/optee_os/lib/libutils/isoc/newlib/memchr.c:107
    41fe:	68bb      	ldr	r3, [r7, #8]
    4200:	75fb      	strb	r3, [r7, #23]
/home/csx/share/gerrit/optee_os/lib/libutils/isoc/newlib/memchr.c:114
    4202:	e010      	b.n	4226 <memchr+0x3a>
/home/csx/share/gerrit/optee_os/lib/libutils/isoc/newlib/memchr.c:115
    4204:	687b      	ldr	r3, [r7, #4]
    4206:	1e5a      	subs	r2, r3, #1
    4208:	607a      	str	r2, [r7, #4]
    420a:	2b00      	cmp	r3, #0
    420c:	d101      	bne.n	4212 <memchr+0x26>
/home/csx/share/gerrit/optee_os/lib/libutils/isoc/newlib/memchr.c:116
    420e:	2300      	movs	r3, #0
    4210:	e05b      	b.n	42ca <memchr+0xde>
/home/csx/share/gerrit/optee_os/lib/libutils/isoc/newlib/memchr.c:117
    4212:	6a7b      	ldr	r3, [r7, #36]	; 0x24
    4214:	781b      	ldrb	r3, [r3, #0]
    4216:	7dfa      	ldrb	r2, [r7, #23]
    4218:	429a      	cmp	r2, r3
    421a:	d101      	bne.n	4220 <memchr+0x34>
/home/csx/share/gerrit/optee_os/lib/libutils/isoc/newlib/memchr.c:118
    421c:	6a7b      	ldr	r3, [r7, #36]	; 0x24
    421e:	e054      	b.n	42ca <memchr+0xde>
/home/csx/share/gerrit/optee_os/lib/libutils/isoc/newlib/memchr.c:119
    4220:	6a7b      	ldr	r3, [r7, #36]	; 0x24
    4222:	3301      	adds	r3, #1
    4224:	627b      	str	r3, [r7, #36]	; 0x24
/home/csx/share/gerrit/optee_os/lib/libutils/isoc/newlib/memchr.c:114
    4226:	6a7b      	ldr	r3, [r7, #36]	; 0x24
    4228:	f003 0303 	and.w	r3, r3, #3
    422c:	2b00      	cmp	r3, #0
    422e:	d1e9      	bne.n	4204 <memchr+0x18>
/home/csx/share/gerrit/optee_os/lib/libutils/isoc/newlib/memchr.c:122
    4230:	687b      	ldr	r3, [r7, #4]
    4232:	2b03      	cmp	r3, #3
    4234:	d938      	bls.n	42a8 <memchr+0xbc>
/home/csx/share/gerrit/optee_os/lib/libutils/isoc/newlib/memchr.c:131
    4236:	6a7b      	ldr	r3, [r7, #36]	; 0x24
    4238:	623b      	str	r3, [r7, #32]
/home/csx/share/gerrit/optee_os/lib/libutils/isoc/newlib/memchr.c:132
    423a:	7dfb      	ldrb	r3, [r7, #23]
    423c:	021a      	lsls	r2, r3, #8
    423e:	7dfb      	ldrb	r3, [r7, #23]
    4240:	4313      	orrs	r3, r2
    4242:	61fb      	str	r3, [r7, #28]
/home/csx/share/gerrit/optee_os/lib/libutils/isoc/newlib/memchr.c:133
    4244:	69fb      	ldr	r3, [r7, #28]
    4246:	041b      	lsls	r3, r3, #16
    4248:	69fa      	ldr	r2, [r7, #28]
    424a:	4313      	orrs	r3, r2
    424c:	61fb      	str	r3, [r7, #28]
/home/csx/share/gerrit/optee_os/lib/libutils/isoc/newlib/memchr.c:134
    424e:	2320      	movs	r3, #32
    4250:	61bb      	str	r3, [r7, #24]
    4252:	e009      	b.n	4268 <memchr+0x7c>
/home/csx/share/gerrit/optee_os/lib/libutils/isoc/newlib/memchr.c:135 (discriminator 3)
    4254:	69fa      	ldr	r2, [r7, #28]
    4256:	69bb      	ldr	r3, [r7, #24]
    4258:	fa02 f303 	lsl.w	r3, r2, r3
    425c:	69fa      	ldr	r2, [r7, #28]
    425e:	4313      	orrs	r3, r2
    4260:	61fb      	str	r3, [r7, #28]
/home/csx/share/gerrit/optee_os/lib/libutils/isoc/newlib/memchr.c:134 (discriminator 3)
    4262:	69bb      	ldr	r3, [r7, #24]
    4264:	005b      	lsls	r3, r3, #1
    4266:	61bb      	str	r3, [r7, #24]
/home/csx/share/gerrit/optee_os/lib/libutils/isoc/newlib/memchr.c:134 (discriminator 1)
    4268:	69bb      	ldr	r3, [r7, #24]
    426a:	2b1f      	cmp	r3, #31
    426c:	d9f2      	bls.n	4254 <memchr+0x68>
/home/csx/share/gerrit/optee_os/lib/libutils/isoc/newlib/memchr.c:137
    426e:	e016      	b.n	429e <memchr+0xb2>
/home/csx/share/gerrit/optee_os/lib/libutils/isoc/newlib/memchr.c:138
    4270:	6a3b      	ldr	r3, [r7, #32]
    4272:	681a      	ldr	r2, [r3, #0]
    4274:	69fb      	ldr	r3, [r7, #28]
    4276:	4053      	eors	r3, r2
    4278:	f1a3 3201 	sub.w	r2, r3, #16843009	; 0x1010101
    427c:	6a3b      	ldr	r3, [r7, #32]
    427e:	6819      	ldr	r1, [r3, #0]
    4280:	69fb      	ldr	r3, [r7, #28]
    4282:	404b      	eors	r3, r1
    4284:	43db      	mvns	r3, r3
    4286:	4013      	ands	r3, r2
    4288:	f003 3380 	and.w	r3, r3, #2155905152	; 0x80808080
    428c:	2b00      	cmp	r3, #0
    428e:	d000      	beq.n	4292 <memchr+0xa6>
/home/csx/share/gerrit/optee_os/lib/libutils/isoc/newlib/memchr.c:139
    4290:	e008      	b.n	42a4 <memchr+0xb8>
/home/csx/share/gerrit/optee_os/lib/libutils/isoc/newlib/memchr.c:140
    4292:	687b      	ldr	r3, [r7, #4]
    4294:	3b04      	subs	r3, #4
    4296:	607b      	str	r3, [r7, #4]
/home/csx/share/gerrit/optee_os/lib/libutils/isoc/newlib/memchr.c:141
    4298:	6a3b      	ldr	r3, [r7, #32]
    429a:	3304      	adds	r3, #4
    429c:	623b      	str	r3, [r7, #32]
/home/csx/share/gerrit/optee_os/lib/libutils/isoc/newlib/memchr.c:137
    429e:	687b      	ldr	r3, [r7, #4]
    42a0:	2b03      	cmp	r3, #3
    42a2:	d8e5      	bhi.n	4270 <memchr+0x84>
/home/csx/share/gerrit/optee_os/lib/libutils/isoc/newlib/memchr.c:147
    42a4:	6a3b      	ldr	r3, [r7, #32]
    42a6:	627b      	str	r3, [r7, #36]	; 0x24
/home/csx/share/gerrit/optee_os/lib/libutils/isoc/newlib/memchr.c:151
    42a8:	e009      	b.n	42be <memchr+0xd2>
/home/csx/share/gerrit/optee_os/lib/libutils/isoc/newlib/memchr.c:152
    42aa:	6a7b      	ldr	r3, [r7, #36]	; 0x24
    42ac:	781b      	ldrb	r3, [r3, #0]
    42ae:	7dfa      	ldrb	r2, [r7, #23]
    42b0:	429a      	cmp	r2, r3
    42b2:	d101      	bne.n	42b8 <memchr+0xcc>
/home/csx/share/gerrit/optee_os/lib/libutils/isoc/newlib/memchr.c:153
    42b4:	6a7b      	ldr	r3, [r7, #36]	; 0x24
    42b6:	e008      	b.n	42ca <memchr+0xde>
/home/csx/share/gerrit/optee_os/lib/libutils/isoc/newlib/memchr.c:154
    42b8:	6a7b      	ldr	r3, [r7, #36]	; 0x24
    42ba:	3301      	adds	r3, #1
    42bc:	627b      	str	r3, [r7, #36]	; 0x24
/home/csx/share/gerrit/optee_os/lib/libutils/isoc/newlib/memchr.c:151
    42be:	687b      	ldr	r3, [r7, #4]
    42c0:	1e5a      	subs	r2, r3, #1
    42c2:	607a      	str	r2, [r7, #4]
    42c4:	2b00      	cmp	r3, #0
    42c6:	d1f0      	bne.n	42aa <memchr+0xbe>
/home/csx/share/gerrit/optee_os/lib/libutils/isoc/newlib/memchr.c:157
    42c8:	2300      	movs	r3, #0
/home/csx/share/gerrit/optee_os/lib/libutils/isoc/newlib/memchr.c:158
    42ca:	4618      	mov	r0, r3
    42cc:	372c      	adds	r7, #44	; 0x2c
    42ce:	46bd      	mov	sp, r7
    42d0:	f85d 7b04 	ldr.w	r7, [sp], #4
    42d4:	4770      	bx	lr
    42d6:	bf00      	nop

000042d8 <__aeabi_ldivmod>:
$a():
    42d8:	e92d5000 	push	{ip, lr}
    42dc:	e92d000f 	push	{r0, r1, r2, r3}
    42e0:	e1a0000d 	mov	r0, sp
    42e4:	fa000076 	blx	44c4 <__l_divmod>
    42e8:	e8bd000f 	pop	{r0, r1, r2, r3}
    42ec:	e8bd9000 	pop	{ip, pc}

000042f0 <__aeabi_uldivmod>:
__aeabi_uldivmod():
    42f0:	e92d5000 	push	{ip, lr}
    42f4:	e92d000f 	push	{r0, r1, r2, r3}
    42f8:	e1a0000d 	mov	r0, sp
    42fc:	fa000053 	blx	4450 <__ul_divmod>
    4300:	e8bd000f 	pop	{r0, r1, r2, r3}
    4304:	e8bd9000 	pop	{ip, pc}

00004308 <division_lqr>:
division_lqr():
/home/csx/share/gerrit/optee_os/lib/libutils/isoc/arch/arm/arm32_aeabi_ldivmod.c:42
    4308:	f84d 7d04 	str.w	r7, [sp, #-4]!
    430c:	b089      	sub	sp, #36	; 0x24
    430e:	af00      	add	r7, sp, #0
    4310:	e9c7 0102 	strd	r0, r1, [r7, #8]
    4314:	e9c7 2300 	strd	r2, r3, [r7]
/home/csx/share/gerrit/optee_os/lib/libutils/isoc/arch/arm/arm32_aeabi_ldivmod.c:43
    4318:	f04f 0201 	mov.w	r2, #1
    431c:	f04f 0300 	mov.w	r3, #0
    4320:	e9c7 2306 	strd	r2, r3, [r7, #24]
    4324:	f04f 0200 	mov.w	r2, #0
    4328:	f04f 0300 	mov.w	r3, #0
    432c:	e9c7 2304 	strd	r2, r3, [r7, #16]
/home/csx/share/gerrit/optee_os/lib/libutils/isoc/arch/arm/arm32_aeabi_ldivmod.c:44
    4330:	e9d7 2300 	ldrd	r2, r3, [r7]
    4334:	4313      	orrs	r3, r2
    4336:	d107      	bne.n	4348 <division_lqr+0x40>
/home/csx/share/gerrit/optee_os/lib/libutils/isoc/arch/arm/arm32_aeabi_ldivmod.c:45
    4338:	6ab9      	ldr	r1, [r7, #40]	; 0x28
    433a:	f04f 32ff 	mov.w	r2, #4294967295	; 0xffffffff
    433e:	f04f 33ff 	mov.w	r3, #4294967295	; 0xffffffff
    4342:	e9c1 2302 	strd	r2, r3, [r1, #8]
/home/csx/share/gerrit/optee_os/lib/libutils/isoc/arch/arm/arm32_aeabi_ldivmod.c:46
    4346:	e050      	b.n	43ea <division_lqr+0xe2>
/home/csx/share/gerrit/optee_os/lib/libutils/isoc/arch/arm/arm32_aeabi_ldivmod.c:49
    4348:	e00d      	b.n	4366 <division_lqr+0x5e>
/home/csx/share/gerrit/optee_os/lib/libutils/isoc/arch/arm/arm32_aeabi_ldivmod.c:50
    434a:	e9d7 2306 	ldrd	r2, r3, [r7, #24]
    434e:	1892      	adds	r2, r2, r2
    4350:	eb43 0303 	adc.w	r3, r3, r3
    4354:	e9c7 2306 	strd	r2, r3, [r7, #24]
/home/csx/share/gerrit/optee_os/lib/libutils/isoc/arch/arm/arm32_aeabi_ldivmod.c:51
    4358:	e9d7 2300 	ldrd	r2, r3, [r7]
    435c:	1892      	adds	r2, r2, r2
    435e:	eb43 0303 	adc.w	r3, r3, r3
    4362:	e9c7 2300 	strd	r2, r3, [r7]
/home/csx/share/gerrit/optee_os/lib/libutils/isoc/arch/arm/arm32_aeabi_ldivmod.c:49
    4366:	e9d7 2300 	ldrd	r2, r3, [r7]
    436a:	2a00      	cmp	r2, #0
    436c:	f173 0300 	sbcs.w	r3, r3, #0
    4370:	daeb      	bge.n	434a <division_lqr+0x42>
/home/csx/share/gerrit/optee_os/lib/libutils/isoc/arch/arm/arm32_aeabi_ldivmod.c:54
    4372:	e02c      	b.n	43ce <division_lqr+0xc6>
/home/csx/share/gerrit/optee_os/lib/libutils/isoc/arch/arm/arm32_aeabi_ldivmod.c:55
    4374:	e9d7 2304 	ldrd	r2, r3, [r7, #16]
    4378:	1892      	adds	r2, r2, r2
    437a:	eb43 0303 	adc.w	r3, r3, r3
    437e:	e9c7 2304 	strd	r2, r3, [r7, #16]
/home/csx/share/gerrit/optee_os/lib/libutils/isoc/arch/arm/arm32_aeabi_ldivmod.c:56
    4382:	e9d7 0102 	ldrd	r0, r1, [r7, #8]
    4386:	e9d7 2300 	ldrd	r2, r3, [r7]
    438a:	4299      	cmp	r1, r3
    438c:	bf08      	it	eq
    438e:	4290      	cmpeq	r0, r2
    4390:	d30f      	bcc.n	43b2 <division_lqr+0xaa>
/home/csx/share/gerrit/optee_os/lib/libutils/isoc/arch/arm/arm32_aeabi_ldivmod.c:57
    4392:	e9d7 0102 	ldrd	r0, r1, [r7, #8]
    4396:	e9d7 2300 	ldrd	r2, r3, [r7]
    439a:	1a82      	subs	r2, r0, r2
    439c:	eb61 0303 	sbc.w	r3, r1, r3
    43a0:	e9c7 2302 	strd	r2, r3, [r7, #8]
/home/csx/share/gerrit/optee_os/lib/libutils/isoc/arch/arm/arm32_aeabi_ldivmod.c:58
    43a4:	e9d7 2304 	ldrd	r2, r3, [r7, #16]
    43a8:	3201      	adds	r2, #1
    43aa:	f143 0300 	adc.w	r3, r3, #0
    43ae:	e9c7 2304 	strd	r2, r3, [r7, #16]
/home/csx/share/gerrit/optee_os/lib/libutils/isoc/arch/arm/arm32_aeabi_ldivmod.c:60
    43b2:	e9d7 2300 	ldrd	r2, r3, [r7]
    43b6:	085b      	lsrs	r3, r3, #1
    43b8:	ea4f 0232 	mov.w	r2, r2, rrx
    43bc:	e9c7 2300 	strd	r2, r3, [r7]
/home/csx/share/gerrit/optee_os/lib/libutils/isoc/arch/arm/arm32_aeabi_ldivmod.c:61
    43c0:	e9d7 2306 	ldrd	r2, r3, [r7, #24]
    43c4:	085b      	lsrs	r3, r3, #1
    43c6:	ea4f 0232 	mov.w	r2, r2, rrx
    43ca:	e9c7 2306 	strd	r2, r3, [r7, #24]
/home/csx/share/gerrit/optee_os/lib/libutils/isoc/arch/arm/arm32_aeabi_ldivmod.c:54
    43ce:	e9d7 2306 	ldrd	r2, r3, [r7, #24]
    43d2:	4313      	orrs	r3, r2
    43d4:	d1ce      	bne.n	4374 <division_lqr+0x6c>
/home/csx/share/gerrit/optee_os/lib/libutils/isoc/arch/arm/arm32_aeabi_ldivmod.c:63
    43d6:	6ab9      	ldr	r1, [r7, #40]	; 0x28
    43d8:	e9d7 2302 	ldrd	r2, r3, [r7, #8]
    43dc:	e9c1 2302 	strd	r2, r3, [r1, #8]
/home/csx/share/gerrit/optee_os/lib/libutils/isoc/arch/arm/arm32_aeabi_ldivmod.c:64
    43e0:	6ab9      	ldr	r1, [r7, #40]	; 0x28
    43e2:	e9d7 2304 	ldrd	r2, r3, [r7, #16]
    43e6:	e9c1 2300 	strd	r2, r3, [r1]
/home/csx/share/gerrit/optee_os/lib/libutils/isoc/arch/arm/arm32_aeabi_ldivmod.c:65
    43ea:	3724      	adds	r7, #36	; 0x24
    43ec:	46bd      	mov	sp, r7
    43ee:	f85d 7b04 	ldr.w	r7, [sp], #4
    43f2:	4770      	bx	lr

000043f4 <ul_div_qr>:
ul_div_qr():
/home/csx/share/gerrit/optee_os/lib/libutils/isoc/arch/arm/arm32_aeabi_ldivmod.c:69
    43f4:	e96d 7e02 	strd	r7, lr, [sp, #-8]!
    43f8:	b086      	sub	sp, #24
    43fa:	af02      	add	r7, sp, #8
    43fc:	e9c7 0102 	strd	r0, r1, [r7, #8]
    4400:	e9c7 2300 	strd	r2, r3, [r7]
/home/csx/share/gerrit/optee_os/lib/libutils/isoc/arch/arm/arm32_aeabi_ldivmod.c:71
    4404:	69bb      	ldr	r3, [r7, #24]
    4406:	9300      	str	r3, [sp, #0]
    4408:	e9d7 0102 	ldrd	r0, r1, [r7, #8]
    440c:	e9d7 2300 	ldrd	r2, r3, [r7]
    4410:	f7ff ff7a 	bl	4308 <division_lqr>
/home/csx/share/gerrit/optee_os/lib/libutils/isoc/arch/arm/arm32_aeabi_ldivmod.c:74
    4414:	69bb      	ldr	r3, [r7, #24]
    4416:	691b      	ldr	r3, [r3, #16]
    4418:	2b00      	cmp	r3, #0
    441a:	d008      	beq.n	442e <ul_div_qr+0x3a>
/home/csx/share/gerrit/optee_os/lib/libutils/isoc/arch/arm/arm32_aeabi_ldivmod.c:75
    441c:	69bb      	ldr	r3, [r7, #24]
    441e:	e9d3 2300 	ldrd	r2, r3, [r3]
    4422:	4252      	negs	r2, r2
    4424:	eb63 0343 	sbc.w	r3, r3, r3, lsl #1
    4428:	69b9      	ldr	r1, [r7, #24]
    442a:	e9c1 2300 	strd	r2, r3, [r1]
/home/csx/share/gerrit/optee_os/lib/libutils/isoc/arch/arm/arm32_aeabi_ldivmod.c:76
    442e:	69bb      	ldr	r3, [r7, #24]
    4430:	695b      	ldr	r3, [r3, #20]
    4432:	2b00      	cmp	r3, #0
    4434:	d008      	beq.n	4448 <ul_div_qr+0x54>
/home/csx/share/gerrit/optee_os/lib/libutils/isoc/arch/arm/arm32_aeabi_ldivmod.c:77
    4436:	69bb      	ldr	r3, [r7, #24]
    4438:	e9d3 2302 	ldrd	r2, r3, [r3, #8]
    443c:	4252      	negs	r2, r2
    443e:	eb63 0343 	sbc.w	r3, r3, r3, lsl #1
    4442:	69b9      	ldr	r1, [r7, #24]
    4444:	e9c1 2302 	strd	r2, r3, [r1, #8]
/home/csx/share/gerrit/optee_os/lib/libutils/isoc/arch/arm/arm32_aeabi_ldivmod.c:78
    4448:	3710      	adds	r7, #16
    444a:	46bd      	mov	sp, r7
    444c:	bd80      	pop	{r7, pc}
    444e:	bf00      	nop

00004450 <__ul_divmod>:
__ul_divmod():
/home/csx/share/gerrit/optee_os/lib/libutils/isoc/arch/arm/arm32_aeabi_ldivmod.c:88
    4450:	e96d 7e02 	strd	r7, lr, [sp, #-8]!
    4454:	b08e      	sub	sp, #56	; 0x38
    4456:	af02      	add	r7, sp, #8
    4458:	6078      	str	r0, [r7, #4]
/home/csx/share/gerrit/optee_os/lib/libutils/isoc/arch/arm/arm32_aeabi_ldivmod.c:89
    445a:	687b      	ldr	r3, [r7, #4]
    445c:	e9d3 2300 	ldrd	r2, r3, [r3]
    4460:	e9c7 230a 	strd	r2, r3, [r7, #40]	; 0x28
/home/csx/share/gerrit/optee_os/lib/libutils/isoc/arch/arm/arm32_aeabi_ldivmod.c:90
    4464:	687b      	ldr	r3, [r7, #4]
    4466:	e9d3 2302 	ldrd	r2, r3, [r3, #8]
    446a:	e9c7 2308 	strd	r2, r3, [r7, #32]
/home/csx/share/gerrit/optee_os/lib/libutils/isoc/arch/arm/arm32_aeabi_ldivmod.c:91
    446e:	f107 0308 	add.w	r3, r7, #8
    4472:	2200      	movs	r2, #0
    4474:	601a      	str	r2, [r3, #0]
    4476:	3304      	adds	r3, #4
    4478:	2200      	movs	r2, #0
    447a:	601a      	str	r2, [r3, #0]
    447c:	3304      	adds	r3, #4
    447e:	2200      	movs	r2, #0
    4480:	601a      	str	r2, [r3, #0]
    4482:	3304      	adds	r3, #4
    4484:	2200      	movs	r2, #0
    4486:	601a      	str	r2, [r3, #0]
    4488:	3304      	adds	r3, #4
    448a:	2200      	movs	r2, #0
    448c:	601a      	str	r2, [r3, #0]
    448e:	3304      	adds	r3, #4
    4490:	2200      	movs	r2, #0
    4492:	601a      	str	r2, [r3, #0]
    4494:	3304      	adds	r3, #4
/home/csx/share/gerrit/optee_os/lib/libutils/isoc/arch/arm/arm32_aeabi_ldivmod.c:93
    4496:	f107 0308 	add.w	r3, r7, #8
    449a:	9300      	str	r3, [sp, #0]
    449c:	e9d7 010a 	ldrd	r0, r1, [r7, #40]	; 0x28
    44a0:	e9d7 2308 	ldrd	r2, r3, [r7, #32]
    44a4:	f7ff ffa6 	bl	43f4 <ul_div_qr>
/home/csx/share/gerrit/optee_os/lib/libutils/isoc/arch/arm/arm32_aeabi_ldivmod.c:95
    44a8:	e9d7 2302 	ldrd	r2, r3, [r7, #8]
    44ac:	6879      	ldr	r1, [r7, #4]
    44ae:	e9c1 2300 	strd	r2, r3, [r1]
/home/csx/share/gerrit/optee_os/lib/libutils/isoc/arch/arm/arm32_aeabi_ldivmod.c:96
    44b2:	e9d7 2304 	ldrd	r2, r3, [r7, #16]
    44b6:	6879      	ldr	r1, [r7, #4]
    44b8:	e9c1 2302 	strd	r2, r3, [r1, #8]
/home/csx/share/gerrit/optee_os/lib/libutils/isoc/arch/arm/arm32_aeabi_ldivmod.c:97
    44bc:	3730      	adds	r7, #48	; 0x30
    44be:	46bd      	mov	sp, r7
    44c0:	bd80      	pop	{r7, pc}
    44c2:	bf00      	nop

000044c4 <__l_divmod>:
__l_divmod():
/home/csx/share/gerrit/optee_os/lib/libutils/isoc/arch/arm/arm32_aeabi_ldivmod.c:107
    44c4:	f84d 4d0c 	str.w	r4, [sp, #-12]!
    44c8:	e9cd 7e01 	strd	r7, lr, [sp, #4]
    44cc:	b08f      	sub	sp, #60	; 0x3c
    44ce:	af02      	add	r7, sp, #8
    44d0:	6078      	str	r0, [r7, #4]
/home/csx/share/gerrit/optee_os/lib/libutils/isoc/arch/arm/arm32_aeabi_ldivmod.c:108
    44d2:	687b      	ldr	r3, [r7, #4]
    44d4:	e9d3 2300 	ldrd	r2, r3, [r3]
    44d8:	e9c7 230a 	strd	r2, r3, [r7, #40]	; 0x28
/home/csx/share/gerrit/optee_os/lib/libutils/isoc/arch/arm/arm32_aeabi_ldivmod.c:109
    44dc:	687b      	ldr	r3, [r7, #4]
    44de:	e9d3 2302 	ldrd	r2, r3, [r3, #8]
    44e2:	e9c7 2308 	strd	r2, r3, [r7, #32]
/home/csx/share/gerrit/optee_os/lib/libutils/isoc/arch/arm/arm32_aeabi_ldivmod.c:110
    44e6:	f107 0308 	add.w	r3, r7, #8
    44ea:	2200      	movs	r2, #0
    44ec:	601a      	str	r2, [r3, #0]
    44ee:	3304      	adds	r3, #4
    44f0:	2200      	movs	r2, #0
    44f2:	601a      	str	r2, [r3, #0]
    44f4:	3304      	adds	r3, #4
    44f6:	2200      	movs	r2, #0
    44f8:	601a      	str	r2, [r3, #0]
    44fa:	3304      	adds	r3, #4
    44fc:	2200      	movs	r2, #0
    44fe:	601a      	str	r2, [r3, #0]
    4500:	3304      	adds	r3, #4
    4502:	2200      	movs	r2, #0
    4504:	601a      	str	r2, [r3, #0]
    4506:	3304      	adds	r3, #4
    4508:	2200      	movs	r2, #0
    450a:	601a      	str	r2, [r3, #0]
    450c:	3304      	adds	r3, #4
/home/csx/share/gerrit/optee_os/lib/libutils/isoc/arch/arm/arm32_aeabi_ldivmod.c:112
    450e:	e9d7 230a 	ldrd	r2, r3, [r7, #40]	; 0x28
    4512:	2a00      	cmp	r2, #0
    4514:	f173 0300 	sbcs.w	r3, r3, #0
    4518:	da05      	bge.n	4526 <__l_divmod+0x62>
/home/csx/share/gerrit/optee_os/lib/libutils/isoc/arch/arm/arm32_aeabi_ldivmod.c:112 (discriminator 1)
    451a:	e9d7 2308 	ldrd	r2, r3, [r7, #32]
    451e:	2a01      	cmp	r2, #1
    4520:	f173 0300 	sbcs.w	r3, r3, #0
    4524:	da0b      	bge.n	453e <__l_divmod+0x7a>
/home/csx/share/gerrit/optee_os/lib/libutils/isoc/arch/arm/arm32_aeabi_ldivmod.c:112 (discriminator 3)
    4526:	e9d7 230a 	ldrd	r2, r3, [r7, #40]	; 0x28
    452a:	2a01      	cmp	r2, #1
    452c:	f173 0300 	sbcs.w	r3, r3, #0
    4530:	db07      	blt.n	4542 <__l_divmod+0x7e>
/home/csx/share/gerrit/optee_os/lib/libutils/isoc/arch/arm/arm32_aeabi_ldivmod.c:113
    4532:	e9d7 2308 	ldrd	r2, r3, [r7, #32]
    4536:	2a00      	cmp	r2, #0
    4538:	f173 0300 	sbcs.w	r3, r3, #0
    453c:	da01      	bge.n	4542 <__l_divmod+0x7e>
/home/csx/share/gerrit/optee_os/lib/libutils/isoc/arch/arm/arm32_aeabi_ldivmod.c:114
    453e:	2301      	movs	r3, #1
    4540:	61bb      	str	r3, [r7, #24]
/home/csx/share/gerrit/optee_os/lib/libutils/isoc/arch/arm/arm32_aeabi_ldivmod.c:115
    4542:	e9d7 230a 	ldrd	r2, r3, [r7, #40]	; 0x28
    4546:	2a00      	cmp	r2, #0
    4548:	f173 0300 	sbcs.w	r3, r3, #0
    454c:	da08      	bge.n	4560 <__l_divmod+0x9c>
/home/csx/share/gerrit/optee_os/lib/libutils/isoc/arch/arm/arm32_aeabi_ldivmod.c:116
    454e:	e9d7 230a 	ldrd	r2, r3, [r7, #40]	; 0x28
    4552:	4252      	negs	r2, r2
    4554:	eb63 0343 	sbc.w	r3, r3, r3, lsl #1
    4558:	e9c7 230a 	strd	r2, r3, [r7, #40]	; 0x28
/home/csx/share/gerrit/optee_os/lib/libutils/isoc/arch/arm/arm32_aeabi_ldivmod.c:117
    455c:	2301      	movs	r3, #1
    455e:	61fb      	str	r3, [r7, #28]
/home/csx/share/gerrit/optee_os/lib/libutils/isoc/arch/arm/arm32_aeabi_ldivmod.c:119
    4560:	e9d7 2308 	ldrd	r2, r3, [r7, #32]
    4564:	2a00      	cmp	r2, #0
    4566:	f173 0300 	sbcs.w	r3, r3, #0
    456a:	da06      	bge.n	457a <__l_divmod+0xb6>
/home/csx/share/gerrit/optee_os/lib/libutils/isoc/arch/arm/arm32_aeabi_ldivmod.c:120
    456c:	e9d7 2308 	ldrd	r2, r3, [r7, #32]
    4570:	4252      	negs	r2, r2
    4572:	eb63 0343 	sbc.w	r3, r3, r3, lsl #1
    4576:	e9c7 2308 	strd	r2, r3, [r7, #32]
/home/csx/share/gerrit/optee_os/lib/libutils/isoc/arch/arm/arm32_aeabi_ldivmod.c:122
    457a:	e9d7 010a 	ldrd	r0, r1, [r7, #40]	; 0x28
    457e:	e9d7 2308 	ldrd	r2, r3, [r7, #32]
    4582:	f107 0408 	add.w	r4, r7, #8
    4586:	9400      	str	r4, [sp, #0]
    4588:	f7ff ff34 	bl	43f4 <ul_div_qr>
/home/csx/share/gerrit/optee_os/lib/libutils/isoc/arch/arm/arm32_aeabi_ldivmod.c:124
    458c:	e9d7 2302 	ldrd	r2, r3, [r7, #8]
    4590:	6879      	ldr	r1, [r7, #4]
    4592:	e9c1 2300 	strd	r2, r3, [r1]
/home/csx/share/gerrit/optee_os/lib/libutils/isoc/arch/arm/arm32_aeabi_ldivmod.c:125
    4596:	e9d7 2304 	ldrd	r2, r3, [r7, #16]
    459a:	6879      	ldr	r1, [r7, #4]
    459c:	e9c1 2302 	strd	r2, r3, [r1, #8]
/home/csx/share/gerrit/optee_os/lib/libutils/isoc/arch/arm/arm32_aeabi_ldivmod.c:126
    45a0:	3734      	adds	r7, #52	; 0x34
    45a2:	46bd      	mov	sp, r7
    45a4:	e9dd 4700 	ldrd	r4, r7, [sp]
    45a8:	b002      	add	sp, #8
    45aa:	f85d fb04 	ldr.w	pc, [sp], #4
    45ae:	bf00      	nop

000045b0 <__mpa_set_unused_digits_to_zero>:
__mpa_set_unused_digits_to_zero():
/home/csx/share/gerrit/optee_os/lib/libmpa/mpa_misc.c:52
    45b0:	e96d 7e02 	strd	r7, lr, [sp, #-8]!
    45b4:	b084      	sub	sp, #16
    45b6:	af00      	add	r7, sp, #0
    45b8:	6078      	str	r0, [r7, #4]
/home/csx/share/gerrit/optee_os/lib/libmpa/mpa_misc.c:59
    45ba:	687b      	ldr	r3, [r7, #4]
    45bc:	685b      	ldr	r3, [r3, #4]
    45be:	2b00      	cmp	r3, #0
    45c0:	bfb8      	it	lt
    45c2:	425b      	neglt	r3, r3
    45c4:	60fb      	str	r3, [r7, #12]
/home/csx/share/gerrit/optee_os/lib/libmpa/mpa_misc.c:60
    45c6:	68fb      	ldr	r3, [r7, #12]
    45c8:	3302      	adds	r3, #2
    45ca:	009b      	lsls	r3, r3, #2
    45cc:	687a      	ldr	r2, [r7, #4]
    45ce:	18d1      	adds	r1, r2, r3
    45d0:	687b      	ldr	r3, [r7, #4]
    45d2:	681a      	ldr	r2, [r3, #0]
    45d4:	68fb      	ldr	r3, [r7, #12]
    45d6:	1ad3      	subs	r3, r2, r3
    45d8:	009b      	lsls	r3, r3, #2
    45da:	4608      	mov	r0, r1
    45dc:	2100      	movs	r1, #0
    45de:	461a      	mov	r2, r3
    45e0:	f7fe fcce 	bl	2f80 <memset>
/home/csx/share/gerrit/optee_os/lib/libmpa/mpa_misc.c:61
    45e4:	3710      	adds	r7, #16
    45e6:	46bd      	mov	sp, r7
    45e8:	bd80      	pop	{r7, pc}
    45ea:	bf00      	nop

000045ec <mpa_wipe>:
mpa_wipe():
/home/csx/share/gerrit/optee_os/lib/libmpa/mpa_misc.c:77
    45ec:	e96d 7e02 	strd	r7, lr, [sp, #-8]!
    45f0:	b082      	sub	sp, #8
    45f2:	af00      	add	r7, sp, #0
    45f4:	6078      	str	r0, [r7, #4]
/home/csx/share/gerrit/optee_os/lib/libmpa/mpa_misc.c:78
    45f6:	687b      	ldr	r3, [r7, #4]
    45f8:	f103 0208 	add.w	r2, r3, #8
    45fc:	687b      	ldr	r3, [r7, #4]
    45fe:	681b      	ldr	r3, [r3, #0]
    4600:	009b      	lsls	r3, r3, #2
    4602:	4610      	mov	r0, r2
    4604:	2100      	movs	r1, #0
    4606:	461a      	mov	r2, r3
    4608:	f7fe fcba 	bl	2f80 <memset>
/home/csx/share/gerrit/optee_os/lib/libmpa/mpa_misc.c:79
    460c:	687b      	ldr	r3, [r7, #4]
    460e:	2200      	movs	r2, #0
    4610:	605a      	str	r2, [r3, #4]
/home/csx/share/gerrit/optee_os/lib/libmpa/mpa_misc.c:80
    4612:	3708      	adds	r7, #8
    4614:	46bd      	mov	sp, r7
    4616:	bd80      	pop	{r7, pc}

00004618 <mpa_copy>:
mpa_copy():
/home/csx/share/gerrit/optee_os/lib/libmpa/mpa_misc.c:92
    4618:	e96d 7e02 	strd	r7, lr, [sp, #-8]!
    461c:	b082      	sub	sp, #8
    461e:	af00      	add	r7, sp, #0
    4620:	6078      	str	r0, [r7, #4]
    4622:	6039      	str	r1, [r7, #0]
/home/csx/share/gerrit/optee_os/lib/libmpa/mpa_misc.c:93
    4624:	687a      	ldr	r2, [r7, #4]
    4626:	683b      	ldr	r3, [r7, #0]
    4628:	429a      	cmp	r2, r3
    462a:	d100      	bne.n	462e <mpa_copy+0x16>
/home/csx/share/gerrit/optee_os/lib/libmpa/mpa_misc.c:94
    462c:	e014      	b.n	4658 <mpa_copy+0x40>
/home/csx/share/gerrit/optee_os/lib/libmpa/mpa_misc.c:96
    462e:	687b      	ldr	r3, [r7, #4]
    4630:	f103 0108 	add.w	r1, r3, #8
    4634:	683b      	ldr	r3, [r7, #0]
    4636:	f103 0208 	add.w	r2, r3, #8
    463a:	683b      	ldr	r3, [r7, #0]
    463c:	685b      	ldr	r3, [r3, #4]
    463e:	2b00      	cmp	r3, #0
    4640:	bfb8      	it	lt
    4642:	425b      	neglt	r3, r3
    4644:	009b      	lsls	r3, r3, #2
    4646:	4608      	mov	r0, r1
    4648:	4611      	mov	r1, r2
    464a:	461a      	mov	r2, r3
    464c:	f7fe fba4 	bl	2d98 <memcpy>
/home/csx/share/gerrit/optee_os/lib/libmpa/mpa_misc.c:97
    4650:	683b      	ldr	r3, [r7, #0]
    4652:	685a      	ldr	r2, [r3, #4]
    4654:	687b      	ldr	r3, [r7, #4]
    4656:	605a      	str	r2, [r3, #4]
/home/csx/share/gerrit/optee_os/lib/libmpa/mpa_misc.c:98
    4658:	3708      	adds	r7, #8
    465a:	46bd      	mov	sp, r7
    465c:	bd80      	pop	{r7, pc}
    465e:	bf00      	nop

00004660 <mpa_abs>:
mpa_abs():
/home/csx/share/gerrit/optee_os/lib/libmpa/mpa_misc.c:106
    4660:	e96d 7e02 	strd	r7, lr, [sp, #-8]!
    4664:	b082      	sub	sp, #8
    4666:	af00      	add	r7, sp, #0
    4668:	6078      	str	r0, [r7, #4]
    466a:	6039      	str	r1, [r7, #0]
/home/csx/share/gerrit/optee_os/lib/libmpa/mpa_misc.c:107
    466c:	6878      	ldr	r0, [r7, #4]
    466e:	6839      	ldr	r1, [r7, #0]
    4670:	f7ff ffd2 	bl	4618 <mpa_copy>
/home/csx/share/gerrit/optee_os/lib/libmpa/mpa_misc.c:108
    4674:	687b      	ldr	r3, [r7, #4]
    4676:	685b      	ldr	r3, [r3, #4]
    4678:	2b00      	cmp	r3, #0
    467a:	da04      	bge.n	4686 <mpa_abs+0x26>
/home/csx/share/gerrit/optee_os/lib/libmpa/mpa_misc.c:108 (discriminator 1)
    467c:	687b      	ldr	r3, [r7, #4]
    467e:	685b      	ldr	r3, [r3, #4]
    4680:	425a      	negs	r2, r3
    4682:	687b      	ldr	r3, [r7, #4]
    4684:	605a      	str	r2, [r3, #4]
/home/csx/share/gerrit/optee_os/lib/libmpa/mpa_misc.c:109
    4686:	3708      	adds	r7, #8
    4688:	46bd      	mov	sp, r7
    468a:	bd80      	pop	{r7, pc}

0000468c <mpa_highest_bit_index>:
mpa_highest_bit_index():
/home/csx/share/gerrit/optee_os/lib/libmpa/mpa_misc.c:119
    468c:	f84d 7d04 	str.w	r7, [sp, #-4]!
    4690:	b085      	sub	sp, #20
    4692:	af00      	add	r7, sp, #0
    4694:	6078      	str	r0, [r7, #4]
/home/csx/share/gerrit/optee_os/lib/libmpa/mpa_misc.c:123
    4696:	687b      	ldr	r3, [r7, #4]
    4698:	685b      	ldr	r3, [r3, #4]
    469a:	2b00      	cmp	r3, #0
    469c:	d102      	bne.n	46a4 <mpa_highest_bit_index+0x18>
/home/csx/share/gerrit/optee_os/lib/libmpa/mpa_misc.c:124
    469e:	f04f 33ff 	mov.w	r3, #4294967295	; 0xffffffff
    46a2:	e024      	b.n	46ee <mpa_highest_bit_index+0x62>
/home/csx/share/gerrit/optee_os/lib/libmpa/mpa_misc.c:126
    46a4:	687b      	ldr	r3, [r7, #4]
    46a6:	685b      	ldr	r3, [r3, #4]
    46a8:	2b00      	cmp	r3, #0
    46aa:	bfb8      	it	lt
    46ac:	425b      	neglt	r3, r3
    46ae:	1e5a      	subs	r2, r3, #1
    46b0:	687b      	ldr	r3, [r7, #4]
    46b2:	3202      	adds	r2, #2
    46b4:	f853 3022 	ldr.w	r3, [r3, r2, lsl #2]
    46b8:	60fb      	str	r3, [r7, #12]
/home/csx/share/gerrit/optee_os/lib/libmpa/mpa_misc.c:128
    46ba:	2300      	movs	r3, #0
    46bc:	60bb      	str	r3, [r7, #8]
    46be:	e009      	b.n	46d4 <mpa_highest_bit_index+0x48>
/home/csx/share/gerrit/optee_os/lib/libmpa/mpa_misc.c:129
    46c0:	68fb      	ldr	r3, [r7, #12]
    46c2:	085b      	lsrs	r3, r3, #1
    46c4:	60fb      	str	r3, [r7, #12]
/home/csx/share/gerrit/optee_os/lib/libmpa/mpa_misc.c:130
    46c6:	68fb      	ldr	r3, [r7, #12]
    46c8:	2b00      	cmp	r3, #0
    46ca:	d100      	bne.n	46ce <mpa_highest_bit_index+0x42>
/home/csx/share/gerrit/optee_os/lib/libmpa/mpa_misc.c:131
    46cc:	e005      	b.n	46da <mpa_highest_bit_index+0x4e>
/home/csx/share/gerrit/optee_os/lib/libmpa/mpa_misc.c:128 (discriminator 2)
    46ce:	68bb      	ldr	r3, [r7, #8]
    46d0:	3301      	adds	r3, #1
    46d2:	60bb      	str	r3, [r7, #8]
/home/csx/share/gerrit/optee_os/lib/libmpa/mpa_misc.c:128 (discriminator 1)
    46d4:	68bb      	ldr	r3, [r7, #8]
    46d6:	2b1f      	cmp	r3, #31
    46d8:	d9f2      	bls.n	46c0 <mpa_highest_bit_index+0x34>
/home/csx/share/gerrit/optee_os/lib/libmpa/mpa_misc.c:133
    46da:	687b      	ldr	r3, [r7, #4]
    46dc:	685b      	ldr	r3, [r3, #4]
    46de:	2b00      	cmp	r3, #0
    46e0:	bfb8      	it	lt
    46e2:	425b      	neglt	r3, r3
    46e4:	3b01      	subs	r3, #1
    46e6:	015b      	lsls	r3, r3, #5
    46e8:	461a      	mov	r2, r3
    46ea:	68bb      	ldr	r3, [r7, #8]
    46ec:	4413      	add	r3, r2
/home/csx/share/gerrit/optee_os/lib/libmpa/mpa_misc.c:134
    46ee:	4618      	mov	r0, r3
    46f0:	3714      	adds	r7, #20
    46f2:	46bd      	mov	sp, r7
    46f4:	f85d 7b04 	ldr.w	r7, [sp], #4
    46f8:	4770      	bx	lr
    46fa:	bf00      	nop

000046fc <mpa_get_bit>:
mpa_get_bit():
/home/csx/share/gerrit/optee_os/lib/libmpa/mpa_misc.c:146
    46fc:	f84d 7d04 	str.w	r7, [sp, #-4]!
    4700:	b085      	sub	sp, #20
    4702:	af00      	add	r7, sp, #0
    4704:	6078      	str	r0, [r7, #4]
    4706:	6039      	str	r1, [r7, #0]
/home/csx/share/gerrit/optee_os/lib/libmpa/mpa_misc.c:150
    4708:	683b      	ldr	r3, [r7, #0]
    470a:	095b      	lsrs	r3, r3, #5
    470c:	60fb      	str	r3, [r7, #12]
/home/csx/share/gerrit/optee_os/lib/libmpa/mpa_misc.c:151
    470e:	683b      	ldr	r3, [r7, #0]
    4710:	f003 031f 	and.w	r3, r3, #31
    4714:	60bb      	str	r3, [r7, #8]
/home/csx/share/gerrit/optee_os/lib/libmpa/mpa_misc.c:153
    4716:	687b      	ldr	r3, [r7, #4]
    4718:	685b      	ldr	r3, [r3, #4]
    471a:	2b00      	cmp	r3, #0
    471c:	bfb8      	it	lt
    471e:	425b      	neglt	r3, r3
    4720:	461a      	mov	r2, r3
    4722:	68fb      	ldr	r3, [r7, #12]
    4724:	429a      	cmp	r2, r3
    4726:	d201      	bcs.n	472c <mpa_get_bit+0x30>
/home/csx/share/gerrit/optee_os/lib/libmpa/mpa_misc.c:154
    4728:	2300      	movs	r3, #0
    472a:	e010      	b.n	474e <mpa_get_bit+0x52>
/home/csx/share/gerrit/optee_os/lib/libmpa/mpa_misc.c:155
    472c:	68bb      	ldr	r3, [r7, #8]
    472e:	2201      	movs	r2, #1
    4730:	fa02 f303 	lsl.w	r3, r2, r3
    4734:	60bb      	str	r3, [r7, #8]
/home/csx/share/gerrit/optee_os/lib/libmpa/mpa_misc.c:156
    4736:	687b      	ldr	r3, [r7, #4]
    4738:	68fa      	ldr	r2, [r7, #12]
    473a:	3202      	adds	r2, #2
    473c:	f853 2022 	ldr.w	r2, [r3, r2, lsl #2]
    4740:	68bb      	ldr	r3, [r7, #8]
    4742:	4013      	ands	r3, r2
    4744:	2b00      	cmp	r3, #0
    4746:	bf14      	ite	ne
    4748:	2301      	movne	r3, #1
    474a:	2300      	moveq	r3, #0
    474c:	b2db      	uxtb	r3, r3
/home/csx/share/gerrit/optee_os/lib/libmpa/mpa_misc.c:157
    474e:	4618      	mov	r0, r3
    4750:	3714      	adds	r7, #20
    4752:	46bd      	mov	sp, r7
    4754:	f85d 7b04 	ldr.w	r7, [sp], #4
    4758:	4770      	bx	lr
    475a:	bf00      	nop

0000475c <mpa_can_hold>:
mpa_can_hold():
/home/csx/share/gerrit/optee_os/lib/libmpa/mpa_misc.c:166
    475c:	f84d 7d04 	str.w	r7, [sp, #-4]!
    4760:	b083      	sub	sp, #12
    4762:	af00      	add	r7, sp, #0
    4764:	6078      	str	r0, [r7, #4]
    4766:	6039      	str	r1, [r7, #0]
/home/csx/share/gerrit/optee_os/lib/libmpa/mpa_misc.c:167
    4768:	687b      	ldr	r3, [r7, #4]
    476a:	681b      	ldr	r3, [r3, #0]
    476c:	683a      	ldr	r2, [r7, #0]
    476e:	6852      	ldr	r2, [r2, #4]
    4770:	2a00      	cmp	r2, #0
    4772:	bfb8      	it	lt
    4774:	4252      	neglt	r2, r2
    4776:	4293      	cmp	r3, r2
    4778:	bf2c      	ite	cs
    477a:	2301      	movcs	r3, #1
    477c:	2300      	movcc	r3, #0
    477e:	b2db      	uxtb	r3, r3
/home/csx/share/gerrit/optee_os/lib/libmpa/mpa_misc.c:168
    4780:	4618      	mov	r0, r3
    4782:	370c      	adds	r7, #12
    4784:	46bd      	mov	sp, r7
    4786:	f85d 7b04 	ldr.w	r7, [sp], #4
    478a:	4770      	bx	lr

0000478c <mpa_parity>:
mpa_parity():
/home/csx/share/gerrit/optee_os/lib/libmpa/mpa_misc.c:176
    478c:	f84d 7d04 	str.w	r7, [sp, #-4]!
    4790:	b083      	sub	sp, #12
    4792:	af00      	add	r7, sp, #0
    4794:	6078      	str	r0, [r7, #4]
/home/csx/share/gerrit/optee_os/lib/libmpa/mpa_misc.c:177
    4796:	687b      	ldr	r3, [r7, #4]
    4798:	689b      	ldr	r3, [r3, #8]
    479a:	f003 0301 	and.w	r3, r3, #1
/home/csx/share/gerrit/optee_os/lib/libmpa/mpa_misc.c:178
    479e:	2b00      	cmp	r3, #0
    47a0:	bf14      	ite	ne
    47a2:	2301      	movne	r3, #1
    47a4:	2300      	moveq	r3, #0
    47a6:	b2db      	uxtb	r3, r3
/home/csx/share/gerrit/optee_os/lib/libmpa/mpa_misc.c:179
    47a8:	4618      	mov	r0, r3
    47aa:	370c      	adds	r7, #12
    47ac:	46bd      	mov	sp, r7
    47ae:	f85d 7b04 	ldr.w	r7, [sp], #4
    47b2:	4770      	bx	lr

000047b4 <mpa_constant_one>:
mpa_constant_one():
/home/csx/share/gerrit/optee_os/lib/libmpa/mpa_misc.c:187
    47b4:	f84d 7d04 	str.w	r7, [sp, #-4]!
    47b8:	af00      	add	r7, sp, #0
/home/csx/share/gerrit/optee_os/lib/libmpa/mpa_misc.c:188
    47ba:	4b03      	ldr	r3, [pc, #12]	; (47c8 <mpa_constant_one+0x14>)
    47bc:	447b      	add	r3, pc
/home/csx/share/gerrit/optee_os/lib/libmpa/mpa_misc.c:189
    47be:	4618      	mov	r0, r3
    47c0:	46bd      	mov	sp, r7
    47c2:	f85d 7b04 	ldr.w	r7, [sp], #4
    47c6:	4770      	bx	lr
    47c8:	00004774 	.word	0x00004774

000047cc <__mpa_montgomery_mul_add>:
__mpa_montgomery_mul_add():
/home/csx/share/gerrit/optee_os/lib/libmpa/mpa_montgomery.c:48
    47cc:	f84d 4d24 	str.w	r4, [sp, #-36]!
    47d0:	e9cd 5601 	strd	r5, r6, [sp, #4]
    47d4:	e9cd 7803 	strd	r7, r8, [sp, #12]
    47d8:	e9cd 9a05 	strd	r9, sl, [sp, #20]
    47dc:	e9cd be07 	strd	fp, lr, [sp, #28]
    47e0:	b08b      	sub	sp, #44	; 0x2c
    47e2:	af00      	add	r7, sp, #0
    47e4:	60f8      	str	r0, [r7, #12]
    47e6:	60b9      	str	r1, [r7, #8]
    47e8:	607a      	str	r2, [r7, #4]
/home/csx/share/gerrit/optee_os/lib/libmpa/mpa_montgomery.c:56
    47ea:	687b      	ldr	r3, [r7, #4]
    47ec:	2b00      	cmp	r3, #0
    47ee:	d100      	bne.n	47f2 <__mpa_montgomery_mul_add+0x26>
/home/csx/share/gerrit/optee_os/lib/libmpa/mpa_montgomery.c:57
    47f0:	e06f      	b.n	48d2 <__mpa_montgomery_mul_add+0x106>
/home/csx/share/gerrit/optee_os/lib/libmpa/mpa_montgomery.c:58
    47f2:	68fb      	ldr	r3, [r7, #12]
    47f4:	3308      	adds	r3, #8
    47f6:	61bb      	str	r3, [r7, #24]
/home/csx/share/gerrit/optee_os/lib/libmpa/mpa_montgomery.c:59
    47f8:	68fb      	ldr	r3, [r7, #12]
    47fa:	3308      	adds	r3, #8
    47fc:	627b      	str	r3, [r7, #36]	; 0x24
/home/csx/share/gerrit/optee_os/lib/libmpa/mpa_montgomery.c:60
    47fe:	2300      	movs	r3, #0
    4800:	61fb      	str	r3, [r7, #28]
/home/csx/share/gerrit/optee_os/lib/libmpa/mpa_montgomery.c:61
    4802:	2300      	movs	r3, #0
    4804:	623b      	str	r3, [r7, #32]
    4806:	e034      	b.n	4872 <__mpa_montgomery_mul_add+0xa6>
/home/csx/share/gerrit/optee_os/lib/libmpa/mpa_montgomery.c:62 (discriminator 3)
    4808:	6a7b      	ldr	r3, [r7, #36]	; 0x24
    480a:	681b      	ldr	r3, [r3, #0]
    480c:	461c      	mov	r4, r3
    480e:	f04f 0500 	mov.w	r5, #0
/home/csx/share/gerrit/optee_os/lib/libmpa/mpa_montgomery.c:63 (discriminator 3)
    4812:	68bb      	ldr	r3, [r7, #8]
    4814:	6a3a      	ldr	r2, [r7, #32]
    4816:	3202      	adds	r2, #2
    4818:	f853 3022 	ldr.w	r3, [r3, r2, lsl #2]
    481c:	4618      	mov	r0, r3
    481e:	f04f 0100 	mov.w	r1, #0
    4822:	687b      	ldr	r3, [r7, #4]
    4824:	461a      	mov	r2, r3
    4826:	f04f 0300 	mov.w	r3, #0
    482a:	fb02 fe01 	mul.w	lr, r2, r1
    482e:	fb00 f603 	mul.w	r6, r0, r3
    4832:	4476      	add	r6, lr
    4834:	fba0 2302 	umull	r2, r3, r0, r2
    4838:	18f1      	adds	r1, r6, r3
    483a:	460b      	mov	r3, r1
/home/csx/share/gerrit/optee_os/lib/libmpa/mpa_montgomery.c:62 (discriminator 3)
    483c:	18a0      	adds	r0, r4, r2
    483e:	eb45 0103 	adc.w	r1, r5, r3
/home/csx/share/gerrit/optee_os/lib/libmpa/mpa_montgomery.c:64 (discriminator 3)
    4842:	69fb      	ldr	r3, [r7, #28]
    4844:	461a      	mov	r2, r3
    4846:	f04f 0300 	mov.w	r3, #0
/home/csx/share/gerrit/optee_os/lib/libmpa/mpa_montgomery.c:62 (discriminator 3)
    484a:	1812      	adds	r2, r2, r0
    484c:	eb43 0301 	adc.w	r3, r3, r1
    4850:	e9c7 2304 	strd	r2, r3, [r7, #16]
/home/csx/share/gerrit/optee_os/lib/libmpa/mpa_montgomery.c:65 (discriminator 3)
    4854:	6a7b      	ldr	r3, [r7, #36]	; 0x24
    4856:	1d1a      	adds	r2, r3, #4
    4858:	627a      	str	r2, [r7, #36]	; 0x24
    485a:	693a      	ldr	r2, [r7, #16]
    485c:	601a      	str	r2, [r3, #0]
/home/csx/share/gerrit/optee_os/lib/libmpa/mpa_montgomery.c:66 (discriminator 3)
    485e:	e9d7 2304 	ldrd	r2, r3, [r7, #16]
    4862:	469a      	mov	sl, r3
    4864:	f04f 0b00 	mov.w	fp, #0
    4868:	4653      	mov	r3, sl
    486a:	61fb      	str	r3, [r7, #28]
/home/csx/share/gerrit/optee_os/lib/libmpa/mpa_montgomery.c:61 (discriminator 3)
    486c:	6a3b      	ldr	r3, [r7, #32]
    486e:	3301      	adds	r3, #1
    4870:	623b      	str	r3, [r7, #32]
/home/csx/share/gerrit/optee_os/lib/libmpa/mpa_montgomery.c:61 (discriminator 1)
    4872:	68bb      	ldr	r3, [r7, #8]
    4874:	685a      	ldr	r2, [r3, #4]
    4876:	6a3b      	ldr	r3, [r7, #32]
    4878:	429a      	cmp	r2, r3
    487a:	dcc5      	bgt.n	4808 <__mpa_montgomery_mul_add+0x3c>
/home/csx/share/gerrit/optee_os/lib/libmpa/mpa_montgomery.c:68
    487c:	e019      	b.n	48b2 <__mpa_montgomery_mul_add+0xe6>
/home/csx/share/gerrit/optee_os/lib/libmpa/mpa_montgomery.c:69
    487e:	6a7b      	ldr	r3, [r7, #36]	; 0x24
    4880:	681b      	ldr	r3, [r3, #0]
    4882:	4618      	mov	r0, r3
    4884:	f04f 0100 	mov.w	r1, #0
    4888:	69fb      	ldr	r3, [r7, #28]
    488a:	461a      	mov	r2, r3
    488c:	f04f 0300 	mov.w	r3, #0
    4890:	1812      	adds	r2, r2, r0
    4892:	eb43 0301 	adc.w	r3, r3, r1
    4896:	e9c7 2304 	strd	r2, r3, [r7, #16]
/home/csx/share/gerrit/optee_os/lib/libmpa/mpa_montgomery.c:70
    489a:	6a7b      	ldr	r3, [r7, #36]	; 0x24
    489c:	1d1a      	adds	r2, r3, #4
    489e:	627a      	str	r2, [r7, #36]	; 0x24
    48a0:	693a      	ldr	r2, [r7, #16]
    48a2:	601a      	str	r2, [r3, #0]
/home/csx/share/gerrit/optee_os/lib/libmpa/mpa_montgomery.c:71
    48a4:	e9d7 2304 	ldrd	r2, r3, [r7, #16]
    48a8:	4698      	mov	r8, r3
    48aa:	f04f 0900 	mov.w	r9, #0
    48ae:	4643      	mov	r3, r8
    48b0:	61fb      	str	r3, [r7, #28]
/home/csx/share/gerrit/optee_os/lib/libmpa/mpa_montgomery.c:68
    48b2:	69fb      	ldr	r3, [r7, #28]
    48b4:	2b00      	cmp	r3, #0
    48b6:	d1e2      	bne.n	487e <__mpa_montgomery_mul_add+0xb2>
/home/csx/share/gerrit/optee_os/lib/libmpa/mpa_montgomery.c:73
    48b8:	6a7a      	ldr	r2, [r7, #36]	; 0x24
    48ba:	69bb      	ldr	r3, [r7, #24]
    48bc:	1ad3      	subs	r3, r2, r3
    48be:	109b      	asrs	r3, r3, #2
    48c0:	623b      	str	r3, [r7, #32]
/home/csx/share/gerrit/optee_os/lib/libmpa/mpa_montgomery.c:74
    48c2:	68fb      	ldr	r3, [r7, #12]
    48c4:	685a      	ldr	r2, [r3, #4]
    48c6:	6a3b      	ldr	r3, [r7, #32]
    48c8:	429a      	cmp	r2, r3
    48ca:	da02      	bge.n	48d2 <__mpa_montgomery_mul_add+0x106>
/home/csx/share/gerrit/optee_os/lib/libmpa/mpa_montgomery.c:75
    48cc:	68fb      	ldr	r3, [r7, #12]
    48ce:	6a3a      	ldr	r2, [r7, #32]
    48d0:	605a      	str	r2, [r3, #4]
/home/csx/share/gerrit/optee_os/lib/libmpa/mpa_montgomery.c:80
    48d2:	372c      	adds	r7, #44	; 0x2c
    48d4:	46bd      	mov	sp, r7
    48d6:	e9dd 4500 	ldrd	r4, r5, [sp]
    48da:	e9dd 6702 	ldrd	r6, r7, [sp, #8]
    48de:	e9dd 8904 	ldrd	r8, r9, [sp, #16]
    48e2:	e9dd ab06 	ldrd	sl, fp, [sp, #24]
    48e6:	b008      	add	sp, #32
    48e8:	f85d fb04 	ldr.w	pc, [sp], #4

000048ec <__mpa_montgomery_sub_ack>:
__mpa_montgomery_sub_ack():
/home/csx/share/gerrit/optee_os/lib/libmpa/mpa_montgomery.c:90
    48ec:	f84d 4d14 	str.w	r4, [sp, #-20]!
    48f0:	e9cd 5701 	strd	r5, r7, [sp, #4]
    48f4:	e9cd 8903 	strd	r8, r9, [sp, #12]
    48f8:	b089      	sub	sp, #36	; 0x24
    48fa:	af00      	add	r7, sp, #0
    48fc:	6078      	str	r0, [r7, #4]
    48fe:	6039      	str	r1, [r7, #0]
/home/csx/share/gerrit/optee_os/lib/libmpa/mpa_montgomery.c:97
    4900:	687b      	ldr	r3, [r7, #4]
    4902:	3308      	adds	r3, #8
    4904:	61fb      	str	r3, [r7, #28]
/home/csx/share/gerrit/optee_os/lib/libmpa/mpa_montgomery.c:98
    4906:	2300      	movs	r3, #0
    4908:	61bb      	str	r3, [r7, #24]
/home/csx/share/gerrit/optee_os/lib/libmpa/mpa_montgomery.c:99
    490a:	2300      	movs	r3, #0
    490c:	617b      	str	r3, [r7, #20]
/home/csx/share/gerrit/optee_os/lib/libmpa/mpa_montgomery.c:100
    490e:	e028      	b.n	4962 <__mpa_montgomery_sub_ack+0x76>
/home/csx/share/gerrit/optee_os/lib/libmpa/mpa_montgomery.c:101
    4910:	69fb      	ldr	r3, [r7, #28]
    4912:	681b      	ldr	r3, [r3, #0]
    4914:	4618      	mov	r0, r3
    4916:	f04f 0100 	mov.w	r1, #0
    491a:	683b      	ldr	r3, [r7, #0]
    491c:	697a      	ldr	r2, [r7, #20]
    491e:	3202      	adds	r2, #2
    4920:	f853 3022 	ldr.w	r3, [r3, r2, lsl #2]
    4924:	461a      	mov	r2, r3
    4926:	f04f 0300 	mov.w	r3, #0
    492a:	1a80      	subs	r0, r0, r2
    492c:	eb61 0103 	sbc.w	r1, r1, r3
/home/csx/share/gerrit/optee_os/lib/libmpa/mpa_montgomery.c:102
    4930:	69bb      	ldr	r3, [r7, #24]
    4932:	461a      	mov	r2, r3
    4934:	f04f 0300 	mov.w	r3, #0
/home/csx/share/gerrit/optee_os/lib/libmpa/mpa_montgomery.c:101
    4938:	1a82      	subs	r2, r0, r2
    493a:	eb61 0303 	sbc.w	r3, r1, r3
    493e:	e9c7 2302 	strd	r2, r3, [r7, #8]
/home/csx/share/gerrit/optee_os/lib/libmpa/mpa_montgomery.c:103
    4942:	69fb      	ldr	r3, [r7, #28]
    4944:	1d1a      	adds	r2, r3, #4
    4946:	61fa      	str	r2, [r7, #28]
    4948:	68ba      	ldr	r2, [r7, #8]
    494a:	601a      	str	r2, [r3, #0]
/home/csx/share/gerrit/optee_os/lib/libmpa/mpa_montgomery.c:104
    494c:	e9d7 2302 	ldrd	r2, r3, [r7, #8]
    4950:	4698      	mov	r8, r3
    4952:	f04f 0900 	mov.w	r9, #0
    4956:	4643      	mov	r3, r8
    4958:	425b      	negs	r3, r3
    495a:	61bb      	str	r3, [r7, #24]
/home/csx/share/gerrit/optee_os/lib/libmpa/mpa_montgomery.c:105
    495c:	697b      	ldr	r3, [r7, #20]
    495e:	3301      	adds	r3, #1
    4960:	617b      	str	r3, [r7, #20]
/home/csx/share/gerrit/optee_os/lib/libmpa/mpa_montgomery.c:100
    4962:	683b      	ldr	r3, [r7, #0]
    4964:	685a      	ldr	r2, [r3, #4]
    4966:	697b      	ldr	r3, [r7, #20]
    4968:	429a      	cmp	r2, r3
    496a:	dcd1      	bgt.n	4910 <__mpa_montgomery_sub_ack+0x24>
/home/csx/share/gerrit/optee_os/lib/libmpa/mpa_montgomery.c:109
    496c:	e01c      	b.n	49a8 <__mpa_montgomery_sub_ack+0xbc>
/home/csx/share/gerrit/optee_os/lib/libmpa/mpa_montgomery.c:110
    496e:	69fb      	ldr	r3, [r7, #28]
    4970:	681b      	ldr	r3, [r3, #0]
    4972:	4618      	mov	r0, r3
    4974:	f04f 0100 	mov.w	r1, #0
    4978:	69bb      	ldr	r3, [r7, #24]
    497a:	461a      	mov	r2, r3
    497c:	f04f 0300 	mov.w	r3, #0
    4980:	1a82      	subs	r2, r0, r2
    4982:	eb61 0303 	sbc.w	r3, r1, r3
    4986:	e9c7 2302 	strd	r2, r3, [r7, #8]
/home/csx/share/gerrit/optee_os/lib/libmpa/mpa_montgomery.c:111
    498a:	69fb      	ldr	r3, [r7, #28]
    498c:	1d1a      	adds	r2, r3, #4
    498e:	61fa      	str	r2, [r7, #28]
    4990:	68ba      	ldr	r2, [r7, #8]
    4992:	601a      	str	r2, [r3, #0]
/home/csx/share/gerrit/optee_os/lib/libmpa/mpa_montgomery.c:112
    4994:	e9d7 2302 	ldrd	r2, r3, [r7, #8]
    4998:	001c      	movs	r4, r3
    499a:	2500      	movs	r5, #0
    499c:	4623      	mov	r3, r4
    499e:	425b      	negs	r3, r3
    49a0:	61bb      	str	r3, [r7, #24]
/home/csx/share/gerrit/optee_os/lib/libmpa/mpa_montgomery.c:113
    49a2:	697b      	ldr	r3, [r7, #20]
    49a4:	3301      	adds	r3, #1
    49a6:	617b      	str	r3, [r7, #20]
/home/csx/share/gerrit/optee_os/lib/libmpa/mpa_montgomery.c:109
    49a8:	69bb      	ldr	r3, [r7, #24]
    49aa:	2b00      	cmp	r3, #0
    49ac:	d1df      	bne.n	496e <__mpa_montgomery_sub_ack+0x82>
/home/csx/share/gerrit/optee_os/lib/libmpa/mpa_montgomery.c:115
    49ae:	687b      	ldr	r3, [r7, #4]
    49b0:	685a      	ldr	r2, [r3, #4]
    49b2:	697b      	ldr	r3, [r7, #20]
    49b4:	429a      	cmp	r2, r3
    49b6:	dc10      	bgt.n	49da <__mpa_montgomery_sub_ack+0xee>
/home/csx/share/gerrit/optee_os/lib/libmpa/mpa_montgomery.c:117
    49b8:	e004      	b.n	49c4 <__mpa_montgomery_sub_ack+0xd8>
/home/csx/share/gerrit/optee_os/lib/libmpa/mpa_montgomery.c:118
    49ba:	687b      	ldr	r3, [r7, #4]
    49bc:	685b      	ldr	r3, [r3, #4]
    49be:	1e5a      	subs	r2, r3, #1
    49c0:	687b      	ldr	r3, [r7, #4]
    49c2:	605a      	str	r2, [r3, #4]
/home/csx/share/gerrit/optee_os/lib/libmpa/mpa_montgomery.c:117
    49c4:	687b      	ldr	r3, [r7, #4]
    49c6:	685b      	ldr	r3, [r3, #4]
    49c8:	2b00      	cmp	r3, #0
    49ca:	dd06      	ble.n	49da <__mpa_montgomery_sub_ack+0xee>
/home/csx/share/gerrit/optee_os/lib/libmpa/mpa_montgomery.c:117 (discriminator 1)
    49cc:	69fb      	ldr	r3, [r7, #28]
    49ce:	3b04      	subs	r3, #4
    49d0:	61fb      	str	r3, [r7, #28]
    49d2:	69fb      	ldr	r3, [r7, #28]
    49d4:	681b      	ldr	r3, [r3, #0]
    49d6:	2b00      	cmp	r3, #0
    49d8:	d0ef      	beq.n	49ba <__mpa_montgomery_sub_ack+0xce>
/home/csx/share/gerrit/optee_os/lib/libmpa/mpa_montgomery.c:123
    49da:	3724      	adds	r7, #36	; 0x24
    49dc:	46bd      	mov	sp, r7
    49de:	e9dd 4500 	ldrd	r4, r5, [sp]
    49e2:	e9dd 7802 	ldrd	r7, r8, [sp, #8]
    49e6:	b004      	add	sp, #16
    49e8:	f85d 9b04 	ldr.w	r9, [sp], #4
    49ec:	4770      	bx	lr
    49ee:	bf00      	nop

000049f0 <__mpa_montgomery_mul>:
__mpa_montgomery_mul():
/home/csx/share/gerrit/optee_os/lib/libmpa/mpa_montgomery.c:137
    49f0:	e96d 7e02 	strd	r7, lr, [sp, #-8]!
    49f4:	b088      	sub	sp, #32
    49f6:	af00      	add	r7, sp, #0
    49f8:	60f8      	str	r0, [r7, #12]
    49fa:	60b9      	str	r1, [r7, #8]
    49fc:	607a      	str	r2, [r7, #4]
    49fe:	603b      	str	r3, [r7, #0]
/home/csx/share/gerrit/optee_os/lib/libmpa/mpa_montgomery.c:142
    4a00:	68f8      	ldr	r0, [r7, #12]
    4a02:	f7ff fdf3 	bl	45ec <mpa_wipe>
/home/csx/share/gerrit/optee_os/lib/libmpa/mpa_montgomery.c:144
    4a06:	2300      	movs	r3, #0
    4a08:	61fb      	str	r3, [r7, #28]
    4a0a:	e064      	b.n	4ad6 <__mpa_montgomery_mul+0xe6>
/home/csx/share/gerrit/optee_os/lib/libmpa/mpa_montgomery.c:145
    4a0c:	68fb      	ldr	r3, [r7, #12]
    4a0e:	6899      	ldr	r1, [r3, #8]
/home/csx/share/gerrit/optee_os/lib/libmpa/mpa_montgomery.c:146
    4a10:	68bb      	ldr	r3, [r7, #8]
    4a12:	685b      	ldr	r3, [r3, #4]
    4a14:	ea83 72e3 	eor.w	r2, r3, r3, asr #31
    4a18:	eba2 72e3 	sub.w	r2, r2, r3, asr #31
    4a1c:	69fb      	ldr	r3, [r7, #28]
    4a1e:	429a      	cmp	r2, r3
    4a20:	dd05      	ble.n	4a2e <__mpa_montgomery_mul+0x3e>
/home/csx/share/gerrit/optee_os/lib/libmpa/mpa_montgomery.c:146 (discriminator 1)
    4a22:	68bb      	ldr	r3, [r7, #8]
    4a24:	69fa      	ldr	r2, [r7, #28]
    4a26:	3202      	adds	r2, #2
    4a28:	f853 3022 	ldr.w	r3, [r3, r2, lsl #2]
    4a2c:	e000      	b.n	4a30 <__mpa_montgomery_mul+0x40>
/home/csx/share/gerrit/optee_os/lib/libmpa/mpa_montgomery.c:146 (discriminator 2)
    4a2e:	2300      	movs	r3, #0
/home/csx/share/gerrit/optee_os/lib/libmpa/mpa_montgomery.c:147
    4a30:	687a      	ldr	r2, [r7, #4]
    4a32:	6852      	ldr	r2, [r2, #4]
    4a34:	2a00      	cmp	r2, #0
    4a36:	db03      	blt.n	4a40 <__mpa_montgomery_mul+0x50>
/home/csx/share/gerrit/optee_os/lib/libmpa/mpa_montgomery.c:147 (discriminator 2)
    4a38:	687a      	ldr	r2, [r7, #4]
    4a3a:	6852      	ldr	r2, [r2, #4]
    4a3c:	2a00      	cmp	r2, #0
    4a3e:	dd02      	ble.n	4a46 <__mpa_montgomery_mul+0x56>
/home/csx/share/gerrit/optee_os/lib/libmpa/mpa_montgomery.c:147 (discriminator 3)
    4a40:	687a      	ldr	r2, [r7, #4]
    4a42:	6892      	ldr	r2, [r2, #8]
    4a44:	e000      	b.n	4a48 <__mpa_montgomery_mul+0x58>
/home/csx/share/gerrit/optee_os/lib/libmpa/mpa_montgomery.c:147 (discriminator 4)
    4a46:	2200      	movs	r2, #0
/home/csx/share/gerrit/optee_os/lib/libmpa/mpa_montgomery.c:146
    4a48:	fb02 f303 	mul.w	r3, r2, r3
/home/csx/share/gerrit/optee_os/lib/libmpa/mpa_montgomery.c:145
    4a4c:	440b      	add	r3, r1
    4a4e:	6aba      	ldr	r2, [r7, #40]	; 0x28
    4a50:	fb02 f303 	mul.w	r3, r2, r3
    4a54:	617b      	str	r3, [r7, #20]
/home/csx/share/gerrit/optee_os/lib/libmpa/mpa_montgomery.c:150
    4a56:	68bb      	ldr	r3, [r7, #8]
    4a58:	685b      	ldr	r3, [r3, #4]
    4a5a:	ea83 72e3 	eor.w	r2, r3, r3, asr #31
    4a5e:	eba2 72e3 	sub.w	r2, r2, r3, asr #31
/home/csx/share/gerrit/optee_os/lib/libmpa/mpa_montgomery.c:149
    4a62:	69fb      	ldr	r3, [r7, #28]
    4a64:	429a      	cmp	r2, r3
    4a66:	dd05      	ble.n	4a74 <__mpa_montgomery_mul+0x84>
/home/csx/share/gerrit/optee_os/lib/libmpa/mpa_montgomery.c:149 (discriminator 1)
    4a68:	68bb      	ldr	r3, [r7, #8]
    4a6a:	69fa      	ldr	r2, [r7, #28]
    4a6c:	3202      	adds	r2, #2
    4a6e:	f853 3022 	ldr.w	r3, [r3, r2, lsl #2]
    4a72:	e000      	b.n	4a76 <__mpa_montgomery_mul+0x86>
/home/csx/share/gerrit/optee_os/lib/libmpa/mpa_montgomery.c:149 (discriminator 2)
    4a74:	2300      	movs	r3, #0
/home/csx/share/gerrit/optee_os/lib/libmpa/mpa_montgomery.c:149 (discriminator 4)
    4a76:	68f8      	ldr	r0, [r7, #12]
    4a78:	6879      	ldr	r1, [r7, #4]
    4a7a:	461a      	mov	r2, r3
    4a7c:	f7ff fea6 	bl	47cc <__mpa_montgomery_mul_add>
/home/csx/share/gerrit/optee_os/lib/libmpa/mpa_montgomery.c:151 (discriminator 4)
    4a80:	68f8      	ldr	r0, [r7, #12]
    4a82:	6839      	ldr	r1, [r7, #0]
    4a84:	697a      	ldr	r2, [r7, #20]
    4a86:	f7ff fea1 	bl	47cc <__mpa_montgomery_mul_add>
/home/csx/share/gerrit/optee_os/lib/libmpa/mpa_montgomery.c:154 (discriminator 4)
    4a8a:	68fb      	ldr	r3, [r7, #12]
    4a8c:	685b      	ldr	r3, [r3, #4]
    4a8e:	1e5a      	subs	r2, r3, #1
    4a90:	68fb      	ldr	r3, [r7, #12]
    4a92:	605a      	str	r2, [r3, #4]
/home/csx/share/gerrit/optee_os/lib/libmpa/mpa_montgomery.c:155 (discriminator 4)
    4a94:	2300      	movs	r3, #0
    4a96:	61bb      	str	r3, [r7, #24]
    4a98:	e00d      	b.n	4ab6 <__mpa_montgomery_mul+0xc6>
/home/csx/share/gerrit/optee_os/lib/libmpa/mpa_montgomery.c:156 (discriminator 3)
    4a9a:	69bb      	ldr	r3, [r7, #24]
    4a9c:	1c5a      	adds	r2, r3, #1
    4a9e:	68fb      	ldr	r3, [r7, #12]
    4aa0:	3202      	adds	r2, #2
    4aa2:	f853 1022 	ldr.w	r1, [r3, r2, lsl #2]
    4aa6:	68fb      	ldr	r3, [r7, #12]
    4aa8:	69ba      	ldr	r2, [r7, #24]
    4aaa:	3202      	adds	r2, #2
    4aac:	f843 1022 	str.w	r1, [r3, r2, lsl #2]
/home/csx/share/gerrit/optee_os/lib/libmpa/mpa_montgomery.c:155 (discriminator 3)
    4ab0:	69bb      	ldr	r3, [r7, #24]
    4ab2:	3301      	adds	r3, #1
    4ab4:	61bb      	str	r3, [r7, #24]
/home/csx/share/gerrit/optee_os/lib/libmpa/mpa_montgomery.c:155 (discriminator 1)
    4ab6:	68fb      	ldr	r3, [r7, #12]
    4ab8:	685a      	ldr	r2, [r3, #4]
    4aba:	69bb      	ldr	r3, [r7, #24]
    4abc:	429a      	cmp	r2, r3
    4abe:	dcec      	bgt.n	4a9a <__mpa_montgomery_mul+0xaa>
/home/csx/share/gerrit/optee_os/lib/libmpa/mpa_montgomery.c:157 (discriminator 2)
    4ac0:	68fb      	ldr	r3, [r7, #12]
    4ac2:	685b      	ldr	r3, [r3, #4]
    4ac4:	461a      	mov	r2, r3
    4ac6:	68fb      	ldr	r3, [r7, #12]
    4ac8:	3202      	adds	r2, #2
    4aca:	2100      	movs	r1, #0
    4acc:	f843 1022 	str.w	r1, [r3, r2, lsl #2]
/home/csx/share/gerrit/optee_os/lib/libmpa/mpa_montgomery.c:144 (discriminator 2)
    4ad0:	69fb      	ldr	r3, [r7, #28]
    4ad2:	3301      	adds	r3, #1
    4ad4:	61fb      	str	r3, [r7, #28]
/home/csx/share/gerrit/optee_os/lib/libmpa/mpa_montgomery.c:144 (discriminator 1)
    4ad6:	683b      	ldr	r3, [r7, #0]
    4ad8:	685a      	ldr	r2, [r3, #4]
    4ada:	69fb      	ldr	r3, [r7, #28]
    4adc:	429a      	cmp	r2, r3
    4ade:	dc95      	bgt.n	4a0c <__mpa_montgomery_mul+0x1c>
/home/csx/share/gerrit/optee_os/lib/libmpa/mpa_montgomery.c:161
    4ae0:	68f8      	ldr	r0, [r7, #12]
    4ae2:	6839      	ldr	r1, [r7, #0]
    4ae4:	f002 ff1a 	bl	791c <__mpa_abs_cmp>
    4ae8:	4603      	mov	r3, r0
    4aea:	2b00      	cmp	r3, #0
    4aec:	db03      	blt.n	4af6 <__mpa_montgomery_mul+0x106>
/home/csx/share/gerrit/optee_os/lib/libmpa/mpa_montgomery.c:162
    4aee:	68f8      	ldr	r0, [r7, #12]
    4af0:	6839      	ldr	r1, [r7, #0]
    4af2:	f7ff fefb 	bl	48ec <__mpa_montgomery_sub_ack>
/home/csx/share/gerrit/optee_os/lib/libmpa/mpa_montgomery.c:163
    4af6:	3720      	adds	r7, #32
    4af8:	46bd      	mov	sp, r7
    4afa:	bd80      	pop	{r7, pc}

00004afc <mpa_compute_fmm_context>:
mpa_compute_fmm_context():
/home/csx/share/gerrit/optee_os/lib/libmpa/mpa_montgomery.c:179
    4afc:	f84d 4d0c 	str.w	r4, [sp, #-12]!
    4b00:	e9cd 7e01 	strd	r7, lr, [sp, #4]
    4b04:	b08f      	sub	sp, #60	; 0x3c
    4b06:	af02      	add	r7, sp, #8
    4b08:	60f8      	str	r0, [r7, #12]
    4b0a:	60b9      	str	r1, [r7, #8]
    4b0c:	607a      	str	r2, [r7, #4]
    4b0e:	603b      	str	r3, [r7, #0]
    4b10:	4c3e      	ldr	r4, [pc, #248]	; (4c0c <mpa_compute_fmm_context+0x110>)
    4b12:	447c      	add	r4, pc
/home/csx/share/gerrit/optee_os/lib/libmpa/mpa_montgomery.c:187
    4b14:	f107 0310 	add.w	r3, r7, #16
    4b18:	62fb      	str	r3, [r7, #44]	; 0x2c
/home/csx/share/gerrit/optee_os/lib/libmpa/mpa_montgomery.c:193
    4b1a:	68fb      	ldr	r3, [r7, #12]
    4b1c:	685b      	ldr	r3, [r3, #4]
    4b1e:	2b00      	cmp	r3, #0
    4b20:	bfb8      	it	lt
    4b22:	425b      	neglt	r3, r3
    4b24:	62bb      	str	r3, [r7, #40]	; 0x28
/home/csx/share/gerrit/optee_os/lib/libmpa/mpa_montgomery.c:194
    4b26:	68b8      	ldr	r0, [r7, #8]
    4b28:	2101      	movs	r1, #1
    4b2a:	f000 fb05 	bl	5138 <mpa_set_word>
/home/csx/share/gerrit/optee_os/lib/libmpa/mpa_montgomery.c:195
    4b2e:	6abb      	ldr	r3, [r7, #40]	; 0x28
    4b30:	015b      	lsls	r3, r3, #5
    4b32:	68b8      	ldr	r0, [r7, #8]
    4b34:	68b9      	ldr	r1, [r7, #8]
    4b36:	461a      	mov	r2, r3
    4b38:	f002 f832 	bl	6ba0 <mpa_shift_left>
/home/csx/share/gerrit/optee_os/lib/libmpa/mpa_montgomery.c:196
    4b3c:	68b8      	ldr	r0, [r7, #8]
    4b3e:	68b9      	ldr	r1, [r7, #8]
    4b40:	68fa      	ldr	r2, [r7, #12]
    4b42:	6c3b      	ldr	r3, [r7, #64]	; 0x40
    4b44:	f003 fd86 	bl	8654 <mpa_mod>
/home/csx/share/gerrit/optee_os/lib/libmpa/mpa_montgomery.c:199
    4b48:	6c3b      	ldr	r3, [r7, #64]	; 0x40
    4b4a:	9300      	str	r3, [sp, #0]
    4b4c:	6878      	ldr	r0, [r7, #4]
    4b4e:	68b9      	ldr	r1, [r7, #8]
    4b50:	68ba      	ldr	r2, [r7, #8]
    4b52:	68fb      	ldr	r3, [r7, #12]
    4b54:	f003 fdde 	bl	8714 <mpa_mul_mod>
/home/csx/share/gerrit/optee_os/lib/libmpa/mpa_montgomery.c:202
    4b58:	6afb      	ldr	r3, [r7, #44]	; 0x2c
    4b5a:	2201      	movs	r2, #1
    4b5c:	601a      	str	r2, [r3, #0]
/home/csx/share/gerrit/optee_os/lib/libmpa/mpa_montgomery.c:203
    4b5e:	6afb      	ldr	r3, [r7, #44]	; 0x2c
    4b60:	2201      	movs	r2, #1
    4b62:	605a      	str	r2, [r3, #4]
/home/csx/share/gerrit/optee_os/lib/libmpa/mpa_montgomery.c:204
    4b64:	68fb      	ldr	r3, [r7, #12]
    4b66:	689a      	ldr	r2, [r3, #8]
    4b68:	6afb      	ldr	r3, [r7, #44]	; 0x2c
    4b6a:	609a      	str	r2, [r3, #8]
/home/csx/share/gerrit/optee_os/lib/libmpa/mpa_montgomery.c:206
    4b6c:	f107 0320 	add.w	r3, r7, #32
    4b70:	4618      	mov	r0, r3
    4b72:	6c39      	ldr	r1, [r7, #64]	; 0x40
    4b74:	f001 fc82 	bl	647c <mpa_alloc_static_temp_var>
/home/csx/share/gerrit/optee_os/lib/libmpa/mpa_montgomery.c:207
    4b78:	f107 031c 	add.w	r3, r7, #28
    4b7c:	4618      	mov	r0, r3
    4b7e:	6c39      	ldr	r1, [r7, #64]	; 0x40
    4b80:	f001 fc7c 	bl	647c <mpa_alloc_static_temp_var>
/home/csx/share/gerrit/optee_os/lib/libmpa/mpa_montgomery.c:209
    4b84:	69f9      	ldr	r1, [r7, #28]
    4b86:	6a3a      	ldr	r2, [r7, #32]
    4b88:	4b21      	ldr	r3, [pc, #132]	; (4c10 <mpa_compute_fmm_context+0x114>)
    4b8a:	58e3      	ldr	r3, [r4, r3]
    4b8c:	9300      	str	r3, [sp, #0]
    4b8e:	6c3b      	ldr	r3, [r7, #64]	; 0x40
    4b90:	9301      	str	r3, [sp, #4]
    4b92:	4608      	mov	r0, r1
    4b94:	4611      	mov	r1, r2
    4b96:	2200      	movs	r2, #0
    4b98:	6afb      	ldr	r3, [r7, #44]	; 0x2c
    4b9a:	f001 fad1 	bl	6140 <mpa_extended_gcd>
/home/csx/share/gerrit/optee_os/lib/libmpa/mpa_montgomery.c:211
    4b9e:	69fb      	ldr	r3, [r7, #28]
    4ba0:	4618      	mov	r0, r3
    4ba2:	2101      	movs	r1, #1
    4ba4:	f002 ff92 	bl	7acc <mpa_cmp_short>
    4ba8:	6278      	str	r0, [r7, #36]	; 0x24
/home/csx/share/gerrit/optee_os/lib/libmpa/mpa_montgomery.c:213
    4baa:	6a7b      	ldr	r3, [r7, #36]	; 0x24
    4bac:	2b00      	cmp	r3, #0
    4bae:	d000      	beq.n	4bb2 <mpa_compute_fmm_context+0xb6>
/home/csx/share/gerrit/optee_os/lib/libmpa/mpa_montgomery.c:214
    4bb0:	e011      	b.n	4bd6 <mpa_compute_fmm_context+0xda>
/home/csx/share/gerrit/optee_os/lib/libmpa/mpa_montgomery.c:229
    4bb2:	6a3b      	ldr	r3, [r7, #32]
    4bb4:	685b      	ldr	r3, [r3, #4]
    4bb6:	2b00      	cmp	r3, #0
    4bb8:	db09      	blt.n	4bce <mpa_compute_fmm_context+0xd2>
/home/csx/share/gerrit/optee_os/lib/libmpa/mpa_montgomery.c:230
    4bba:	6a3a      	ldr	r2, [r7, #32]
    4bbc:	6a3b      	ldr	r3, [r7, #32]
    4bbe:	4610      	mov	r0, r2
    4bc0:	4619      	mov	r1, r3
    4bc2:	4b13      	ldr	r3, [pc, #76]	; (4c10 <mpa_compute_fmm_context+0x114>)
    4bc4:	58e3      	ldr	r3, [r4, r3]
    4bc6:	461a      	mov	r2, r3
    4bc8:	6c3b      	ldr	r3, [r7, #64]	; 0x40
    4bca:	f002 fc6d 	bl	74a8 <mpa_sub>
/home/csx/share/gerrit/optee_os/lib/libmpa/mpa_montgomery.c:234
    4bce:	6a3b      	ldr	r3, [r7, #32]
    4bd0:	689a      	ldr	r2, [r3, #8]
    4bd2:	683b      	ldr	r3, [r7, #0]
    4bd4:	601a      	str	r2, [r3, #0]
/home/csx/share/gerrit/optee_os/lib/libmpa/mpa_montgomery.c:238
    4bd6:	f107 031c 	add.w	r3, r7, #28
    4bda:	4618      	mov	r0, r3
    4bdc:	6c39      	ldr	r1, [r7, #64]	; 0x40
    4bde:	f001 fc5f 	bl	64a0 <mpa_free_static_temp_var>
/home/csx/share/gerrit/optee_os/lib/libmpa/mpa_montgomery.c:239
    4be2:	f107 0320 	add.w	r3, r7, #32
    4be6:	4618      	mov	r0, r3
    4be8:	6c39      	ldr	r1, [r7, #64]	; 0x40
    4bea:	f001 fc59 	bl	64a0 <mpa_free_static_temp_var>
/home/csx/share/gerrit/optee_os/lib/libmpa/mpa_montgomery.c:241
    4bee:	6a7b      	ldr	r3, [r7, #36]	; 0x24
    4bf0:	2b00      	cmp	r3, #0
    4bf2:	d002      	beq.n	4bfa <mpa_compute_fmm_context+0xfe>
/home/csx/share/gerrit/optee_os/lib/libmpa/mpa_montgomery.c:242
    4bf4:	f04f 33ff 	mov.w	r3, #4294967295	; 0xffffffff
    4bf8:	e000      	b.n	4bfc <mpa_compute_fmm_context+0x100>
/home/csx/share/gerrit/optee_os/lib/libmpa/mpa_montgomery.c:243
    4bfa:	2300      	movs	r3, #0
/home/csx/share/gerrit/optee_os/lib/libmpa/mpa_montgomery.c:244 (discriminator 1)
    4bfc:	4618      	mov	r0, r3
    4bfe:	3734      	adds	r7, #52	; 0x34
    4c00:	46bd      	mov	sp, r7
    4c02:	e9dd 4700 	ldrd	r4, r7, [sp]
    4c06:	b002      	add	sp, #8
    4c08:	f85d fb04 	ldr.w	pc, [sp], #4
    4c0c:	000054ca 	.word	0x000054ca
    4c10:	00000024 	.word	0x00000024

00004c14 <mpa_montgomery_mul>:
mpa_montgomery_mul():
/home/csx/share/gerrit/optee_os/lib/libmpa/mpa_montgomery.c:257
    4c14:	e96d 7e02 	strd	r7, lr, [sp, #-8]!
    4c18:	b088      	sub	sp, #32
    4c1a:	af02      	add	r7, sp, #8
    4c1c:	60f8      	str	r0, [r7, #12]
    4c1e:	60b9      	str	r1, [r7, #8]
    4c20:	607a      	str	r2, [r7, #4]
    4c22:	603b      	str	r3, [r7, #0]
/home/csx/share/gerrit/optee_os/lib/libmpa/mpa_montgomery.c:260
    4c24:	f107 0314 	add.w	r3, r7, #20
    4c28:	4618      	mov	r0, r3
    4c2a:	6a79      	ldr	r1, [r7, #36]	; 0x24
    4c2c:	f001 fc26 	bl	647c <mpa_alloc_static_temp_var>
/home/csx/share/gerrit/optee_os/lib/libmpa/mpa_montgomery.c:262
    4c30:	697a      	ldr	r2, [r7, #20]
    4c32:	6a3b      	ldr	r3, [r7, #32]
    4c34:	9300      	str	r3, [sp, #0]
    4c36:	4610      	mov	r0, r2
    4c38:	68b9      	ldr	r1, [r7, #8]
    4c3a:	687a      	ldr	r2, [r7, #4]
    4c3c:	683b      	ldr	r3, [r7, #0]
    4c3e:	f7ff fed7 	bl	49f0 <__mpa_montgomery_mul>
/home/csx/share/gerrit/optee_os/lib/libmpa/mpa_montgomery.c:264
    4c42:	697b      	ldr	r3, [r7, #20]
    4c44:	68f8      	ldr	r0, [r7, #12]
    4c46:	4619      	mov	r1, r3
    4c48:	f7ff fce6 	bl	4618 <mpa_copy>
/home/csx/share/gerrit/optee_os/lib/libmpa/mpa_montgomery.c:265
    4c4c:	f107 0314 	add.w	r3, r7, #20
    4c50:	4618      	mov	r0, r3
    4c52:	6a79      	ldr	r1, [r7, #36]	; 0x24
    4c54:	f001 fc24 	bl	64a0 <mpa_free_static_temp_var>
/home/csx/share/gerrit/optee_os/lib/libmpa/mpa_montgomery.c:266
    4c58:	3718      	adds	r7, #24
    4c5a:	46bd      	mov	sp, r7
    4c5c:	bd80      	pop	{r7, pc}
    4c5e:	bf00      	nop

00004c60 <mpa_is_prob_prime>:
mpa_is_prob_prime():
/home/csx/share/gerrit/optee_os/lib/libmpa/mpa_primetest.c:89
    4c60:	e96d 7e02 	strd	r7, lr, [sp, #-8]!
    4c64:	b086      	sub	sp, #24
    4c66:	af00      	add	r7, sp, #0
    4c68:	60f8      	str	r0, [r7, #12]
    4c6a:	60b9      	str	r1, [r7, #8]
    4c6c:	607a      	str	r2, [r7, #4]
/home/csx/share/gerrit/optee_os/lib/libmpa/mpa_primetest.c:90
    4c6e:	2300      	movs	r3, #0
    4c70:	617b      	str	r3, [r7, #20]
/home/csx/share/gerrit/optee_os/lib/libmpa/mpa_primetest.c:93
    4c72:	68f8      	ldr	r0, [r7, #12]
    4c74:	f000 f836 	bl	4ce4 <is_small_prime>
    4c78:	6178      	str	r0, [r7, #20]
/home/csx/share/gerrit/optee_os/lib/libmpa/mpa_primetest.c:94
    4c7a:	697b      	ldr	r3, [r7, #20]
    4c7c:	f1b3 3fff 	cmp.w	r3, #4294967295	; 0xffffffff
    4c80:	d000      	beq.n	4c84 <mpa_is_prob_prime+0x24>
/home/csx/share/gerrit/optee_os/lib/libmpa/mpa_primetest.c:95
    4c82:	e00f      	b.n	4ca4 <mpa_is_prob_prime+0x44>
/home/csx/share/gerrit/optee_os/lib/libmpa/mpa_primetest.c:98
    4c84:	68f8      	ldr	r0, [r7, #12]
    4c86:	6879      	ldr	r1, [r7, #4]
    4c88:	f000 f872 	bl	4d70 <has_small_factors>
    4c8c:	4603      	mov	r3, r0
    4c8e:	2b00      	cmp	r3, #0
    4c90:	d002      	beq.n	4c98 <mpa_is_prob_prime+0x38>
/home/csx/share/gerrit/optee_os/lib/libmpa/mpa_primetest.c:99
    4c92:	2300      	movs	r3, #0
    4c94:	617b      	str	r3, [r7, #20]
/home/csx/share/gerrit/optee_os/lib/libmpa/mpa_primetest.c:100
    4c96:	e005      	b.n	4ca4 <mpa_is_prob_prime+0x44>
/home/csx/share/gerrit/optee_os/lib/libmpa/mpa_primetest.c:103
    4c98:	68f8      	ldr	r0, [r7, #12]
    4c9a:	68b9      	ldr	r1, [r7, #8]
    4c9c:	687a      	ldr	r2, [r7, #4]
    4c9e:	f000 f897 	bl	4dd0 <primality_test_miller_rabin>
    4ca2:	6178      	str	r0, [r7, #20]
/home/csx/share/gerrit/optee_os/lib/libmpa/mpa_primetest.c:106
    4ca4:	697b      	ldr	r3, [r7, #20]
/home/csx/share/gerrit/optee_os/lib/libmpa/mpa_primetest.c:107
    4ca6:	4618      	mov	r0, r3
    4ca8:	3718      	adds	r7, #24
    4caa:	46bd      	mov	sp, r7
    4cac:	bd80      	pop	{r7, pc}
    4cae:	bf00      	nop

00004cb0 <check_table>:
check_table():
/home/csx/share/gerrit/optee_os/lib/libmpa/mpa_primetest.c:116
    4cb0:	f84d 7d04 	str.w	r7, [sp, #-4]!
    4cb4:	b083      	sub	sp, #12
    4cb6:	af00      	add	r7, sp, #0
    4cb8:	6078      	str	r0, [r7, #4]
/home/csx/share/gerrit/optee_os/lib/libmpa/mpa_primetest.c:117
    4cba:	687b      	ldr	r3, [r7, #4]
    4cbc:	095b      	lsrs	r3, r3, #5
    4cbe:	4a08      	ldr	r2, [pc, #32]	; (4ce0 <check_table+0x30>)
    4cc0:	447a      	add	r2, pc
    4cc2:	f852 2023 	ldr.w	r2, [r2, r3, lsl #2]
    4cc6:	687b      	ldr	r3, [r7, #4]
    4cc8:	f003 031f 	and.w	r3, r3, #31
    4ccc:	fa22 f303 	lsr.w	r3, r2, r3
    4cd0:	f003 0301 	and.w	r3, r3, #1
/home/csx/share/gerrit/optee_os/lib/libmpa/mpa_primetest.c:118
    4cd4:	4618      	mov	r0, r3
    4cd6:	370c      	adds	r7, #12
    4cd8:	46bd      	mov	sp, r7
    4cda:	f85d 7b04 	ldr.w	r7, [sp], #4
    4cde:	4770      	bx	lr
    4ce0:	00004284 	.word	0x00004284

00004ce4 <is_small_prime>:
is_small_prime():
/home/csx/share/gerrit/optee_os/lib/libmpa/mpa_primetest.c:131
    4ce4:	e96d 7e02 	strd	r7, lr, [sp, #-8]!
    4ce8:	b084      	sub	sp, #16
    4cea:	af00      	add	r7, sp, #0
    4cec:	6078      	str	r0, [r7, #4]
/home/csx/share/gerrit/optee_os/lib/libmpa/mpa_primetest.c:136
    4cee:	687b      	ldr	r3, [r7, #4]
    4cf0:	685b      	ldr	r3, [r3, #4]
    4cf2:	2b00      	cmp	r3, #0
    4cf4:	bfb8      	it	lt
    4cf6:	425b      	neglt	r3, r3
    4cf8:	2b01      	cmp	r3, #1
    4cfa:	dd0a      	ble.n	4d12 <is_small_prime+0x2e>
/home/csx/share/gerrit/optee_os/lib/libmpa/mpa_primetest.c:137
    4cfc:	6878      	ldr	r0, [r7, #4]
    4cfe:	f7ff fd45 	bl	478c <mpa_parity>
    4d02:	4603      	mov	r3, r0
    4d04:	2b00      	cmp	r3, #0
    4d06:	d101      	bne.n	4d0c <is_small_prime+0x28>
/home/csx/share/gerrit/optee_os/lib/libmpa/mpa_primetest.c:137 (discriminator 1)
    4d08:	2300      	movs	r3, #0
    4d0a:	e02d      	b.n	4d68 <is_small_prime+0x84>
/home/csx/share/gerrit/optee_os/lib/libmpa/mpa_primetest.c:137 (discriminator 2)
    4d0c:	f04f 33ff 	mov.w	r3, #4294967295	; 0xffffffff
    4d10:	e02a      	b.n	4d68 <is_small_prime+0x84>
/home/csx/share/gerrit/optee_os/lib/libmpa/mpa_primetest.c:139
    4d12:	6878      	ldr	r0, [r7, #4]
    4d14:	f000 fa28 	bl	5168 <mpa_get_word>
    4d18:	60f8      	str	r0, [r7, #12]
/home/csx/share/gerrit/optee_os/lib/libmpa/mpa_primetest.c:140
    4d1a:	68fb      	ldr	r3, [r7, #12]
    4d1c:	f043 0301 	orr.w	r3, r3, #1
    4d20:	2b01      	cmp	r3, #1
    4d22:	d101      	bne.n	4d28 <is_small_prime+0x44>
/home/csx/share/gerrit/optee_os/lib/libmpa/mpa_primetest.c:141
    4d24:	2300      	movs	r3, #0
    4d26:	e01f      	b.n	4d68 <is_small_prime+0x84>
/home/csx/share/gerrit/optee_os/lib/libmpa/mpa_primetest.c:142
    4d28:	68fb      	ldr	r3, [r7, #12]
    4d2a:	2b02      	cmp	r3, #2
    4d2c:	d101      	bne.n	4d32 <is_small_prime+0x4e>
/home/csx/share/gerrit/optee_os/lib/libmpa/mpa_primetest.c:143
    4d2e:	2301      	movs	r3, #1
    4d30:	e01a      	b.n	4d68 <is_small_prime+0x84>
/home/csx/share/gerrit/optee_os/lib/libmpa/mpa_primetest.c:144
    4d32:	68fb      	ldr	r3, [r7, #12]
    4d34:	f003 0301 	and.w	r3, r3, #1
    4d38:	2b00      	cmp	r3, #0
    4d3a:	d101      	bne.n	4d40 <is_small_prime+0x5c>
/home/csx/share/gerrit/optee_os/lib/libmpa/mpa_primetest.c:145
    4d3c:	2300      	movs	r3, #0
    4d3e:	e013      	b.n	4d68 <is_small_prime+0x84>
/home/csx/share/gerrit/optee_os/lib/libmpa/mpa_primetest.c:148
    4d40:	f24c 334f 	movw	r3, #49999	; 0xc34f
    4d44:	6878      	ldr	r0, [r7, #4]
    4d46:	4619      	mov	r1, r3
    4d48:	f002 fec0 	bl	7acc <mpa_cmp_short>
    4d4c:	4603      	mov	r3, r0
    4d4e:	2b00      	cmp	r3, #0
    4d50:	dd02      	ble.n	4d58 <is_small_prime+0x74>
/home/csx/share/gerrit/optee_os/lib/libmpa/mpa_primetest.c:149
    4d52:	f04f 33ff 	mov.w	r3, #4294967295	; 0xffffffff
    4d56:	e007      	b.n	4d68 <is_small_prime+0x84>
/home/csx/share/gerrit/optee_os/lib/libmpa/mpa_primetest.c:150
    4d58:	68fb      	ldr	r3, [r7, #12]
    4d5a:	3b03      	subs	r3, #3
    4d5c:	085b      	lsrs	r3, r3, #1
    4d5e:	60fb      	str	r3, [r7, #12]
/home/csx/share/gerrit/optee_os/lib/libmpa/mpa_primetest.c:151
    4d60:	68f8      	ldr	r0, [r7, #12]
    4d62:	f7ff ffa5 	bl	4cb0 <check_table>
    4d66:	4603      	mov	r3, r0
/home/csx/share/gerrit/optee_os/lib/libmpa/mpa_primetest.c:155
    4d68:	4618      	mov	r0, r3
    4d6a:	3710      	adds	r7, #16
    4d6c:	46bd      	mov	sp, r7
    4d6e:	bd80      	pop	{r7, pc}

00004d70 <has_small_factors>:
has_small_factors():
/home/csx/share/gerrit/optee_os/lib/libmpa/mpa_primetest.c:165
    4d70:	e96d 7e02 	strd	r7, lr, [sp, #-8]!
    4d74:	b086      	sub	sp, #24
    4d76:	af00      	add	r7, sp, #0
    4d78:	6078      	str	r0, [r7, #4]
    4d7a:	6039      	str	r1, [r7, #0]
/home/csx/share/gerrit/optee_os/lib/libmpa/mpa_primetest.c:166
    4d7c:	4b13      	ldr	r3, [pc, #76]	; (4dcc <has_small_factors+0x5c>)
    4d7e:	447b      	add	r3, pc
    4d80:	617b      	str	r3, [r7, #20]
/home/csx/share/gerrit/optee_os/lib/libmpa/mpa_primetest.c:170
    4d82:	f107 030c 	add.w	r3, r7, #12
    4d86:	4618      	mov	r0, r3
    4d88:	6839      	ldr	r1, [r7, #0]
    4d8a:	f001 fb77 	bl	647c <mpa_alloc_static_temp_var>
/home/csx/share/gerrit/optee_os/lib/libmpa/mpa_primetest.c:171
    4d8e:	68fb      	ldr	r3, [r7, #12]
    4d90:	4618      	mov	r0, r3
    4d92:	6879      	ldr	r1, [r7, #4]
    4d94:	697a      	ldr	r2, [r7, #20]
    4d96:	683b      	ldr	r3, [r7, #0]
    4d98:	f001 f966 	bl	6068 <mpa_gcd>
/home/csx/share/gerrit/optee_os/lib/libmpa/mpa_primetest.c:172
    4d9c:	68fb      	ldr	r3, [r7, #12]
    4d9e:	4618      	mov	r0, r3
    4da0:	2101      	movs	r1, #1
    4da2:	f002 fe93 	bl	7acc <mpa_cmp_short>
    4da6:	4603      	mov	r3, r0
    4da8:	2b00      	cmp	r3, #0
    4daa:	bf14      	ite	ne
    4dac:	2301      	movne	r3, #1
    4dae:	2300      	moveq	r3, #0
    4db0:	b2db      	uxtb	r3, r3
    4db2:	613b      	str	r3, [r7, #16]
/home/csx/share/gerrit/optee_os/lib/libmpa/mpa_primetest.c:173
    4db4:	f107 030c 	add.w	r3, r7, #12
    4db8:	4618      	mov	r0, r3
    4dba:	6839      	ldr	r1, [r7, #0]
    4dbc:	f001 fb70 	bl	64a0 <mpa_free_static_temp_var>
/home/csx/share/gerrit/optee_os/lib/libmpa/mpa_primetest.c:175
    4dc0:	693b      	ldr	r3, [r7, #16]
/home/csx/share/gerrit/optee_os/lib/libmpa/mpa_primetest.c:176
    4dc2:	4618      	mov	r0, r3
    4dc4:	3718      	adds	r7, #24
    4dc6:	46bd      	mov	sp, r7
    4dc8:	bd80      	pop	{r7, pc}
    4dca:	bf00      	nop
    4dcc:	00004dfe 	.word	0x00004dfe

00004dd0 <primality_test_miller_rabin>:
primality_test_miller_rabin():
/home/csx/share/gerrit/optee_os/lib/libmpa/mpa_primetest.c:185
    4dd0:	e96d 4504 	strd	r4, r5, [sp, #-16]!
    4dd4:	e9cd 7e02 	strd	r7, lr, [sp, #8]
    4dd8:	b096      	sub	sp, #88	; 0x58
    4dda:	af04      	add	r7, sp, #16
    4ddc:	60f8      	str	r0, [r7, #12]
    4dde:	60b9      	str	r1, [r7, #8]
    4de0:	607a      	str	r2, [r7, #4]
/home/csx/share/gerrit/optee_os/lib/libmpa/mpa_primetest.c:192
    4de2:	2300      	movs	r3, #0
    4de4:	637b      	str	r3, [r7, #52]	; 0x34
/home/csx/share/gerrit/optee_os/lib/libmpa/mpa_primetest.c:202
    4de6:	f107 0318 	add.w	r3, r7, #24
    4dea:	4618      	mov	r0, r3
    4dec:	6879      	ldr	r1, [r7, #4]
    4dee:	f001 fb45 	bl	647c <mpa_alloc_static_temp_var>
/home/csx/share/gerrit/optee_os/lib/libmpa/mpa_primetest.c:203
    4df2:	f107 0314 	add.w	r3, r7, #20
    4df6:	4618      	mov	r0, r3
    4df8:	6879      	ldr	r1, [r7, #4]
    4dfa:	f001 fb3f 	bl	647c <mpa_alloc_static_temp_var>
/home/csx/share/gerrit/optee_os/lib/libmpa/mpa_primetest.c:205
    4dfe:	69b9      	ldr	r1, [r7, #24]
    4e00:	697a      	ldr	r2, [r7, #20]
    4e02:	f107 0410 	add.w	r4, r7, #16
    4e06:	687b      	ldr	r3, [r7, #4]
    4e08:	9300      	str	r3, [sp, #0]
    4e0a:	68f8      	ldr	r0, [r7, #12]
    4e0c:	4623      	mov	r3, r4
    4e0e:	f7ff fe75 	bl	4afc <mpa_compute_fmm_context>
    4e12:	4603      	mov	r3, r0
    4e14:	f1b3 3fff 	cmp.w	r3, #4294967295	; 0xffffffff
    4e18:	d102      	bne.n	4e20 <primality_test_miller_rabin+0x50>
/home/csx/share/gerrit/optee_os/lib/libmpa/mpa_primetest.c:206
    4e1a:	2300      	movs	r3, #0
    4e1c:	647b      	str	r3, [r7, #68]	; 0x44
/home/csx/share/gerrit/optee_os/lib/libmpa/mpa_primetest.c:207
    4e1e:	e107      	b.n	5030 <primality_test_miller_rabin+0x260>
/home/csx/share/gerrit/optee_os/lib/libmpa/mpa_primetest.c:210
    4e20:	f107 0328 	add.w	r3, r7, #40	; 0x28
    4e24:	4618      	mov	r0, r3
    4e26:	6879      	ldr	r1, [r7, #4]
    4e28:	f001 fb28 	bl	647c <mpa_alloc_static_temp_var>
/home/csx/share/gerrit/optee_os/lib/libmpa/mpa_primetest.c:211
    4e2c:	f107 0324 	add.w	r3, r7, #36	; 0x24
    4e30:	4618      	mov	r0, r3
    4e32:	6879      	ldr	r1, [r7, #4]
    4e34:	f001 fb22 	bl	647c <mpa_alloc_static_temp_var>
/home/csx/share/gerrit/optee_os/lib/libmpa/mpa_primetest.c:212
    4e38:	f107 0320 	add.w	r3, r7, #32
    4e3c:	4618      	mov	r0, r3
    4e3e:	6879      	ldr	r1, [r7, #4]
    4e40:	f001 fb1c 	bl	647c <mpa_alloc_static_temp_var>
/home/csx/share/gerrit/optee_os/lib/libmpa/mpa_primetest.c:213
    4e44:	f107 031c 	add.w	r3, r7, #28
    4e48:	4618      	mov	r0, r3
    4e4a:	6879      	ldr	r1, [r7, #4]
    4e4c:	f001 fb16 	bl	647c <mpa_alloc_static_temp_var>
/home/csx/share/gerrit/optee_os/lib/libmpa/mpa_primetest.c:216
    4e50:	68f8      	ldr	r0, [r7, #12]
    4e52:	4b81      	ldr	r3, [pc, #516]	; (5058 <primality_test_miller_rabin+0x288>)
    4e54:	447b      	add	r3, pc
    4e56:	4619      	mov	r1, r3
    4e58:	f002 fdf8 	bl	7a4c <mpa_cmp>
    4e5c:	4603      	mov	r3, r0
/home/csx/share/gerrit/optee_os/lib/libmpa/mpa_primetest.c:215
    4e5e:	0fdb      	lsrs	r3, r3, #31
    4e60:	f887 3033 	strb.w	r3, [r7, #51]	; 0x33
/home/csx/share/gerrit/optee_os/lib/libmpa/mpa_primetest.c:218
    4e64:	f897 3033 	ldrb.w	r3, [r7, #51]	; 0x33
    4e68:	2b00      	cmp	r3, #0
    4e6a:	d002      	beq.n	4e72 <primality_test_miller_rabin+0xa2>
/home/csx/share/gerrit/optee_os/lib/libmpa/mpa_primetest.c:219
    4e6c:	2307      	movs	r3, #7
    4e6e:	643b      	str	r3, [r7, #64]	; 0x40
    4e70:	e005      	b.n	4e7e <primality_test_miller_rabin+0xae>
/home/csx/share/gerrit/optee_os/lib/libmpa/mpa_primetest.c:221
    4e72:	68bb      	ldr	r3, [r7, #8]
    4e74:	3301      	adds	r3, #1
    4e76:	0fda      	lsrs	r2, r3, #31
    4e78:	4413      	add	r3, r2
    4e7a:	105b      	asrs	r3, r3, #1
    4e7c:	643b      	str	r3, [r7, #64]	; 0x40
/home/csx/share/gerrit/optee_os/lib/libmpa/mpa_primetest.c:223
    4e7e:	6a3b      	ldr	r3, [r7, #32]
    4e80:	4618      	mov	r0, r3
    4e82:	68f9      	ldr	r1, [r7, #12]
    4e84:	2201      	movs	r2, #1
    4e86:	687b      	ldr	r3, [r7, #4]
    4e88:	f002 fcac 	bl	77e4 <mpa_sub_word>
/home/csx/share/gerrit/optee_os/lib/libmpa/mpa_primetest.c:224
    4e8c:	6a7a      	ldr	r2, [r7, #36]	; 0x24
    4e8e:	6a3b      	ldr	r3, [r7, #32]
    4e90:	4610      	mov	r0, r2
    4e92:	4619      	mov	r1, r3
    4e94:	f7ff fbc0 	bl	4618 <mpa_copy>
/home/csx/share/gerrit/optee_os/lib/libmpa/mpa_primetest.c:225
    4e98:	2300      	movs	r3, #0
    4e9a:	63bb      	str	r3, [r7, #56]	; 0x38
/home/csx/share/gerrit/optee_os/lib/libmpa/mpa_primetest.c:227
    4e9c:	e009      	b.n	4eb2 <primality_test_miller_rabin+0xe2>
/home/csx/share/gerrit/optee_os/lib/libmpa/mpa_primetest.c:228
    4e9e:	6a7a      	ldr	r2, [r7, #36]	; 0x24
    4ea0:	6a7b      	ldr	r3, [r7, #36]	; 0x24
    4ea2:	4610      	mov	r0, r2
    4ea4:	4619      	mov	r1, r3
    4ea6:	2201      	movs	r2, #1
    4ea8:	f001 ff66 	bl	6d78 <mpa_shift_right>
/home/csx/share/gerrit/optee_os/lib/libmpa/mpa_primetest.c:229
    4eac:	6bbb      	ldr	r3, [r7, #56]	; 0x38
    4eae:	3301      	adds	r3, #1
    4eb0:	63bb      	str	r3, [r7, #56]	; 0x38
/home/csx/share/gerrit/optee_os/lib/libmpa/mpa_primetest.c:227
    4eb2:	6a7b      	ldr	r3, [r7, #36]	; 0x24
    4eb4:	4618      	mov	r0, r3
    4eb6:	f7ff fc69 	bl	478c <mpa_parity>
    4eba:	4603      	mov	r3, r0
    4ebc:	2b00      	cmp	r3, #0
    4ebe:	d0ee      	beq.n	4e9e <primality_test_miller_rabin+0xce>
/home/csx/share/gerrit/optee_os/lib/libmpa/mpa_primetest.c:232
    4ec0:	f04f 33ff 	mov.w	r3, #4294967295	; 0xffffffff
    4ec4:	647b      	str	r3, [r7, #68]	; 0x44
/home/csx/share/gerrit/optee_os/lib/libmpa/mpa_primetest.c:233
    4ec6:	2300      	movs	r3, #0
    4ec8:	63fb      	str	r3, [r7, #60]	; 0x3c
    4eca:	e086      	b.n	4fda <primality_test_miller_rabin+0x20a>
/home/csx/share/gerrit/optee_os/lib/libmpa/mpa_primetest.c:234
    4ecc:	f897 3033 	ldrb.w	r3, [r7, #51]	; 0x33
    4ed0:	2b00      	cmp	r3, #0
    4ed2:	d015      	beq.n	4f00 <primality_test_miller_rabin+0x130>
/home/csx/share/gerrit/optee_os/lib/libmpa/mpa_primetest.c:235
    4ed4:	6aba      	ldr	r2, [r7, #40]	; 0x28
    4ed6:	4b61      	ldr	r3, [pc, #388]	; (505c <primality_test_miller_rabin+0x28c>)
    4ed8:	447b      	add	r3, pc
    4eda:	4619      	mov	r1, r3
    4edc:	6bfb      	ldr	r3, [r7, #60]	; 0x3c
    4ede:	f851 3023 	ldr.w	r3, [r1, r3, lsl #2]
    4ee2:	4610      	mov	r0, r2
    4ee4:	4619      	mov	r1, r3
    4ee6:	f000 f8bd 	bl	5064 <mpa_set_S32>
/home/csx/share/gerrit/optee_os/lib/libmpa/mpa_primetest.c:236
    4eea:	6abb      	ldr	r3, [r7, #40]	; 0x28
    4eec:	68f8      	ldr	r0, [r7, #12]
    4eee:	4619      	mov	r1, r3
    4ef0:	f002 fdac 	bl	7a4c <mpa_cmp>
    4ef4:	4603      	mov	r3, r0
    4ef6:	2b00      	cmp	r3, #0
    4ef8:	d120      	bne.n	4f3c <primality_test_miller_rabin+0x16c>
/home/csx/share/gerrit/optee_os/lib/libmpa/mpa_primetest.c:237
    4efa:	2301      	movs	r3, #1
    4efc:	647b      	str	r3, [r7, #68]	; 0x44
/home/csx/share/gerrit/optee_os/lib/libmpa/mpa_primetest.c:238
    4efe:	e069      	b.n	4fd4 <primality_test_miller_rabin+0x204>
/home/csx/share/gerrit/optee_os/lib/libmpa/mpa_primetest.c:246
    4f00:	6a3a      	ldr	r2, [r7, #32]
    4f02:	6a3b      	ldr	r3, [r7, #32]
    4f04:	4610      	mov	r0, r2
    4f06:	4619      	mov	r1, r3
    4f08:	2201      	movs	r2, #1
    4f0a:	687b      	ldr	r3, [r7, #4]
    4f0c:	f002 fc6a 	bl	77e4 <mpa_sub_word>
/home/csx/share/gerrit/optee_os/lib/libmpa/mpa_primetest.c:248
    4f10:	6aba      	ldr	r2, [r7, #40]	; 0x28
    4f12:	6a3b      	ldr	r3, [r7, #32]
    4f14:	4610      	mov	r0, r2
    4f16:	4619      	mov	r1, r3
    4f18:	f001 fd16 	bl	6948 <mpa_get_random>
/home/csx/share/gerrit/optee_os/lib/libmpa/mpa_primetest.c:249
    4f1c:	6a3a      	ldr	r2, [r7, #32]
    4f1e:	6a3b      	ldr	r3, [r7, #32]
    4f20:	4610      	mov	r0, r2
    4f22:	4619      	mov	r1, r3
    4f24:	2201      	movs	r2, #1
    4f26:	687b      	ldr	r3, [r7, #4]
    4f28:	f002 fbc2 	bl	76b0 <mpa_add_word>
/home/csx/share/gerrit/optee_os/lib/libmpa/mpa_primetest.c:251
    4f2c:	6aba      	ldr	r2, [r7, #40]	; 0x28
    4f2e:	6abb      	ldr	r3, [r7, #40]	; 0x28
    4f30:	4610      	mov	r0, r2
    4f32:	4619      	mov	r1, r3
    4f34:	2202      	movs	r2, #2
    4f36:	687b      	ldr	r3, [r7, #4]
    4f38:	f002 fbba 	bl	76b0 <mpa_add_word>
/home/csx/share/gerrit/optee_os/lib/libmpa/mpa_primetest.c:254
    4f3c:	69f8      	ldr	r0, [r7, #28]
    4f3e:	6abd      	ldr	r5, [r7, #40]	; 0x28
    4f40:	6a7c      	ldr	r4, [r7, #36]	; 0x24
    4f42:	69b9      	ldr	r1, [r7, #24]
    4f44:	697a      	ldr	r2, [r7, #20]
    4f46:	693b      	ldr	r3, [r7, #16]
    4f48:	9100      	str	r1, [sp, #0]
    4f4a:	9201      	str	r2, [sp, #4]
    4f4c:	9302      	str	r3, [sp, #8]
    4f4e:	687b      	ldr	r3, [r7, #4]
    4f50:	9303      	str	r3, [sp, #12]
    4f52:	4629      	mov	r1, r5
    4f54:	4622      	mov	r2, r4
    4f56:	68fb      	ldr	r3, [r7, #12]
    4f58:	f002 fe06 	bl	7b68 <mpa_exp_mod>
/home/csx/share/gerrit/optee_os/lib/libmpa/mpa_primetest.c:255
    4f5c:	2300      	movs	r3, #0
    4f5e:	637b      	str	r3, [r7, #52]	; 0x34
/home/csx/share/gerrit/optee_os/lib/libmpa/mpa_primetest.c:258
    4f60:	69fb      	ldr	r3, [r7, #28]
    4f62:	4618      	mov	r0, r3
    4f64:	2101      	movs	r1, #1
    4f66:	f002 fdb1 	bl	7acc <mpa_cmp_short>
    4f6a:	62f8      	str	r0, [r7, #44]	; 0x2c
/home/csx/share/gerrit/optee_os/lib/libmpa/mpa_primetest.c:259
    4f6c:	6afb      	ldr	r3, [r7, #44]	; 0x2c
    4f6e:	2b00      	cmp	r3, #0
    4f70:	d105      	bne.n	4f7e <primality_test_miller_rabin+0x1ae>
/home/csx/share/gerrit/optee_os/lib/libmpa/mpa_primetest.c:259 (discriminator 1)
    4f72:	6b7b      	ldr	r3, [r7, #52]	; 0x34
    4f74:	2b00      	cmp	r3, #0
    4f76:	dd02      	ble.n	4f7e <primality_test_miller_rabin+0x1ae>
/home/csx/share/gerrit/optee_os/lib/libmpa/mpa_primetest.c:260
    4f78:	2300      	movs	r3, #0
    4f7a:	647b      	str	r3, [r7, #68]	; 0x44
/home/csx/share/gerrit/optee_os/lib/libmpa/mpa_primetest.c:261
    4f7c:	e02a      	b.n	4fd4 <primality_test_miller_rabin+0x204>
/home/csx/share/gerrit/optee_os/lib/libmpa/mpa_primetest.c:264
    4f7e:	69fa      	ldr	r2, [r7, #28]
    4f80:	6a3b      	ldr	r3, [r7, #32]
    4f82:	4610      	mov	r0, r2
    4f84:	4619      	mov	r1, r3
    4f86:	f002 fd61 	bl	7a4c <mpa_cmp>
    4f8a:	4603      	mov	r3, r0
    4f8c:	2b00      	cmp	r3, #0
    4f8e:	d005      	beq.n	4f9c <primality_test_miller_rabin+0x1cc>
/home/csx/share/gerrit/optee_os/lib/libmpa/mpa_primetest.c:264 (discriminator 1)
    4f90:	6afb      	ldr	r3, [r7, #44]	; 0x2c
    4f92:	2b00      	cmp	r3, #0
    4f94:	d103      	bne.n	4f9e <primality_test_miller_rabin+0x1ce>
/home/csx/share/gerrit/optee_os/lib/libmpa/mpa_primetest.c:265
    4f96:	6b7b      	ldr	r3, [r7, #52]	; 0x34
    4f98:	2b00      	cmp	r3, #0
    4f9a:	d100      	bne.n	4f9e <primality_test_miller_rabin+0x1ce>
/home/csx/share/gerrit/optee_os/lib/libmpa/mpa_primetest.c:267
    4f9c:	e01a      	b.n	4fd4 <primality_test_miller_rabin+0x204>
/home/csx/share/gerrit/optee_os/lib/libmpa/mpa_primetest.c:270
    4f9e:	6b7b      	ldr	r3, [r7, #52]	; 0x34
    4fa0:	3301      	adds	r3, #1
    4fa2:	637b      	str	r3, [r7, #52]	; 0x34
/home/csx/share/gerrit/optee_os/lib/libmpa/mpa_primetest.c:271
    4fa4:	6b7a      	ldr	r2, [r7, #52]	; 0x34
    4fa6:	6bbb      	ldr	r3, [r7, #56]	; 0x38
    4fa8:	429a      	cmp	r2, r3
    4faa:	da11      	bge.n	4fd0 <primality_test_miller_rabin+0x200>
/home/csx/share/gerrit/optee_os/lib/libmpa/mpa_primetest.c:272
    4fac:	69f8      	ldr	r0, [r7, #28]
    4fae:	69fc      	ldr	r4, [r7, #28]
    4fb0:	69b9      	ldr	r1, [r7, #24]
    4fb2:	697a      	ldr	r2, [r7, #20]
    4fb4:	693b      	ldr	r3, [r7, #16]
    4fb6:	9100      	str	r1, [sp, #0]
    4fb8:	9201      	str	r2, [sp, #4]
    4fba:	9302      	str	r3, [sp, #8]
    4fbc:	687b      	ldr	r3, [r7, #4]
    4fbe:	9303      	str	r3, [sp, #12]
    4fc0:	4621      	mov	r1, r4
    4fc2:	4b27      	ldr	r3, [pc, #156]	; (5060 <primality_test_miller_rabin+0x290>)
    4fc4:	447b      	add	r3, pc
    4fc6:	461a      	mov	r2, r3
    4fc8:	68fb      	ldr	r3, [r7, #12]
    4fca:	f002 fdcd 	bl	7b68 <mpa_exp_mod>
/home/csx/share/gerrit/optee_os/lib/libmpa/mpa_primetest.c:274
    4fce:	e7c7      	b.n	4f60 <primality_test_miller_rabin+0x190>
/home/csx/share/gerrit/optee_os/lib/libmpa/mpa_primetest.c:276
    4fd0:	2300      	movs	r3, #0
    4fd2:	647b      	str	r3, [r7, #68]	; 0x44
/home/csx/share/gerrit/optee_os/lib/libmpa/mpa_primetest.c:233 (discriminator 2)
    4fd4:	6bfb      	ldr	r3, [r7, #60]	; 0x3c
    4fd6:	3301      	adds	r3, #1
    4fd8:	63fb      	str	r3, [r7, #60]	; 0x3c
/home/csx/share/gerrit/optee_os/lib/libmpa/mpa_primetest.c:233 (discriminator 1)
    4fda:	6bfa      	ldr	r2, [r7, #60]	; 0x3c
    4fdc:	6c3b      	ldr	r3, [r7, #64]	; 0x40
    4fde:	429a      	cmp	r2, r3
    4fe0:	da04      	bge.n	4fec <primality_test_miller_rabin+0x21c>
/home/csx/share/gerrit/optee_os/lib/libmpa/mpa_primetest.c:233 (discriminator 3)
    4fe2:	6c7b      	ldr	r3, [r7, #68]	; 0x44
    4fe4:	f1b3 3fff 	cmp.w	r3, #4294967295	; 0xffffffff
    4fe8:	f43f af70 	beq.w	4ecc <primality_test_miller_rabin+0xfc>
/home/csx/share/gerrit/optee_os/lib/libmpa/mpa_primetest.c:279
    4fec:	6c7b      	ldr	r3, [r7, #68]	; 0x44
    4fee:	f1b3 3fff 	cmp.w	r3, #4294967295	; 0xffffffff
    4ff2:	d105      	bne.n	5000 <primality_test_miller_rabin+0x230>
/home/csx/share/gerrit/optee_os/lib/libmpa/mpa_primetest.c:279 (discriminator 1)
    4ff4:	f897 3033 	ldrb.w	r3, [r7, #51]	; 0x33
    4ff8:	2b00      	cmp	r3, #0
    4ffa:	d001      	beq.n	5000 <primality_test_miller_rabin+0x230>
/home/csx/share/gerrit/optee_os/lib/libmpa/mpa_primetest.c:280
    4ffc:	2301      	movs	r3, #1
    4ffe:	647b      	str	r3, [r7, #68]	; 0x44
/home/csx/share/gerrit/optee_os/lib/libmpa/mpa_primetest.c:282
    5000:	f107 0328 	add.w	r3, r7, #40	; 0x28
    5004:	4618      	mov	r0, r3
    5006:	6879      	ldr	r1, [r7, #4]
    5008:	f001 fa4a 	bl	64a0 <mpa_free_static_temp_var>
/home/csx/share/gerrit/optee_os/lib/libmpa/mpa_primetest.c:283
    500c:	f107 0324 	add.w	r3, r7, #36	; 0x24
    5010:	4618      	mov	r0, r3
    5012:	6879      	ldr	r1, [r7, #4]
    5014:	f001 fa44 	bl	64a0 <mpa_free_static_temp_var>
/home/csx/share/gerrit/optee_os/lib/libmpa/mpa_primetest.c:284
    5018:	f107 0320 	add.w	r3, r7, #32
    501c:	4618      	mov	r0, r3
    501e:	6879      	ldr	r1, [r7, #4]
    5020:	f001 fa3e 	bl	64a0 <mpa_free_static_temp_var>
/home/csx/share/gerrit/optee_os/lib/libmpa/mpa_primetest.c:285
    5024:	f107 031c 	add.w	r3, r7, #28
    5028:	4618      	mov	r0, r3
    502a:	6879      	ldr	r1, [r7, #4]
    502c:	f001 fa38 	bl	64a0 <mpa_free_static_temp_var>
/home/csx/share/gerrit/optee_os/lib/libmpa/mpa_primetest.c:287
    5030:	f107 0318 	add.w	r3, r7, #24
    5034:	4618      	mov	r0, r3
    5036:	6879      	ldr	r1, [r7, #4]
    5038:	f001 fa32 	bl	64a0 <mpa_free_static_temp_var>
/home/csx/share/gerrit/optee_os/lib/libmpa/mpa_primetest.c:288
    503c:	f107 0314 	add.w	r3, r7, #20
    5040:	4618      	mov	r0, r3
    5042:	6879      	ldr	r1, [r7, #4]
    5044:	f001 fa2c 	bl	64a0 <mpa_free_static_temp_var>
/home/csx/share/gerrit/optee_os/lib/libmpa/mpa_primetest.c:290
    5048:	6c7b      	ldr	r3, [r7, #68]	; 0x44
/home/csx/share/gerrit/optee_os/lib/libmpa/mpa_primetest.c:291
    504a:	4618      	mov	r0, r3
    504c:	3748      	adds	r7, #72	; 0x48
    504e:	46bd      	mov	sp, r7
    5050:	e9dd 4500 	ldrd	r4, r5, [sp]
    5054:	b002      	add	sp, #8
    5056:	bd80      	pop	{r7, pc}
    5058:	00004de0 	.word	0x00004de0
    505c:	00004d78 	.word	0x00004d78
    5060:	00004c80 	.word	0x00004c80

00005064 <mpa_set_S32>:
mpa_set_S32():
/home/csx/share/gerrit/optee_os/lib/libmpa/mpa_conv.c:35
    5064:	f84d 7d04 	str.w	r7, [sp, #-4]!
    5068:	b083      	sub	sp, #12
    506a:	af00      	add	r7, sp, #0
    506c:	6078      	str	r0, [r7, #4]
    506e:	6039      	str	r1, [r7, #0]
/home/csx/share/gerrit/optee_os/lib/libmpa/mpa_conv.c:37
    5070:	683b      	ldr	r3, [r7, #0]
    5072:	2b00      	cmp	r3, #0
    5074:	d009      	beq.n	508a <mpa_set_S32+0x26>
/home/csx/share/gerrit/optee_os/lib/libmpa/mpa_conv.c:38
    5076:	683b      	ldr	r3, [r7, #0]
    5078:	2b00      	cmp	r3, #0
    507a:	da02      	bge.n	5082 <mpa_set_S32+0x1e>
/home/csx/share/gerrit/optee_os/lib/libmpa/mpa_conv.c:38 (discriminator 1)
    507c:	f04f 32ff 	mov.w	r2, #4294967295	; 0xffffffff
    5080:	e000      	b.n	5084 <mpa_set_S32+0x20>
/home/csx/share/gerrit/optee_os/lib/libmpa/mpa_conv.c:38 (discriminator 2)
    5082:	2201      	movs	r2, #1
/home/csx/share/gerrit/optee_os/lib/libmpa/mpa_conv.c:38 (discriminator 4)
    5084:	687b      	ldr	r3, [r7, #4]
    5086:	605a      	str	r2, [r3, #4]
    5088:	e002      	b.n	5090 <mpa_set_S32+0x2c>
/home/csx/share/gerrit/optee_os/lib/libmpa/mpa_conv.c:40
    508a:	687b      	ldr	r3, [r7, #4]
    508c:	2200      	movs	r2, #0
    508e:	605a      	str	r2, [r3, #4]
/home/csx/share/gerrit/optee_os/lib/libmpa/mpa_conv.c:41
    5090:	683b      	ldr	r3, [r7, #0]
    5092:	2b00      	cmp	r3, #0
    5094:	bfb8      	it	lt
    5096:	425b      	neglt	r3, r3
    5098:	461a      	mov	r2, r3
    509a:	687b      	ldr	r3, [r7, #4]
    509c:	609a      	str	r2, [r3, #8]
/home/csx/share/gerrit/optee_os/lib/libmpa/mpa_conv.c:45
    509e:	370c      	adds	r7, #12
    50a0:	46bd      	mov	sp, r7
    50a2:	f85d 7b04 	ldr.w	r7, [sp], #4
    50a6:	4770      	bx	lr

000050a8 <mpa_get_S32>:
mpa_get_S32():
/home/csx/share/gerrit/optee_os/lib/libmpa/mpa_conv.c:55
    50a8:	f84d 7d04 	str.w	r7, [sp, #-4]!
    50ac:	b083      	sub	sp, #12
    50ae:	af00      	add	r7, sp, #0
    50b0:	6078      	str	r0, [r7, #4]
    50b2:	6039      	str	r1, [r7, #0]
/home/csx/share/gerrit/optee_os/lib/libmpa/mpa_conv.c:57
    50b4:	683b      	ldr	r3, [r7, #0]
    50b6:	685b      	ldr	r3, [r3, #4]
    50b8:	2b00      	cmp	r3, #0
    50ba:	bfb8      	it	lt
    50bc:	425b      	neglt	r3, r3
    50be:	2b01      	cmp	r3, #1
    50c0:	dd02      	ble.n	50c8 <mpa_get_S32+0x20>
/home/csx/share/gerrit/optee_os/lib/libmpa/mpa_conv.c:58
    50c2:	f04f 33ff 	mov.w	r3, #4294967295	; 0xffffffff
    50c6:	e030      	b.n	512a <mpa_get_S32+0x82>
/home/csx/share/gerrit/optee_os/lib/libmpa/mpa_conv.c:59
    50c8:	683b      	ldr	r3, [r7, #0]
    50ca:	689b      	ldr	r3, [r3, #8]
    50cc:	f1b3 4f00 	cmp.w	r3, #2147483648	; 0x80000000
    50d0:	d906      	bls.n	50e0 <mpa_get_S32+0x38>
/home/csx/share/gerrit/optee_os/lib/libmpa/mpa_conv.c:59 (discriminator 1)
    50d2:	683b      	ldr	r3, [r7, #0]
    50d4:	685b      	ldr	r3, [r3, #4]
    50d6:	2b00      	cmp	r3, #0
    50d8:	da02      	bge.n	50e0 <mpa_get_S32+0x38>
/home/csx/share/gerrit/optee_os/lib/libmpa/mpa_conv.c:60
    50da:	f04f 33ff 	mov.w	r3, #4294967295	; 0xffffffff
    50de:	e024      	b.n	512a <mpa_get_S32+0x82>
/home/csx/share/gerrit/optee_os/lib/libmpa/mpa_conv.c:61
    50e0:	683b      	ldr	r3, [r7, #0]
    50e2:	689b      	ldr	r3, [r3, #8]
    50e4:	2b00      	cmp	r3, #0
    50e6:	da06      	bge.n	50f6 <mpa_get_S32+0x4e>
/home/csx/share/gerrit/optee_os/lib/libmpa/mpa_conv.c:61 (discriminator 1)
    50e8:	683b      	ldr	r3, [r7, #0]
    50ea:	685b      	ldr	r3, [r3, #4]
    50ec:	2b00      	cmp	r3, #0
    50ee:	db02      	blt.n	50f6 <mpa_get_S32+0x4e>
/home/csx/share/gerrit/optee_os/lib/libmpa/mpa_conv.c:62
    50f0:	f04f 33ff 	mov.w	r3, #4294967295	; 0xffffffff
    50f4:	e019      	b.n	512a <mpa_get_S32+0x82>
/home/csx/share/gerrit/optee_os/lib/libmpa/mpa_conv.c:64
    50f6:	683b      	ldr	r3, [r7, #0]
    50f8:	685b      	ldr	r3, [r3, #4]
    50fa:	2b00      	cmp	r3, #0
    50fc:	db03      	blt.n	5106 <mpa_get_S32+0x5e>
/home/csx/share/gerrit/optee_os/lib/libmpa/mpa_conv.c:64 (discriminator 2)
    50fe:	683b      	ldr	r3, [r7, #0]
    5100:	685b      	ldr	r3, [r3, #4]
    5102:	2b00      	cmp	r3, #0
    5104:	dd02      	ble.n	510c <mpa_get_S32+0x64>
/home/csx/share/gerrit/optee_os/lib/libmpa/mpa_conv.c:64 (discriminator 3)
    5106:	683b      	ldr	r3, [r7, #0]
    5108:	689b      	ldr	r3, [r3, #8]
    510a:	e000      	b.n	510e <mpa_get_S32+0x66>
/home/csx/share/gerrit/optee_os/lib/libmpa/mpa_conv.c:64 (discriminator 4)
    510c:	2300      	movs	r3, #0
/home/csx/share/gerrit/optee_os/lib/libmpa/mpa_conv.c:64 (discriminator 6)
    510e:	683a      	ldr	r2, [r7, #0]
    5110:	6852      	ldr	r2, [r2, #4]
    5112:	2a00      	cmp	r2, #0
    5114:	db01      	blt.n	511a <mpa_get_S32+0x72>
/home/csx/share/gerrit/optee_os/lib/libmpa/mpa_conv.c:64 (discriminator 7)
    5116:	2201      	movs	r2, #1
    5118:	e001      	b.n	511e <mpa_get_S32+0x76>
/home/csx/share/gerrit/optee_os/lib/libmpa/mpa_conv.c:64 (discriminator 8)
    511a:	f04f 32ff 	mov.w	r2, #4294967295	; 0xffffffff
/home/csx/share/gerrit/optee_os/lib/libmpa/mpa_conv.c:64 (discriminator 10)
    511e:	fb02 f303 	mul.w	r3, r2, r3
    5122:	461a      	mov	r2, r3
    5124:	687b      	ldr	r3, [r7, #4]
    5126:	601a      	str	r2, [r3, #0]
/home/csx/share/gerrit/optee_os/lib/libmpa/mpa_conv.c:65 (discriminator 10)
    5128:	2300      	movs	r3, #0
/home/csx/share/gerrit/optee_os/lib/libmpa/mpa_conv.c:70
    512a:	4618      	mov	r0, r3
    512c:	370c      	adds	r7, #12
    512e:	46bd      	mov	sp, r7
    5130:	f85d 7b04 	ldr.w	r7, [sp], #4
    5134:	4770      	bx	lr
    5136:	bf00      	nop

00005138 <mpa_set_word>:
mpa_set_word():
/home/csx/share/gerrit/optee_os/lib/libmpa/mpa_conv.c:78
    5138:	f84d 7d04 	str.w	r7, [sp, #-4]!
    513c:	b083      	sub	sp, #12
    513e:	af00      	add	r7, sp, #0
    5140:	6078      	str	r0, [r7, #4]
    5142:	6039      	str	r1, [r7, #0]
/home/csx/share/gerrit/optee_os/lib/libmpa/mpa_conv.c:79
    5144:	687b      	ldr	r3, [r7, #4]
    5146:	683a      	ldr	r2, [r7, #0]
    5148:	609a      	str	r2, [r3, #8]
/home/csx/share/gerrit/optee_os/lib/libmpa/mpa_conv.c:80
    514a:	683b      	ldr	r3, [r7, #0]
    514c:	2b00      	cmp	r3, #0
    514e:	bf14      	ite	ne
    5150:	2301      	movne	r3, #1
    5152:	2300      	moveq	r3, #0
    5154:	b2db      	uxtb	r3, r3
    5156:	461a      	mov	r2, r3
    5158:	687b      	ldr	r3, [r7, #4]
    515a:	605a      	str	r2, [r3, #4]
/home/csx/share/gerrit/optee_os/lib/libmpa/mpa_conv.c:81
    515c:	370c      	adds	r7, #12
    515e:	46bd      	mov	sp, r7
    5160:	f85d 7b04 	ldr.w	r7, [sp], #4
    5164:	4770      	bx	lr
    5166:	bf00      	nop

00005168 <mpa_get_word>:
mpa_get_word():
/home/csx/share/gerrit/optee_os/lib/libmpa/mpa_conv.c:90
    5168:	f84d 7d04 	str.w	r7, [sp, #-4]!
    516c:	b083      	sub	sp, #12
    516e:	af00      	add	r7, sp, #0
    5170:	6078      	str	r0, [r7, #4]
/home/csx/share/gerrit/optee_os/lib/libmpa/mpa_conv.c:91
    5172:	687b      	ldr	r3, [r7, #4]
    5174:	685b      	ldr	r3, [r3, #4]
    5176:	2b00      	cmp	r3, #0
    5178:	db03      	blt.n	5182 <mpa_get_word+0x1a>
/home/csx/share/gerrit/optee_os/lib/libmpa/mpa_conv.c:91 (discriminator 2)
    517a:	687b      	ldr	r3, [r7, #4]
    517c:	685b      	ldr	r3, [r3, #4]
    517e:	2b00      	cmp	r3, #0
    5180:	dd02      	ble.n	5188 <mpa_get_word+0x20>
/home/csx/share/gerrit/optee_os/lib/libmpa/mpa_conv.c:91 (discriminator 3)
    5182:	687b      	ldr	r3, [r7, #4]
    5184:	689b      	ldr	r3, [r3, #8]
    5186:	e000      	b.n	518a <mpa_get_word+0x22>
/home/csx/share/gerrit/optee_os/lib/libmpa/mpa_conv.c:91 (discriminator 4)
    5188:	2300      	movs	r3, #0
/home/csx/share/gerrit/optee_os/lib/libmpa/mpa_conv.c:92 (discriminator 6)
    518a:	4618      	mov	r0, r3
    518c:	370c      	adds	r7, #12
    518e:	46bd      	mov	sp, r7
    5190:	f85d 7b04 	ldr.w	r7, [sp], #4
    5194:	4770      	bx	lr
    5196:	bf00      	nop

00005198 <__mpa_soft_div>:
__mpa_soft_div():
/home/csx/share/gerrit/optee_os/lib/libmpa/mpa_div.c:44
    5198:	f84d 7d04 	str.w	r7, [sp, #-4]!
    519c:	b08b      	sub	sp, #44	; 0x2c
    519e:	af00      	add	r7, sp, #0
    51a0:	e9c7 0102 	strd	r0, r1, [r7, #8]
    51a4:	607a      	str	r2, [r7, #4]
    51a6:	603b      	str	r3, [r7, #0]
/home/csx/share/gerrit/optee_os/lib/libmpa/mpa_div.c:45
    51a8:	f04f 0200 	mov.w	r2, #0
    51ac:	f04f 0300 	mov.w	r3, #0
    51b0:	e9c7 2308 	strd	r2, r3, [r7, #32]
    51b4:	f04f 0201 	mov.w	r2, #1
    51b8:	f04f 0300 	mov.w	r3, #0
    51bc:	e9c7 2306 	strd	r2, r3, [r7, #24]
/home/csx/share/gerrit/optee_os/lib/libmpa/mpa_div.c:46
    51c0:	687b      	ldr	r3, [r7, #4]
    51c2:	461a      	mov	r2, r3
    51c4:	f04f 0300 	mov.w	r3, #0
    51c8:	e9c7 2304 	strd	r2, r3, [r7, #16]
/home/csx/share/gerrit/optee_os/lib/libmpa/mpa_div.c:48
    51cc:	e00d      	b.n	51ea <__mpa_soft_div+0x52>
/home/csx/share/gerrit/optee_os/lib/libmpa/mpa_div.c:49
    51ce:	e9d7 2304 	ldrd	r2, r3, [r7, #16]
    51d2:	1892      	adds	r2, r2, r2
    51d4:	eb43 0303 	adc.w	r3, r3, r3
    51d8:	e9c7 2304 	strd	r2, r3, [r7, #16]
/home/csx/share/gerrit/optee_os/lib/libmpa/mpa_div.c:50
    51dc:	e9d7 2306 	ldrd	r2, r3, [r7, #24]
    51e0:	1892      	adds	r2, r2, r2
    51e2:	eb43 0303 	adc.w	r3, r3, r3
    51e6:	e9c7 2306 	strd	r2, r3, [r7, #24]
/home/csx/share/gerrit/optee_os/lib/libmpa/mpa_div.c:48
    51ea:	e9d7 2304 	ldrd	r2, r3, [r7, #16]
    51ee:	2a00      	cmp	r2, #0
    51f0:	f173 0300 	sbcs.w	r3, r3, #0
    51f4:	daeb      	bge.n	51ce <__mpa_soft_div+0x36>
/home/csx/share/gerrit/optee_os/lib/libmpa/mpa_div.c:53
    51f6:	e027      	b.n	5248 <__mpa_soft_div+0xb0>
/home/csx/share/gerrit/optee_os/lib/libmpa/mpa_div.c:54
    51f8:	e9d7 2304 	ldrd	r2, r3, [r7, #16]
    51fc:	e9d7 0102 	ldrd	r0, r1, [r7, #8]
    5200:	4299      	cmp	r1, r3
    5202:	bf08      	it	eq
    5204:	4290      	cmpeq	r0, r2
    5206:	d311      	bcc.n	522c <__mpa_soft_div+0x94>
/home/csx/share/gerrit/optee_os/lib/libmpa/mpa_div.c:55
    5208:	e9d7 0102 	ldrd	r0, r1, [r7, #8]
    520c:	e9d7 2304 	ldrd	r2, r3, [r7, #16]
    5210:	1a82      	subs	r2, r0, r2
    5212:	eb61 0303 	sbc.w	r3, r1, r3
    5216:	e9c7 2302 	strd	r2, r3, [r7, #8]
/home/csx/share/gerrit/optee_os/lib/libmpa/mpa_div.c:56
    521a:	e9d7 0108 	ldrd	r0, r1, [r7, #32]
    521e:	e9d7 2306 	ldrd	r2, r3, [r7, #24]
    5222:	1812      	adds	r2, r2, r0
    5224:	eb43 0301 	adc.w	r3, r3, r1
    5228:	e9c7 2308 	strd	r2, r3, [r7, #32]
/home/csx/share/gerrit/optee_os/lib/libmpa/mpa_div.c:58
    522c:	e9d7 2304 	ldrd	r2, r3, [r7, #16]
    5230:	085b      	lsrs	r3, r3, #1
    5232:	ea4f 0232 	mov.w	r2, r2, rrx
    5236:	e9c7 2304 	strd	r2, r3, [r7, #16]
/home/csx/share/gerrit/optee_os/lib/libmpa/mpa_div.c:59
    523a:	e9d7 2306 	ldrd	r2, r3, [r7, #24]
    523e:	085b      	lsrs	r3, r3, #1
    5240:	ea4f 0232 	mov.w	r2, r2, rrx
    5244:	e9c7 2306 	strd	r2, r3, [r7, #24]
/home/csx/share/gerrit/optee_os/lib/libmpa/mpa_div.c:53
    5248:	e9d7 2306 	ldrd	r2, r3, [r7, #24]
    524c:	4313      	orrs	r3, r2
    524e:	d1d3      	bne.n	51f8 <__mpa_soft_div+0x60>
/home/csx/share/gerrit/optee_os/lib/libmpa/mpa_div.c:62
    5250:	683b      	ldr	r3, [r7, #0]
    5252:	2b00      	cmp	r3, #0
    5254:	d002      	beq.n	525c <__mpa_soft_div+0xc4>
/home/csx/share/gerrit/optee_os/lib/libmpa/mpa_div.c:63
    5256:	68ba      	ldr	r2, [r7, #8]
    5258:	683b      	ldr	r3, [r7, #0]
    525a:	601a      	str	r2, [r3, #0]
/home/csx/share/gerrit/optee_os/lib/libmpa/mpa_div.c:65
    525c:	e9d7 2308 	ldrd	r2, r3, [r7, #32]
/home/csx/share/gerrit/optee_os/lib/libmpa/mpa_div.c:66
    5260:	4610      	mov	r0, r2
    5262:	4619      	mov	r1, r3
    5264:	372c      	adds	r7, #44	; 0x2c
    5266:	46bd      	mov	sp, r7
    5268:	f85d 7b04 	ldr.w	r7, [sp], #4
    526c:	4770      	bx	lr
    526e:	bf00      	nop

00005270 <__mpa_div_dword>:
__mpa_div_dword():
/home/csx/share/gerrit/optee_os/lib/libmpa/mpa_div.c:76
    5270:	e96d 4504 	strd	r4, r5, [sp, #-16]!
    5274:	e9cd 7e02 	strd	r7, lr, [sp, #8]
    5278:	b086      	sub	sp, #24
    527a:	af00      	add	r7, sp, #0
    527c:	60f8      	str	r0, [r7, #12]
    527e:	60b9      	str	r1, [r7, #8]
    5280:	607a      	str	r2, [r7, #4]
    5282:	603b      	str	r3, [r7, #0]
/home/csx/share/gerrit/optee_os/lib/libmpa/mpa_div.c:81
    5284:	68bb      	ldr	r3, [r7, #8]
    5286:	461a      	mov	r2, r3
    5288:	f04f 0300 	mov.w	r3, #0
    528c:	0015      	movs	r5, r2
    528e:	2400      	movs	r4, #0
    5290:	68fb      	ldr	r3, [r7, #12]
    5292:	461a      	mov	r2, r3
    5294:	f04f 0300 	mov.w	r3, #0
    5298:	1912      	adds	r2, r2, r4
    529a:	eb43 0305 	adc.w	r3, r3, r5
    529e:	e9c7 2304 	strd	r2, r3, [r7, #16]
/home/csx/share/gerrit/optee_os/lib/libmpa/mpa_div.c:82
    52a2:	e9d7 0104 	ldrd	r0, r1, [r7, #16]
    52a6:	687a      	ldr	r2, [r7, #4]
    52a8:	683b      	ldr	r3, [r7, #0]
    52aa:	f7ff ff75 	bl	5198 <__mpa_soft_div>
    52ae:	4602      	mov	r2, r0
    52b0:	460b      	mov	r3, r1
    52b2:	4613      	mov	r3, r2
/home/csx/share/gerrit/optee_os/lib/libmpa/mpa_div.c:89
    52b4:	4618      	mov	r0, r3
    52b6:	3718      	adds	r7, #24
    52b8:	46bd      	mov	sp, r7
    52ba:	e9dd 4500 	ldrd	r4, r5, [sp]
    52be:	b002      	add	sp, #8
    52c0:	bd80      	pop	{r7, pc}
    52c2:	bf00      	nop

000052c4 <__mpa_div_q_r_internal>:
__mpa_div_q_r_internal():
/home/csx/share/gerrit/optee_os/lib/libmpa/mpa_div.c:106
    52c4:	e96d 4504 	strd	r4, r5, [sp, #-16]!
    52c8:	e9cd 7e02 	strd	r7, lr, [sp, #8]
    52cc:	b092      	sub	sp, #72	; 0x48
    52ce:	af00      	add	r7, sp, #0
    52d0:	60f8      	str	r0, [r7, #12]
    52d2:	60b9      	str	r1, [r7, #8]
    52d4:	607a      	str	r2, [r7, #4]
    52d6:	603b      	str	r3, [r7, #0]
/home/csx/share/gerrit/optee_os/lib/libmpa/mpa_div.c:125
    52d8:	f107 0318 	add.w	r3, r7, #24
    52dc:	4618      	mov	r0, r3
    52de:	6db9      	ldr	r1, [r7, #88]	; 0x58
    52e0:	f001 f8cc 	bl	647c <mpa_alloc_static_temp_var>
/home/csx/share/gerrit/optee_os/lib/libmpa/mpa_div.c:126
    52e4:	f107 0314 	add.w	r3, r7, #20
    52e8:	4618      	mov	r0, r3
    52ea:	6db9      	ldr	r1, [r7, #88]	; 0x58
    52ec:	f001 f8c6 	bl	647c <mpa_alloc_static_temp_var>
/home/csx/share/gerrit/optee_os/lib/libmpa/mpa_div.c:127
    52f0:	697b      	ldr	r3, [r7, #20]
    52f2:	4618      	mov	r0, r3
    52f4:	6839      	ldr	r1, [r7, #0]
    52f6:	f7ff f98f 	bl	4618 <mpa_copy>
/home/csx/share/gerrit/optee_os/lib/libmpa/mpa_div.c:134
    52fa:	f107 0310 	add.w	r3, r7, #16
    52fe:	4618      	mov	r0, r3
    5300:	6db9      	ldr	r1, [r7, #88]	; 0x58
    5302:	f001 f8bb 	bl	647c <mpa_alloc_static_temp_var>
/home/csx/share/gerrit/optee_os/lib/libmpa/mpa_div.c:135
    5306:	693b      	ldr	r3, [r7, #16]
    5308:	4618      	mov	r0, r3
    530a:	6879      	ldr	r1, [r7, #4]
    530c:	f7ff f984 	bl	4618 <mpa_copy>
/home/csx/share/gerrit/optee_os/lib/libmpa/mpa_div.c:136
    5310:	693b      	ldr	r3, [r7, #16]
    5312:	685b      	ldr	r3, [r3, #4]
    5314:	2b00      	cmp	r3, #0
    5316:	da04      	bge.n	5322 <__mpa_div_q_r_internal+0x5e>
/home/csx/share/gerrit/optee_os/lib/libmpa/mpa_div.c:136 (discriminator 1)
    5318:	693b      	ldr	r3, [r7, #16]
    531a:	693a      	ldr	r2, [r7, #16]
    531c:	6852      	ldr	r2, [r2, #4]
    531e:	4252      	negs	r2, r2
    5320:	605a      	str	r2, [r3, #4]
/home/csx/share/gerrit/optee_os/lib/libmpa/mpa_div.c:137
    5322:	697b      	ldr	r3, [r7, #20]
    5324:	685b      	ldr	r3, [r3, #4]
    5326:	2b00      	cmp	r3, #0
    5328:	da04      	bge.n	5334 <__mpa_div_q_r_internal+0x70>
/home/csx/share/gerrit/optee_os/lib/libmpa/mpa_div.c:137 (discriminator 1)
    532a:	697b      	ldr	r3, [r7, #20]
    532c:	697a      	ldr	r2, [r7, #20]
    532e:	6852      	ldr	r2, [r2, #4]
    5330:	4252      	negs	r2, r2
    5332:	605a      	str	r2, [r3, #4]
/home/csx/share/gerrit/optee_os/lib/libmpa/mpa_div.c:142
    5334:	2300      	movs	r3, #0
    5336:	647b      	str	r3, [r7, #68]	; 0x44
/home/csx/share/gerrit/optee_os/lib/libmpa/mpa_div.c:143
    5338:	697b      	ldr	r3, [r7, #20]
    533a:	697a      	ldr	r2, [r7, #20]
    533c:	6852      	ldr	r2, [r2, #4]
    533e:	2a00      	cmp	r2, #0
    5340:	bfb8      	it	lt
    5342:	4252      	neglt	r2, r2
    5344:	3a01      	subs	r2, #1
    5346:	3202      	adds	r2, #2
    5348:	f853 3022 	ldr.w	r3, [r3, r2, lsl #2]
    534c:	62fb      	str	r3, [r7, #44]	; 0x2c
/home/csx/share/gerrit/optee_os/lib/libmpa/mpa_div.c:144
    534e:	e005      	b.n	535c <__mpa_div_q_r_internal+0x98>
/home/csx/share/gerrit/optee_os/lib/libmpa/mpa_div.c:145
    5350:	6c7b      	ldr	r3, [r7, #68]	; 0x44
    5352:	3301      	adds	r3, #1
    5354:	647b      	str	r3, [r7, #68]	; 0x44
/home/csx/share/gerrit/optee_os/lib/libmpa/mpa_div.c:146
    5356:	6afb      	ldr	r3, [r7, #44]	; 0x2c
    5358:	005b      	lsls	r3, r3, #1
    535a:	62fb      	str	r3, [r7, #44]	; 0x2c
/home/csx/share/gerrit/optee_os/lib/libmpa/mpa_div.c:144
    535c:	6afb      	ldr	r3, [r7, #44]	; 0x2c
    535e:	2b00      	cmp	r3, #0
    5360:	daf6      	bge.n	5350 <__mpa_div_q_r_internal+0x8c>
/home/csx/share/gerrit/optee_os/lib/libmpa/mpa_div.c:148
    5362:	6c7b      	ldr	r3, [r7, #68]	; 0x44
    5364:	2b00      	cmp	r3, #0
    5366:	d00d      	beq.n	5384 <__mpa_div_q_r_internal+0xc0>
/home/csx/share/gerrit/optee_os/lib/libmpa/mpa_div.c:149
    5368:	693a      	ldr	r2, [r7, #16]
    536a:	693b      	ldr	r3, [r7, #16]
    536c:	4610      	mov	r0, r2
    536e:	4619      	mov	r1, r3
    5370:	6c7a      	ldr	r2, [r7, #68]	; 0x44
    5372:	f001 fc15 	bl	6ba0 <mpa_shift_left>
/home/csx/share/gerrit/optee_os/lib/libmpa/mpa_div.c:150
    5376:	697a      	ldr	r2, [r7, #20]
    5378:	697b      	ldr	r3, [r7, #20]
    537a:	4610      	mov	r0, r2
    537c:	4619      	mov	r1, r3
    537e:	6c7a      	ldr	r2, [r7, #68]	; 0x44
    5380:	f001 fc0e 	bl	6ba0 <mpa_shift_left>
/home/csx/share/gerrit/optee_os/lib/libmpa/mpa_div.c:153
    5384:	693b      	ldr	r3, [r7, #16]
    5386:	685b      	ldr	r3, [r3, #4]
    5388:	637b      	str	r3, [r7, #52]	; 0x34
/home/csx/share/gerrit/optee_os/lib/libmpa/mpa_div.c:154
    538a:	697b      	ldr	r3, [r7, #20]
    538c:	685b      	ldr	r3, [r3, #4]
    538e:	633b      	str	r3, [r7, #48]	; 0x30
/home/csx/share/gerrit/optee_os/lib/libmpa/mpa_div.c:155
    5390:	6b7a      	ldr	r2, [r7, #52]	; 0x34
    5392:	6b3b      	ldr	r3, [r7, #48]	; 0x30
    5394:	1ad3      	subs	r3, r2, r3
    5396:	643b      	str	r3, [r7, #64]	; 0x40
/home/csx/share/gerrit/optee_os/lib/libmpa/mpa_div.c:157
    5398:	68f8      	ldr	r0, [r7, #12]
    539a:	f7ff f927 	bl	45ec <mpa_wipe>
/home/csx/share/gerrit/optee_os/lib/libmpa/mpa_div.c:163
    539e:	697a      	ldr	r2, [r7, #20]
    53a0:	6c3b      	ldr	r3, [r7, #64]	; 0x40
    53a2:	4610      	mov	r0, r2
    53a4:	4619      	mov	r1, r3
    53a6:	f001 fb59 	bl	6a5c <__mpa_shift_words_left>
/home/csx/share/gerrit/optee_os/lib/libmpa/mpa_div.c:165
    53aa:	697b      	ldr	r3, [r7, #20]
    53ac:	685b      	ldr	r3, [r3, #4]
    53ae:	2b00      	cmp	r3, #0
    53b0:	bfb8      	it	lt
    53b2:	425b      	neglt	r3, r3
    53b4:	63fb      	str	r3, [r7, #60]	; 0x3c
/home/csx/share/gerrit/optee_os/lib/libmpa/mpa_div.c:166
    53b6:	2301      	movs	r3, #1
    53b8:	63bb      	str	r3, [r7, #56]	; 0x38
/home/csx/share/gerrit/optee_os/lib/libmpa/mpa_div.c:167
    53ba:	e028      	b.n	540e <__mpa_div_q_r_internal+0x14a>
/home/csx/share/gerrit/optee_os/lib/libmpa/mpa_div.c:168
    53bc:	6bfb      	ldr	r3, [r7, #60]	; 0x3c
    53be:	3b01      	subs	r3, #1
    53c0:	63fb      	str	r3, [r7, #60]	; 0x3c
/home/csx/share/gerrit/optee_os/lib/libmpa/mpa_div.c:169
    53c2:	693b      	ldr	r3, [r7, #16]
    53c4:	685b      	ldr	r3, [r3, #4]
    53c6:	ea83 72e3 	eor.w	r2, r3, r3, asr #31
    53ca:	eba2 72e3 	sub.w	r2, r2, r3, asr #31
    53ce:	6bfb      	ldr	r3, [r7, #60]	; 0x3c
    53d0:	429a      	cmp	r2, r3
    53d2:	dd05      	ble.n	53e0 <__mpa_div_q_r_internal+0x11c>
/home/csx/share/gerrit/optee_os/lib/libmpa/mpa_div.c:169 (discriminator 1)
    53d4:	693b      	ldr	r3, [r7, #16]
    53d6:	6bfa      	ldr	r2, [r7, #60]	; 0x3c
    53d8:	3202      	adds	r2, #2
    53da:	f853 2022 	ldr.w	r2, [r3, r2, lsl #2]
    53de:	e000      	b.n	53e2 <__mpa_div_q_r_internal+0x11e>
/home/csx/share/gerrit/optee_os/lib/libmpa/mpa_div.c:169 (discriminator 2)
    53e0:	2200      	movs	r2, #0
/home/csx/share/gerrit/optee_os/lib/libmpa/mpa_div.c:169 (discriminator 4)
    53e2:	697b      	ldr	r3, [r7, #20]
    53e4:	685b      	ldr	r3, [r3, #4]
    53e6:	ea83 71e3 	eor.w	r1, r3, r3, asr #31
    53ea:	eba1 71e3 	sub.w	r1, r1, r3, asr #31
    53ee:	6bfb      	ldr	r3, [r7, #60]	; 0x3c
    53f0:	4299      	cmp	r1, r3
    53f2:	dd05      	ble.n	5400 <__mpa_div_q_r_internal+0x13c>
/home/csx/share/gerrit/optee_os/lib/libmpa/mpa_div.c:169 (discriminator 5)
    53f4:	697b      	ldr	r3, [r7, #20]
    53f6:	6bf9      	ldr	r1, [r7, #60]	; 0x3c
    53f8:	3102      	adds	r1, #2
    53fa:	f853 3021 	ldr.w	r3, [r3, r1, lsl #2]
    53fe:	e000      	b.n	5402 <__mpa_div_q_r_internal+0x13e>
/home/csx/share/gerrit/optee_os/lib/libmpa/mpa_div.c:169 (discriminator 6)
    5400:	2300      	movs	r3, #0
/home/csx/share/gerrit/optee_os/lib/libmpa/mpa_div.c:169 (discriminator 8)
    5402:	429a      	cmp	r2, r3
    5404:	bf0c      	ite	eq
    5406:	2301      	moveq	r3, #1
    5408:	2300      	movne	r3, #0
    540a:	b2db      	uxtb	r3, r3
    540c:	63bb      	str	r3, [r7, #56]	; 0x38
/home/csx/share/gerrit/optee_os/lib/libmpa/mpa_div.c:167
    540e:	6bbb      	ldr	r3, [r7, #56]	; 0x38
    5410:	2b00      	cmp	r3, #0
    5412:	d002      	beq.n	541a <__mpa_div_q_r_internal+0x156>
/home/csx/share/gerrit/optee_os/lib/libmpa/mpa_div.c:167 (discriminator 1)
    5414:	6bfb      	ldr	r3, [r7, #60]	; 0x3c
    5416:	2b00      	cmp	r3, #0
    5418:	dcd0      	bgt.n	53bc <__mpa_div_q_r_internal+0xf8>
/home/csx/share/gerrit/optee_os/lib/libmpa/mpa_div.c:171
    541a:	6bbb      	ldr	r3, [r7, #56]	; 0x38
    541c:	2b00      	cmp	r3, #0
    541e:	d130      	bne.n	5482 <__mpa_div_q_r_internal+0x1be>
/home/csx/share/gerrit/optee_os/lib/libmpa/mpa_div.c:171 (discriminator 1)
    5420:	693b      	ldr	r3, [r7, #16]
    5422:	685b      	ldr	r3, [r3, #4]
    5424:	ea83 72e3 	eor.w	r2, r3, r3, asr #31
    5428:	eba2 72e3 	sub.w	r2, r2, r3, asr #31
    542c:	6bfb      	ldr	r3, [r7, #60]	; 0x3c
    542e:	429a      	cmp	r2, r3
    5430:	dd05      	ble.n	543e <__mpa_div_q_r_internal+0x17a>
/home/csx/share/gerrit/optee_os/lib/libmpa/mpa_div.c:171 (discriminator 2)
    5432:	693b      	ldr	r3, [r7, #16]
    5434:	6bfa      	ldr	r2, [r7, #60]	; 0x3c
    5436:	3202      	adds	r2, #2
    5438:	f853 2022 	ldr.w	r2, [r3, r2, lsl #2]
    543c:	e000      	b.n	5440 <__mpa_div_q_r_internal+0x17c>
/home/csx/share/gerrit/optee_os/lib/libmpa/mpa_div.c:171 (discriminator 3)
    543e:	2200      	movs	r2, #0
/home/csx/share/gerrit/optee_os/lib/libmpa/mpa_div.c:171 (discriminator 5)
    5440:	697b      	ldr	r3, [r7, #20]
    5442:	685b      	ldr	r3, [r3, #4]
    5444:	ea83 71e3 	eor.w	r1, r3, r3, asr #31
    5448:	eba1 71e3 	sub.w	r1, r1, r3, asr #31
    544c:	6bfb      	ldr	r3, [r7, #60]	; 0x3c
    544e:	4299      	cmp	r1, r3
    5450:	dd05      	ble.n	545e <__mpa_div_q_r_internal+0x19a>
/home/csx/share/gerrit/optee_os/lib/libmpa/mpa_div.c:171 (discriminator 6)
    5452:	697b      	ldr	r3, [r7, #20]
    5454:	6bf9      	ldr	r1, [r7, #60]	; 0x3c
    5456:	3102      	adds	r1, #2
    5458:	f853 3021 	ldr.w	r3, [r3, r1, lsl #2]
    545c:	e000      	b.n	5460 <__mpa_div_q_r_internal+0x19c>
/home/csx/share/gerrit/optee_os/lib/libmpa/mpa_div.c:171 (discriminator 7)
    545e:	2300      	movs	r3, #0
/home/csx/share/gerrit/optee_os/lib/libmpa/mpa_div.c:171 (discriminator 9)
    5460:	429a      	cmp	r2, r3
    5462:	d90e      	bls.n	5482 <__mpa_div_q_r_internal+0x1be>
/home/csx/share/gerrit/optee_os/lib/libmpa/mpa_div.c:172
    5464:	68fb      	ldr	r3, [r7, #12]
    5466:	6c3a      	ldr	r2, [r7, #64]	; 0x40
    5468:	3202      	adds	r2, #2
    546a:	2101      	movs	r1, #1
    546c:	f843 1022 	str.w	r1, [r3, r2, lsl #2]
/home/csx/share/gerrit/optee_os/lib/libmpa/mpa_div.c:173
    5470:	6939      	ldr	r1, [r7, #16]
    5472:	693a      	ldr	r2, [r7, #16]
    5474:	697b      	ldr	r3, [r7, #20]
    5476:	4608      	mov	r0, r1
    5478:	4611      	mov	r1, r2
    547a:	461a      	mov	r2, r3
    547c:	6dbb      	ldr	r3, [r7, #88]	; 0x58
    547e:	f002 f813 	bl	74a8 <mpa_sub>
/home/csx/share/gerrit/optee_os/lib/libmpa/mpa_div.c:177
    5482:	693b      	ldr	r3, [r7, #16]
    5484:	685b      	ldr	r3, [r3, #4]
    5486:	3b01      	subs	r3, #1
    5488:	63fb      	str	r3, [r7, #60]	; 0x3c
/home/csx/share/gerrit/optee_os/lib/libmpa/mpa_div.c:178
    548a:	e198      	b.n	57be <__mpa_div_q_r_internal+0x4fa>
/home/csx/share/gerrit/optee_os/lib/libmpa/mpa_div.c:179
    548c:	693b      	ldr	r3, [r7, #16]
    548e:	685b      	ldr	r3, [r3, #4]
    5490:	ea83 72e3 	eor.w	r2, r3, r3, asr #31
    5494:	eba2 72e3 	sub.w	r2, r2, r3, asr #31
    5498:	6bfb      	ldr	r3, [r7, #60]	; 0x3c
    549a:	429a      	cmp	r2, r3
    549c:	dd05      	ble.n	54aa <__mpa_div_q_r_internal+0x1e6>
/home/csx/share/gerrit/optee_os/lib/libmpa/mpa_div.c:179 (discriminator 1)
    549e:	693b      	ldr	r3, [r7, #16]
    54a0:	6bfa      	ldr	r2, [r7, #60]	; 0x3c
    54a2:	3202      	adds	r2, #2
    54a4:	f853 2022 	ldr.w	r2, [r3, r2, lsl #2]
    54a8:	e000      	b.n	54ac <__mpa_div_q_r_internal+0x1e8>
/home/csx/share/gerrit/optee_os/lib/libmpa/mpa_div.c:179 (discriminator 2)
    54aa:	2200      	movs	r2, #0
/home/csx/share/gerrit/optee_os/lib/libmpa/mpa_div.c:180
    54ac:	6b39      	ldr	r1, [r7, #48]	; 0x30
    54ae:	6c3b      	ldr	r3, [r7, #64]	; 0x40
    54b0:	440b      	add	r3, r1
    54b2:	1e59      	subs	r1, r3, #1
    54b4:	697b      	ldr	r3, [r7, #20]
    54b6:	685b      	ldr	r3, [r3, #4]
    54b8:	2b00      	cmp	r3, #0
    54ba:	bfb8      	it	lt
    54bc:	425b      	neglt	r3, r3
    54be:	4299      	cmp	r1, r3
    54c0:	da08      	bge.n	54d4 <__mpa_div_q_r_internal+0x210>
/home/csx/share/gerrit/optee_os/lib/libmpa/mpa_div.c:180 (discriminator 1)
    54c2:	697b      	ldr	r3, [r7, #20]
    54c4:	6b38      	ldr	r0, [r7, #48]	; 0x30
    54c6:	6c39      	ldr	r1, [r7, #64]	; 0x40
    54c8:	4401      	add	r1, r0
    54ca:	3901      	subs	r1, #1
    54cc:	3102      	adds	r1, #2
    54ce:	f853 3021 	ldr.w	r3, [r3, r1, lsl #2]
    54d2:	e000      	b.n	54d6 <__mpa_div_q_r_internal+0x212>
/home/csx/share/gerrit/optee_os/lib/libmpa/mpa_div.c:180 (discriminator 2)
    54d4:	2300      	movs	r3, #0
/home/csx/share/gerrit/optee_os/lib/libmpa/mpa_div.c:179
    54d6:	429a      	cmp	r2, r3
    54d8:	d109      	bne.n	54ee <__mpa_div_q_r_internal+0x22a>
/home/csx/share/gerrit/optee_os/lib/libmpa/mpa_div.c:181
    54da:	6bfa      	ldr	r2, [r7, #60]	; 0x3c
    54dc:	6b3b      	ldr	r3, [r7, #48]	; 0x30
    54de:	1ad2      	subs	r2, r2, r3
    54e0:	68fb      	ldr	r3, [r7, #12]
    54e2:	3202      	adds	r2, #2
    54e4:	f04f 31ff 	mov.w	r1, #4294967295	; 0xffffffff
    54e8:	f843 1022 	str.w	r1, [r3, r2, lsl #2]
    54ec:	e042      	b.n	5574 <__mpa_div_q_r_internal+0x2b0>
/home/csx/share/gerrit/optee_os/lib/libmpa/mpa_div.c:183
    54ee:	6bfa      	ldr	r2, [r7, #60]	; 0x3c
    54f0:	6b3b      	ldr	r3, [r7, #48]	; 0x30
    54f2:	1ad4      	subs	r4, r2, r3
/home/csx/share/gerrit/optee_os/lib/libmpa/mpa_div.c:184
    54f4:	6bfb      	ldr	r3, [r7, #60]	; 0x3c
    54f6:	1e5a      	subs	r2, r3, #1
    54f8:	693b      	ldr	r3, [r7, #16]
    54fa:	685b      	ldr	r3, [r3, #4]
    54fc:	2b00      	cmp	r3, #0
    54fe:	bfb8      	it	lt
    5500:	425b      	neglt	r3, r3
    5502:	429a      	cmp	r2, r3
    5504:	da06      	bge.n	5514 <__mpa_div_q_r_internal+0x250>
/home/csx/share/gerrit/optee_os/lib/libmpa/mpa_div.c:184 (discriminator 1)
    5506:	693b      	ldr	r3, [r7, #16]
    5508:	6bfa      	ldr	r2, [r7, #60]	; 0x3c
    550a:	3a01      	subs	r2, #1
    550c:	3202      	adds	r2, #2
    550e:	f853 0022 	ldr.w	r0, [r3, r2, lsl #2]
    5512:	e000      	b.n	5516 <__mpa_div_q_r_internal+0x252>
/home/csx/share/gerrit/optee_os/lib/libmpa/mpa_div.c:184 (discriminator 2)
    5514:	2000      	movs	r0, #0
/home/csx/share/gerrit/optee_os/lib/libmpa/mpa_div.c:185 (discriminator 4)
    5516:	693b      	ldr	r3, [r7, #16]
    5518:	685b      	ldr	r3, [r3, #4]
    551a:	ea83 72e3 	eor.w	r2, r3, r3, asr #31
    551e:	eba2 72e3 	sub.w	r2, r2, r3, asr #31
/home/csx/share/gerrit/optee_os/lib/libmpa/mpa_div.c:184 (discriminator 4)
    5522:	6bfb      	ldr	r3, [r7, #60]	; 0x3c
    5524:	429a      	cmp	r2, r3
    5526:	dd05      	ble.n	5534 <__mpa_div_q_r_internal+0x270>
/home/csx/share/gerrit/optee_os/lib/libmpa/mpa_div.c:185 (discriminator 5)
    5528:	693b      	ldr	r3, [r7, #16]
/home/csx/share/gerrit/optee_os/lib/libmpa/mpa_div.c:184 (discriminator 5)
    552a:	6bfa      	ldr	r2, [r7, #60]	; 0x3c
    552c:	3202      	adds	r2, #2
    552e:	f853 5022 	ldr.w	r5, [r3, r2, lsl #2]
    5532:	e000      	b.n	5536 <__mpa_div_q_r_internal+0x272>
/home/csx/share/gerrit/optee_os/lib/libmpa/mpa_div.c:184 (discriminator 6)
    5534:	2500      	movs	r5, #0
/home/csx/share/gerrit/optee_os/lib/libmpa/mpa_div.c:186 (discriminator 8)
    5536:	6b3a      	ldr	r2, [r7, #48]	; 0x30
    5538:	6c3b      	ldr	r3, [r7, #64]	; 0x40
    553a:	4413      	add	r3, r2
    553c:	1e5a      	subs	r2, r3, #1
    553e:	697b      	ldr	r3, [r7, #20]
    5540:	685b      	ldr	r3, [r3, #4]
    5542:	2b00      	cmp	r3, #0
    5544:	bfb8      	it	lt
    5546:	425b      	neglt	r3, r3
/home/csx/share/gerrit/optee_os/lib/libmpa/mpa_div.c:184 (discriminator 8)
    5548:	429a      	cmp	r2, r3
    554a:	da08      	bge.n	555e <__mpa_div_q_r_internal+0x29a>
/home/csx/share/gerrit/optee_os/lib/libmpa/mpa_div.c:186 (discriminator 9)
    554c:	697b      	ldr	r3, [r7, #20]
    554e:	6b39      	ldr	r1, [r7, #48]	; 0x30
    5550:	6c3a      	ldr	r2, [r7, #64]	; 0x40
    5552:	440a      	add	r2, r1
    5554:	3a01      	subs	r2, #1
/home/csx/share/gerrit/optee_os/lib/libmpa/mpa_div.c:184 (discriminator 9)
    5556:	3202      	adds	r2, #2
    5558:	f853 3022 	ldr.w	r3, [r3, r2, lsl #2]
    555c:	e000      	b.n	5560 <__mpa_div_q_r_internal+0x29c>
/home/csx/share/gerrit/optee_os/lib/libmpa/mpa_div.c:184 (discriminator 10)
    555e:	2300      	movs	r3, #0
/home/csx/share/gerrit/optee_os/lib/libmpa/mpa_div.c:184 (discriminator 12)
    5560:	4629      	mov	r1, r5
    5562:	461a      	mov	r2, r3
    5564:	2300      	movs	r3, #0
    5566:	f7ff fe83 	bl	5270 <__mpa_div_dword>
    556a:	4601      	mov	r1, r0
/home/csx/share/gerrit/optee_os/lib/libmpa/mpa_div.c:183 (discriminator 12)
    556c:	68fb      	ldr	r3, [r7, #12]
    556e:	1ca2      	adds	r2, r4, #2
    5570:	f843 1022 	str.w	r1, [r3, r2, lsl #2]
/home/csx/share/gerrit/optee_os/lib/libmpa/mpa_div.c:192
    5574:	2300      	movs	r3, #0
    5576:	62fb      	str	r3, [r7, #44]	; 0x2c
/home/csx/share/gerrit/optee_os/lib/libmpa/mpa_div.c:193
    5578:	2300      	movs	r3, #0
    557a:	627b      	str	r3, [r7, #36]	; 0x24
/home/csx/share/gerrit/optee_os/lib/libmpa/mpa_div.c:194
    557c:	2300      	movs	r3, #0
    557e:	61fb      	str	r3, [r7, #28]
/home/csx/share/gerrit/optee_os/lib/libmpa/mpa_div.c:195
    5580:	6bfa      	ldr	r2, [r7, #60]	; 0x3c
    5582:	6b3b      	ldr	r3, [r7, #48]	; 0x30
    5584:	1ad2      	subs	r2, r2, r3
    5586:	68fb      	ldr	r3, [r7, #12]
    5588:	3202      	adds	r2, #2
    558a:	f853 0022 	ldr.w	r0, [r3, r2, lsl #2]
/home/csx/share/gerrit/optee_os/lib/libmpa/mpa_div.c:196
    558e:	6b3a      	ldr	r2, [r7, #48]	; 0x30
    5590:	6c3b      	ldr	r3, [r7, #64]	; 0x40
    5592:	4413      	add	r3, r2
    5594:	1e5a      	subs	r2, r3, #1
    5596:	697b      	ldr	r3, [r7, #20]
    5598:	685b      	ldr	r3, [r3, #4]
    559a:	2b00      	cmp	r3, #0
    559c:	bfb8      	it	lt
    559e:	425b      	neglt	r3, r3
/home/csx/share/gerrit/optee_os/lib/libmpa/mpa_div.c:195
    55a0:	429a      	cmp	r2, r3
    55a2:	da08      	bge.n	55b6 <__mpa_div_q_r_internal+0x2f2>
/home/csx/share/gerrit/optee_os/lib/libmpa/mpa_div.c:196 (discriminator 1)
    55a4:	697b      	ldr	r3, [r7, #20]
    55a6:	6b39      	ldr	r1, [r7, #48]	; 0x30
    55a8:	6c3a      	ldr	r2, [r7, #64]	; 0x40
    55aa:	440a      	add	r2, r1
    55ac:	3a01      	subs	r2, #1
/home/csx/share/gerrit/optee_os/lib/libmpa/mpa_div.c:195 (discriminator 1)
    55ae:	3202      	adds	r2, #2
    55b0:	f853 3022 	ldr.w	r3, [r3, r2, lsl #2]
    55b4:	e000      	b.n	55b8 <__mpa_div_q_r_internal+0x2f4>
/home/csx/share/gerrit/optee_os/lib/libmpa/mpa_div.c:195 (discriminator 2)
    55b6:	2300      	movs	r3, #0
/home/csx/share/gerrit/optee_os/lib/libmpa/mpa_div.c:195 (discriminator 4)
    55b8:	f107 0228 	add.w	r2, r7, #40	; 0x28
    55bc:	f107 042c 	add.w	r4, r7, #44	; 0x2c
    55c0:	4619      	mov	r1, r3
    55c2:	4623      	mov	r3, r4
    55c4:	f000 ffb0 	bl	6528 <__mpa_mul_add_word>
/home/csx/share/gerrit/optee_os/lib/libmpa/mpa_div.c:199 (discriminator 4)
    55c8:	693b      	ldr	r3, [r7, #16]
    55ca:	685b      	ldr	r3, [r3, #4]
    55cc:	ea83 72e3 	eor.w	r2, r3, r3, asr #31
    55d0:	eba2 72e3 	sub.w	r2, r2, r3, asr #31
    55d4:	6bfb      	ldr	r3, [r7, #60]	; 0x3c
    55d6:	429a      	cmp	r2, r3
    55d8:	dd05      	ble.n	55e6 <__mpa_div_q_r_internal+0x322>
/home/csx/share/gerrit/optee_os/lib/libmpa/mpa_div.c:199 (discriminator 1)
    55da:	693b      	ldr	r3, [r7, #16]
    55dc:	6bfa      	ldr	r2, [r7, #60]	; 0x3c
    55de:	3202      	adds	r2, #2
    55e0:	f853 3022 	ldr.w	r3, [r3, r2, lsl #2]
    55e4:	e000      	b.n	55e8 <__mpa_div_q_r_internal+0x324>
/home/csx/share/gerrit/optee_os/lib/libmpa/mpa_div.c:199 (discriminator 2)
    55e6:	2300      	movs	r3, #0
/home/csx/share/gerrit/optee_os/lib/libmpa/mpa_div.c:199 (discriminator 4)
    55e8:	6afa      	ldr	r2, [r7, #44]	; 0x2c
    55ea:	4293      	cmp	r3, r2
    55ec:	d200      	bcs.n	55f0 <__mpa_div_q_r_internal+0x32c>
/home/csx/share/gerrit/optee_os/lib/libmpa/mpa_div.c:200
    55ee:	e09f      	b.n	5730 <__mpa_div_q_r_internal+0x46c>
/home/csx/share/gerrit/optee_os/lib/libmpa/mpa_div.c:202
    55f0:	6bfa      	ldr	r2, [r7, #60]	; 0x3c
    55f2:	6b3b      	ldr	r3, [r7, #48]	; 0x30
    55f4:	1ad2      	subs	r2, r2, r3
    55f6:	68fb      	ldr	r3, [r7, #12]
    55f8:	3202      	adds	r2, #2
    55fa:	f853 0022 	ldr.w	r0, [r3, r2, lsl #2]
/home/csx/share/gerrit/optee_os/lib/libmpa/mpa_div.c:203
    55fe:	6b3a      	ldr	r2, [r7, #48]	; 0x30
    5600:	6c3b      	ldr	r3, [r7, #64]	; 0x40
    5602:	4413      	add	r3, r2
    5604:	1e9a      	subs	r2, r3, #2
    5606:	697b      	ldr	r3, [r7, #20]
    5608:	685b      	ldr	r3, [r3, #4]
    560a:	2b00      	cmp	r3, #0
    560c:	bfb8      	it	lt
    560e:	425b      	neglt	r3, r3
/home/csx/share/gerrit/optee_os/lib/libmpa/mpa_div.c:202
    5610:	429a      	cmp	r2, r3
    5612:	da08      	bge.n	5626 <__mpa_div_q_r_internal+0x362>
/home/csx/share/gerrit/optee_os/lib/libmpa/mpa_div.c:203 (discriminator 1)
    5614:	697b      	ldr	r3, [r7, #20]
    5616:	6b39      	ldr	r1, [r7, #48]	; 0x30
    5618:	6c3a      	ldr	r2, [r7, #64]	; 0x40
    561a:	440a      	add	r2, r1
    561c:	3a02      	subs	r2, #2
/home/csx/share/gerrit/optee_os/lib/libmpa/mpa_div.c:202 (discriminator 1)
    561e:	3202      	adds	r2, #2
    5620:	f853 3022 	ldr.w	r3, [r3, r2, lsl #2]
    5624:	e000      	b.n	5628 <__mpa_div_q_r_internal+0x364>
/home/csx/share/gerrit/optee_os/lib/libmpa/mpa_div.c:202 (discriminator 2)
    5626:	2300      	movs	r3, #0
/home/csx/share/gerrit/optee_os/lib/libmpa/mpa_div.c:202 (discriminator 4)
    5628:	f107 0220 	add.w	r2, r7, #32
    562c:	f107 0424 	add.w	r4, r7, #36	; 0x24
    5630:	4619      	mov	r1, r3
    5632:	4623      	mov	r3, r4
    5634:	f000 ff78 	bl	6528 <__mpa_mul_add_word>
/home/csx/share/gerrit/optee_os/lib/libmpa/mpa_div.c:206 (discriminator 4)
    5638:	6ab8      	ldr	r0, [r7, #40]	; 0x28
    563a:	6a79      	ldr	r1, [r7, #36]	; 0x24
    563c:	f107 0224 	add.w	r2, r7, #36	; 0x24
    5640:	f107 031c 	add.w	r3, r7, #28
    5644:	f001 fc68 	bl	6f18 <__mpa_full_adder>
/home/csx/share/gerrit/optee_os/lib/libmpa/mpa_div.c:207 (discriminator 4)
    5648:	2300      	movs	r3, #0
    564a:	62bb      	str	r3, [r7, #40]	; 0x28
/home/csx/share/gerrit/optee_os/lib/libmpa/mpa_div.c:208 (discriminator 4)
    564c:	6af8      	ldr	r0, [r7, #44]	; 0x2c
    564e:	69f9      	ldr	r1, [r7, #28]
    5650:	f107 021c 	add.w	r2, r7, #28
    5654:	f107 0328 	add.w	r3, r7, #40	; 0x28
    5658:	f001 fc5e 	bl	6f18 <__mpa_full_adder>
/home/csx/share/gerrit/optee_os/lib/libmpa/mpa_div.c:209 (discriminator 4)
    565c:	6abb      	ldr	r3, [r7, #40]	; 0x28
    565e:	2b00      	cmp	r3, #0
    5660:	d166      	bne.n	5730 <__mpa_div_q_r_internal+0x46c>
/home/csx/share/gerrit/optee_os/lib/libmpa/mpa_div.c:209 (discriminator 1)
    5662:	693b      	ldr	r3, [r7, #16]
    5664:	685b      	ldr	r3, [r3, #4]
    5666:	ea83 72e3 	eor.w	r2, r3, r3, asr #31
    566a:	eba2 72e3 	sub.w	r2, r2, r3, asr #31
    566e:	6bfb      	ldr	r3, [r7, #60]	; 0x3c
    5670:	429a      	cmp	r2, r3
    5672:	dd05      	ble.n	5680 <__mpa_div_q_r_internal+0x3bc>
/home/csx/share/gerrit/optee_os/lib/libmpa/mpa_div.c:209 (discriminator 2)
    5674:	693b      	ldr	r3, [r7, #16]
    5676:	6bfa      	ldr	r2, [r7, #60]	; 0x3c
    5678:	3202      	adds	r2, #2
    567a:	f853 3022 	ldr.w	r3, [r3, r2, lsl #2]
    567e:	e000      	b.n	5682 <__mpa_div_q_r_internal+0x3be>
/home/csx/share/gerrit/optee_os/lib/libmpa/mpa_div.c:209 (discriminator 3)
    5680:	2300      	movs	r3, #0
/home/csx/share/gerrit/optee_os/lib/libmpa/mpa_div.c:209 (discriminator 5)
    5682:	69fa      	ldr	r2, [r7, #28]
    5684:	4293      	cmp	r3, r2
    5686:	d353      	bcc.n	5730 <__mpa_div_q_r_internal+0x46c>
/home/csx/share/gerrit/optee_os/lib/libmpa/mpa_div.c:211
    5688:	693b      	ldr	r3, [r7, #16]
    568a:	685b      	ldr	r3, [r3, #4]
    568c:	ea83 72e3 	eor.w	r2, r3, r3, asr #31
    5690:	eba2 72e3 	sub.w	r2, r2, r3, asr #31
    5694:	6bfb      	ldr	r3, [r7, #60]	; 0x3c
    5696:	429a      	cmp	r2, r3
    5698:	dd05      	ble.n	56a6 <__mpa_div_q_r_internal+0x3e2>
/home/csx/share/gerrit/optee_os/lib/libmpa/mpa_div.c:211 (discriminator 1)
    569a:	693b      	ldr	r3, [r7, #16]
    569c:	6bfa      	ldr	r2, [r7, #60]	; 0x3c
    569e:	3202      	adds	r2, #2
    56a0:	f853 3022 	ldr.w	r3, [r3, r2, lsl #2]
    56a4:	e000      	b.n	56a8 <__mpa_div_q_r_internal+0x3e4>
/home/csx/share/gerrit/optee_os/lib/libmpa/mpa_div.c:211 (discriminator 2)
    56a6:	2300      	movs	r3, #0
/home/csx/share/gerrit/optee_os/lib/libmpa/mpa_div.c:211 (discriminator 4)
    56a8:	69fa      	ldr	r2, [r7, #28]
    56aa:	4293      	cmp	r3, r2
    56ac:	d900      	bls.n	56b0 <__mpa_div_q_r_internal+0x3ec>
/home/csx/share/gerrit/optee_os/lib/libmpa/mpa_div.c:212
    56ae:	e04c      	b.n	574a <__mpa_div_q_r_internal+0x486>
/home/csx/share/gerrit/optee_os/lib/libmpa/mpa_div.c:213
    56b0:	6bfb      	ldr	r3, [r7, #60]	; 0x3c
    56b2:	1e5a      	subs	r2, r3, #1
    56b4:	693b      	ldr	r3, [r7, #16]
    56b6:	685b      	ldr	r3, [r3, #4]
    56b8:	2b00      	cmp	r3, #0
    56ba:	bfb8      	it	lt
    56bc:	425b      	neglt	r3, r3
    56be:	429a      	cmp	r2, r3
    56c0:	da06      	bge.n	56d0 <__mpa_div_q_r_internal+0x40c>
/home/csx/share/gerrit/optee_os/lib/libmpa/mpa_div.c:213 (discriminator 1)
    56c2:	693b      	ldr	r3, [r7, #16]
    56c4:	6bfa      	ldr	r2, [r7, #60]	; 0x3c
    56c6:	3a01      	subs	r2, #1
    56c8:	3202      	adds	r2, #2
    56ca:	f853 3022 	ldr.w	r3, [r3, r2, lsl #2]
    56ce:	e000      	b.n	56d2 <__mpa_div_q_r_internal+0x40e>
/home/csx/share/gerrit/optee_os/lib/libmpa/mpa_div.c:213 (discriminator 2)
    56d0:	2300      	movs	r3, #0
/home/csx/share/gerrit/optee_os/lib/libmpa/mpa_div.c:213 (discriminator 4)
    56d2:	6a7a      	ldr	r2, [r7, #36]	; 0x24
    56d4:	4293      	cmp	r3, r2
    56d6:	d200      	bcs.n	56da <__mpa_div_q_r_internal+0x416>
/home/csx/share/gerrit/optee_os/lib/libmpa/mpa_div.c:214
    56d8:	e02a      	b.n	5730 <__mpa_div_q_r_internal+0x46c>
/home/csx/share/gerrit/optee_os/lib/libmpa/mpa_div.c:215
    56da:	6bfb      	ldr	r3, [r7, #60]	; 0x3c
    56dc:	1e5a      	subs	r2, r3, #1
    56de:	693b      	ldr	r3, [r7, #16]
    56e0:	685b      	ldr	r3, [r3, #4]
    56e2:	2b00      	cmp	r3, #0
    56e4:	bfb8      	it	lt
    56e6:	425b      	neglt	r3, r3
    56e8:	429a      	cmp	r2, r3
    56ea:	da06      	bge.n	56fa <__mpa_div_q_r_internal+0x436>
/home/csx/share/gerrit/optee_os/lib/libmpa/mpa_div.c:215 (discriminator 1)
    56ec:	693b      	ldr	r3, [r7, #16]
    56ee:	6bfa      	ldr	r2, [r7, #60]	; 0x3c
    56f0:	3a01      	subs	r2, #1
    56f2:	3202      	adds	r2, #2
    56f4:	f853 3022 	ldr.w	r3, [r3, r2, lsl #2]
    56f8:	e000      	b.n	56fc <__mpa_div_q_r_internal+0x438>
/home/csx/share/gerrit/optee_os/lib/libmpa/mpa_div.c:215 (discriminator 2)
    56fa:	2300      	movs	r3, #0
/home/csx/share/gerrit/optee_os/lib/libmpa/mpa_div.c:215 (discriminator 4)
    56fc:	6a7a      	ldr	r2, [r7, #36]	; 0x24
    56fe:	4293      	cmp	r3, r2
    5700:	d900      	bls.n	5704 <__mpa_div_q_r_internal+0x440>
/home/csx/share/gerrit/optee_os/lib/libmpa/mpa_div.c:216
    5702:	e022      	b.n	574a <__mpa_div_q_r_internal+0x486>
/home/csx/share/gerrit/optee_os/lib/libmpa/mpa_div.c:217
    5704:	6bfb      	ldr	r3, [r7, #60]	; 0x3c
    5706:	1e9a      	subs	r2, r3, #2
    5708:	693b      	ldr	r3, [r7, #16]
    570a:	685b      	ldr	r3, [r3, #4]
    570c:	2b00      	cmp	r3, #0
    570e:	bfb8      	it	lt
    5710:	425b      	neglt	r3, r3
    5712:	429a      	cmp	r2, r3
    5714:	da06      	bge.n	5724 <__mpa_div_q_r_internal+0x460>
/home/csx/share/gerrit/optee_os/lib/libmpa/mpa_div.c:217 (discriminator 1)
    5716:	693b      	ldr	r3, [r7, #16]
    5718:	6bfa      	ldr	r2, [r7, #60]	; 0x3c
    571a:	3a02      	subs	r2, #2
    571c:	3202      	adds	r2, #2
    571e:	f853 3022 	ldr.w	r3, [r3, r2, lsl #2]
    5722:	e000      	b.n	5726 <__mpa_div_q_r_internal+0x462>
/home/csx/share/gerrit/optee_os/lib/libmpa/mpa_div.c:217 (discriminator 2)
    5724:	2300      	movs	r3, #0
/home/csx/share/gerrit/optee_os/lib/libmpa/mpa_div.c:217 (discriminator 4)
    5726:	6a3a      	ldr	r2, [r7, #32]
    5728:	4293      	cmp	r3, r2
    572a:	d200      	bcs.n	572e <__mpa_div_q_r_internal+0x46a>
/home/csx/share/gerrit/optee_os/lib/libmpa/mpa_div.c:218
    572c:	e000      	b.n	5730 <__mpa_div_q_r_internal+0x46c>
/home/csx/share/gerrit/optee_os/lib/libmpa/mpa_div.c:219
    572e:	e00c      	b.n	574a <__mpa_div_q_r_internal+0x486>
/home/csx/share/gerrit/optee_os/lib/libmpa/mpa_div.c:221
    5730:	6bfa      	ldr	r2, [r7, #60]	; 0x3c
    5732:	6b3b      	ldr	r3, [r7, #48]	; 0x30
    5734:	1ad3      	subs	r3, r2, r3
    5736:	68fa      	ldr	r2, [r7, #12]
    5738:	1c99      	adds	r1, r3, #2
    573a:	f852 2021 	ldr.w	r2, [r2, r1, lsl #2]
    573e:	1e51      	subs	r1, r2, #1
    5740:	68fa      	ldr	r2, [r7, #12]
    5742:	3302      	adds	r3, #2
    5744:	f842 1023 	str.w	r1, [r2, r3, lsl #2]
/home/csx/share/gerrit/optee_os/lib/libmpa/mpa_div.c:222
    5748:	e714      	b.n	5574 <__mpa_div_q_r_internal+0x2b0>
/home/csx/share/gerrit/optee_os/lib/libmpa/mpa_div.c:225
    574a:	697b      	ldr	r3, [r7, #20]
    574c:	4618      	mov	r0, r3
    574e:	2101      	movs	r1, #1
    5750:	f001 f9d4 	bl	6afc <__mpa_shift_words_right>
/home/csx/share/gerrit/optee_os/lib/libmpa/mpa_div.c:226
    5754:	6c3b      	ldr	r3, [r7, #64]	; 0x40
    5756:	3b01      	subs	r3, #1
    5758:	643b      	str	r3, [r7, #64]	; 0x40
/home/csx/share/gerrit/optee_os/lib/libmpa/mpa_div.c:227
    575a:	69b8      	ldr	r0, [r7, #24]
    575c:	6979      	ldr	r1, [r7, #20]
    575e:	6bfa      	ldr	r2, [r7, #60]	; 0x3c
    5760:	6b3b      	ldr	r3, [r7, #48]	; 0x30
    5762:	1ad2      	subs	r2, r2, r3
    5764:	68fb      	ldr	r3, [r7, #12]
    5766:	3202      	adds	r2, #2
    5768:	f853 3022 	ldr.w	r3, [r3, r2, lsl #2]
    576c:	461a      	mov	r2, r3
    576e:	6dbb      	ldr	r3, [r7, #88]	; 0x58
    5770:	f001 f870 	bl	6854 <mpa_mul_word>
/home/csx/share/gerrit/optee_os/lib/libmpa/mpa_div.c:228
    5774:	6939      	ldr	r1, [r7, #16]
    5776:	693a      	ldr	r2, [r7, #16]
    5778:	69bb      	ldr	r3, [r7, #24]
    577a:	4608      	mov	r0, r1
    577c:	4611      	mov	r1, r2
    577e:	461a      	mov	r2, r3
    5780:	6dbb      	ldr	r3, [r7, #88]	; 0x58
    5782:	f001 fe91 	bl	74a8 <mpa_sub>
/home/csx/share/gerrit/optee_os/lib/libmpa/mpa_div.c:229
    5786:	693b      	ldr	r3, [r7, #16]
    5788:	685b      	ldr	r3, [r3, #4]
    578a:	2b00      	cmp	r3, #0
    578c:	da14      	bge.n	57b8 <__mpa_div_q_r_internal+0x4f4>
/home/csx/share/gerrit/optee_os/lib/libmpa/mpa_div.c:230
    578e:	6939      	ldr	r1, [r7, #16]
    5790:	693a      	ldr	r2, [r7, #16]
    5792:	697b      	ldr	r3, [r7, #20]
    5794:	4608      	mov	r0, r1
    5796:	4611      	mov	r1, r2
    5798:	461a      	mov	r2, r3
    579a:	6dbb      	ldr	r3, [r7, #88]	; 0x58
    579c:	f001 fda4 	bl	72e8 <mpa_add>
/home/csx/share/gerrit/optee_os/lib/libmpa/mpa_div.c:231
    57a0:	6bfa      	ldr	r2, [r7, #60]	; 0x3c
    57a2:	6b3b      	ldr	r3, [r7, #48]	; 0x30
    57a4:	1ad3      	subs	r3, r2, r3
    57a6:	68fa      	ldr	r2, [r7, #12]
    57a8:	1c99      	adds	r1, r3, #2
    57aa:	f852 2021 	ldr.w	r2, [r2, r1, lsl #2]
    57ae:	1e51      	subs	r1, r2, #1
    57b0:	68fa      	ldr	r2, [r7, #12]
    57b2:	3302      	adds	r3, #2
    57b4:	f842 1023 	str.w	r1, [r2, r3, lsl #2]
/home/csx/share/gerrit/optee_os/lib/libmpa/mpa_div.c:233
    57b8:	6bfb      	ldr	r3, [r7, #60]	; 0x3c
    57ba:	3b01      	subs	r3, #1
    57bc:	63fb      	str	r3, [r7, #60]	; 0x3c
/home/csx/share/gerrit/optee_os/lib/libmpa/mpa_div.c:178
    57be:	6bfa      	ldr	r2, [r7, #60]	; 0x3c
    57c0:	6b3b      	ldr	r3, [r7, #48]	; 0x30
    57c2:	429a      	cmp	r2, r3
    57c4:	f6bf ae62 	bge.w	548c <__mpa_div_q_r_internal+0x1c8>
/home/csx/share/gerrit/optee_os/lib/libmpa/mpa_div.c:238
    57c8:	6b7a      	ldr	r2, [r7, #52]	; 0x34
    57ca:	6b3b      	ldr	r3, [r7, #48]	; 0x30
    57cc:	1ad3      	subs	r3, r2, r3
    57ce:	63fb      	str	r3, [r7, #60]	; 0x3c
/home/csx/share/gerrit/optee_os/lib/libmpa/mpa_div.c:239
    57d0:	e002      	b.n	57d8 <__mpa_div_q_r_internal+0x514>
/home/csx/share/gerrit/optee_os/lib/libmpa/mpa_div.c:240
    57d2:	6bfb      	ldr	r3, [r7, #60]	; 0x3c
    57d4:	3b01      	subs	r3, #1
    57d6:	63fb      	str	r3, [r7, #60]	; 0x3c
/home/csx/share/gerrit/optee_os/lib/libmpa/mpa_div.c:239
    57d8:	6bfb      	ldr	r3, [r7, #60]	; 0x3c
    57da:	2b00      	cmp	r3, #0
    57dc:	db06      	blt.n	57ec <__mpa_div_q_r_internal+0x528>
/home/csx/share/gerrit/optee_os/lib/libmpa/mpa_div.c:239 (discriminator 1)
    57de:	68fb      	ldr	r3, [r7, #12]
    57e0:	6bfa      	ldr	r2, [r7, #60]	; 0x3c
    57e2:	3202      	adds	r2, #2
    57e4:	f853 3022 	ldr.w	r3, [r3, r2, lsl #2]
    57e8:	2b00      	cmp	r3, #0
    57ea:	d0f2      	beq.n	57d2 <__mpa_div_q_r_internal+0x50e>
/home/csx/share/gerrit/optee_os/lib/libmpa/mpa_div.c:241
    57ec:	6bfb      	ldr	r3, [r7, #60]	; 0x3c
    57ee:	1c5a      	adds	r2, r3, #1
    57f0:	68fb      	ldr	r3, [r7, #12]
    57f2:	605a      	str	r2, [r3, #4]
/home/csx/share/gerrit/optee_os/lib/libmpa/mpa_div.c:245
    57f4:	693a      	ldr	r2, [r7, #16]
    57f6:	693b      	ldr	r3, [r7, #16]
    57f8:	4610      	mov	r0, r2
    57fa:	4619      	mov	r1, r3
    57fc:	6c7a      	ldr	r2, [r7, #68]	; 0x44
    57fe:	f001 fabb 	bl	6d78 <mpa_shift_right>
/home/csx/share/gerrit/optee_os/lib/libmpa/mpa_div.c:246
    5802:	693b      	ldr	r3, [r7, #16]
    5804:	68b8      	ldr	r0, [r7, #8]
    5806:	4619      	mov	r1, r3
    5808:	f7fe ff06 	bl	4618 <mpa_copy>
/home/csx/share/gerrit/optee_os/lib/libmpa/mpa_div.c:251
    580c:	f107 0318 	add.w	r3, r7, #24
    5810:	4618      	mov	r0, r3
    5812:	6db9      	ldr	r1, [r7, #88]	; 0x58
    5814:	f000 fe44 	bl	64a0 <mpa_free_static_temp_var>
/home/csx/share/gerrit/optee_os/lib/libmpa/mpa_div.c:252
    5818:	f107 0314 	add.w	r3, r7, #20
    581c:	4618      	mov	r0, r3
    581e:	6db9      	ldr	r1, [r7, #88]	; 0x58
    5820:	f000 fe3e 	bl	64a0 <mpa_free_static_temp_var>
/home/csx/share/gerrit/optee_os/lib/libmpa/mpa_div.c:253
    5824:	f107 0310 	add.w	r3, r7, #16
    5828:	4618      	mov	r0, r3
    582a:	6db9      	ldr	r1, [r7, #88]	; 0x58
    582c:	f000 fe38 	bl	64a0 <mpa_free_static_temp_var>
/home/csx/share/gerrit/optee_os/lib/libmpa/mpa_div.c:254
    5830:	3748      	adds	r7, #72	; 0x48
    5832:	46bd      	mov	sp, r7
    5834:	e9dd 4500 	ldrd	r4, r5, [sp]
    5838:	b002      	add	sp, #8
    583a:	bd80      	pop	{r7, pc}

0000583c <__mpa_div_q_r_internal_word>:
__mpa_div_q_r_internal_word():
/home/csx/share/gerrit/optee_os/lib/libmpa/mpa_div.c:269
    583c:	e96d 7e02 	strd	r7, lr, [sp, #-8]!
    5840:	b08a      	sub	sp, #40	; 0x28
    5842:	af00      	add	r7, sp, #0
    5844:	60f8      	str	r0, [r7, #12]
    5846:	60b9      	str	r1, [r7, #8]
    5848:	607a      	str	r2, [r7, #4]
    584a:	603b      	str	r3, [r7, #0]
/home/csx/share/gerrit/optee_os/lib/libmpa/mpa_div.c:277
    584c:	687b      	ldr	r3, [r7, #4]
    584e:	685b      	ldr	r3, [r3, #4]
    5850:	2b00      	cmp	r3, #0
    5852:	bfb8      	it	lt
    5854:	425b      	neglt	r3, r3
    5856:	2b01      	cmp	r3, #1
    5858:	d116      	bne.n	5888 <__mpa_div_q_r_internal_word+0x4c>
/home/csx/share/gerrit/optee_os/lib/libmpa/mpa_div.c:278
    585a:	687b      	ldr	r3, [r7, #4]
    585c:	689a      	ldr	r2, [r3, #8]
    585e:	683b      	ldr	r3, [r7, #0]
    5860:	fbb2 f3f3 	udiv	r3, r2, r3
    5864:	68f8      	ldr	r0, [r7, #12]
    5866:	4619      	mov	r1, r3
    5868:	f7ff fc66 	bl	5138 <mpa_set_word>
/home/csx/share/gerrit/optee_os/lib/libmpa/mpa_div.c:279
    586c:	687b      	ldr	r3, [r7, #4]
    586e:	689b      	ldr	r3, [r3, #8]
    5870:	683a      	ldr	r2, [r7, #0]
    5872:	fbb3 f2f2 	udiv	r2, r3, r2
    5876:	6839      	ldr	r1, [r7, #0]
    5878:	fb01 f202 	mul.w	r2, r1, r2
    587c:	1a9b      	subs	r3, r3, r2
    587e:	68b8      	ldr	r0, [r7, #8]
    5880:	4619      	mov	r1, r3
    5882:	f7ff fc59 	bl	5138 <mpa_set_word>
    5886:	e060      	b.n	594a <__mpa_div_q_r_internal_word+0x10e>
/home/csx/share/gerrit/optee_os/lib/libmpa/mpa_div.c:282
    5888:	68b8      	ldr	r0, [r7, #8]
    588a:	6879      	ldr	r1, [r7, #4]
    588c:	f7fe fec4 	bl	4618 <mpa_copy>
/home/csx/share/gerrit/optee_os/lib/libmpa/mpa_div.c:283
    5890:	68f8      	ldr	r0, [r7, #12]
    5892:	2100      	movs	r1, #0
    5894:	f7ff fc50 	bl	5138 <mpa_set_word>
/home/csx/share/gerrit/optee_os/lib/libmpa/mpa_div.c:285
    5898:	68bb      	ldr	r3, [r7, #8]
    589a:	685b      	ldr	r3, [r3, #4]
    589c:	2b00      	cmp	r3, #0
    589e:	bfb8      	it	lt
    58a0:	425b      	neglt	r3, r3
    58a2:	3b01      	subs	r3, #1
    58a4:	627b      	str	r3, [r7, #36]	; 0x24
/home/csx/share/gerrit/optee_os/lib/libmpa/mpa_div.c:286
    58a6:	2300      	movs	r3, #0
    58a8:	623b      	str	r3, [r7, #32]
/home/csx/share/gerrit/optee_os/lib/libmpa/mpa_div.c:287
    58aa:	68bb      	ldr	r3, [r7, #8]
    58ac:	6a7a      	ldr	r2, [r7, #36]	; 0x24
    58ae:	3202      	adds	r2, #2
    58b0:	f853 3022 	ldr.w	r3, [r3, r2, lsl #2]
    58b4:	61fb      	str	r3, [r7, #28]
/home/csx/share/gerrit/optee_os/lib/libmpa/mpa_div.c:288
    58b6:	e022      	b.n	58fe <__mpa_div_q_r_internal_word+0xc2>
/home/csx/share/gerrit/optee_os/lib/libmpa/mpa_div.c:289
    58b8:	f107 0310 	add.w	r3, r7, #16
    58bc:	69f8      	ldr	r0, [r7, #28]
    58be:	6a39      	ldr	r1, [r7, #32]
    58c0:	683a      	ldr	r2, [r7, #0]
    58c2:	f7ff fcd5 	bl	5270 <__mpa_div_dword>
    58c6:	6178      	str	r0, [r7, #20]
/home/csx/share/gerrit/optee_os/lib/libmpa/mpa_div.c:290
    58c8:	68fb      	ldr	r3, [r7, #12]
    58ca:	6a7a      	ldr	r2, [r7, #36]	; 0x24
    58cc:	3202      	adds	r2, #2
    58ce:	6979      	ldr	r1, [r7, #20]
    58d0:	f843 1022 	str.w	r1, [r3, r2, lsl #2]
/home/csx/share/gerrit/optee_os/lib/libmpa/mpa_div.c:291
    58d4:	6939      	ldr	r1, [r7, #16]
    58d6:	68bb      	ldr	r3, [r7, #8]
    58d8:	6a7a      	ldr	r2, [r7, #36]	; 0x24
    58da:	3202      	adds	r2, #2
    58dc:	f843 1022 	str.w	r1, [r3, r2, lsl #2]
/home/csx/share/gerrit/optee_os/lib/libmpa/mpa_div.c:292
    58e0:	68bb      	ldr	r3, [r7, #8]
    58e2:	6a7a      	ldr	r2, [r7, #36]	; 0x24
    58e4:	3202      	adds	r2, #2
    58e6:	f853 3022 	ldr.w	r3, [r3, r2, lsl #2]
    58ea:	623b      	str	r3, [r7, #32]
/home/csx/share/gerrit/optee_os/lib/libmpa/mpa_div.c:293
    58ec:	6a7b      	ldr	r3, [r7, #36]	; 0x24
    58ee:	3b01      	subs	r3, #1
    58f0:	627b      	str	r3, [r7, #36]	; 0x24
    58f2:	68bb      	ldr	r3, [r7, #8]
    58f4:	6a7a      	ldr	r2, [r7, #36]	; 0x24
    58f6:	3202      	adds	r2, #2
    58f8:	f853 3022 	ldr.w	r3, [r3, r2, lsl #2]
    58fc:	61fb      	str	r3, [r7, #28]
/home/csx/share/gerrit/optee_os/lib/libmpa/mpa_div.c:288
    58fe:	6a7b      	ldr	r3, [r7, #36]	; 0x24
    5900:	2b00      	cmp	r3, #0
    5902:	dad9      	bge.n	58b8 <__mpa_div_q_r_internal_word+0x7c>
/home/csx/share/gerrit/optee_os/lib/libmpa/mpa_div.c:296
    5904:	68bb      	ldr	r3, [r7, #8]
    5906:	689b      	ldr	r3, [r3, #8]
    5908:	2b00      	cmp	r3, #0
    590a:	bf14      	ite	ne
    590c:	2301      	movne	r3, #1
    590e:	2300      	moveq	r3, #0
    5910:	b2db      	uxtb	r3, r3
    5912:	461a      	mov	r2, r3
    5914:	68bb      	ldr	r3, [r7, #8]
    5916:	605a      	str	r2, [r3, #4]
/home/csx/share/gerrit/optee_os/lib/libmpa/mpa_div.c:297
    5918:	687b      	ldr	r3, [r7, #4]
    591a:	685b      	ldr	r3, [r3, #4]
    591c:	2b00      	cmp	r3, #0
    591e:	bfb8      	it	lt
    5920:	425b      	neglt	r3, r3
    5922:	3b01      	subs	r3, #1
    5924:	61bb      	str	r3, [r7, #24]
/home/csx/share/gerrit/optee_os/lib/libmpa/mpa_div.c:298
    5926:	e002      	b.n	592e <__mpa_div_q_r_internal_word+0xf2>
/home/csx/share/gerrit/optee_os/lib/libmpa/mpa_div.c:299
    5928:	69bb      	ldr	r3, [r7, #24]
    592a:	3b01      	subs	r3, #1
    592c:	61bb      	str	r3, [r7, #24]
/home/csx/share/gerrit/optee_os/lib/libmpa/mpa_div.c:298
    592e:	69bb      	ldr	r3, [r7, #24]
    5930:	2b00      	cmp	r3, #0
    5932:	db06      	blt.n	5942 <__mpa_div_q_r_internal_word+0x106>
/home/csx/share/gerrit/optee_os/lib/libmpa/mpa_div.c:298 (discriminator 1)
    5934:	68fb      	ldr	r3, [r7, #12]
    5936:	69ba      	ldr	r2, [r7, #24]
    5938:	3202      	adds	r2, #2
    593a:	f853 3022 	ldr.w	r3, [r3, r2, lsl #2]
    593e:	2b00      	cmp	r3, #0
    5940:	d0f2      	beq.n	5928 <__mpa_div_q_r_internal_word+0xec>
/home/csx/share/gerrit/optee_os/lib/libmpa/mpa_div.c:300
    5942:	69bb      	ldr	r3, [r7, #24]
    5944:	1c5a      	adds	r2, r3, #1
    5946:	68fb      	ldr	r3, [r7, #12]
    5948:	605a      	str	r2, [r3, #4]
/home/csx/share/gerrit/optee_os/lib/libmpa/mpa_div.c:301
    594a:	3728      	adds	r7, #40	; 0x28
    594c:	46bd      	mov	sp, r7
    594e:	bd80      	pop	{r7, pc}

00005950 <__mpa_div_q_r>:
__mpa_div_q_r():
/home/csx/share/gerrit/optee_os/lib/libmpa/mpa_div.c:324
    5950:	e96d 7e02 	strd	r7, lr, [sp, #-8]!
    5954:	b088      	sub	sp, #32
    5956:	af02      	add	r7, sp, #8
    5958:	60f8      	str	r0, [r7, #12]
    595a:	60b9      	str	r1, [r7, #8]
    595c:	607a      	str	r2, [r7, #4]
    595e:	603b      	str	r3, [r7, #0]
/home/csx/share/gerrit/optee_os/lib/libmpa/mpa_div.c:328
    5960:	687b      	ldr	r3, [r7, #4]
    5962:	685b      	ldr	r3, [r3, #4]
    5964:	2b00      	cmp	r3, #0
    5966:	d108      	bne.n	597a <__mpa_div_q_r+0x2a>
/home/csx/share/gerrit/optee_os/lib/libmpa/mpa_div.c:329
    5968:	68f8      	ldr	r0, [r7, #12]
    596a:	2100      	movs	r1, #0
    596c:	f7ff fbe4 	bl	5138 <mpa_set_word>
/home/csx/share/gerrit/optee_os/lib/libmpa/mpa_div.c:330
    5970:	68b8      	ldr	r0, [r7, #8]
    5972:	2100      	movs	r1, #0
    5974:	f7ff fbe0 	bl	5138 <mpa_set_word>
/home/csx/share/gerrit/optee_os/lib/libmpa/mpa_div.c:331
    5978:	e07d      	b.n	5a76 <__mpa_div_q_r+0x126>
/home/csx/share/gerrit/optee_os/lib/libmpa/mpa_div.c:333
    597a:	683b      	ldr	r3, [r7, #0]
    597c:	685b      	ldr	r3, [r3, #4]
    597e:	2b00      	cmp	r3, #0
    5980:	d106      	bne.n	5990 <__mpa_div_q_r+0x40>
/home/csx/share/gerrit/optee_os/lib/libmpa/mpa_div.c:335
    5982:	683b      	ldr	r3, [r7, #0]
    5984:	685b      	ldr	r3, [r3, #4]
    5986:	222a      	movs	r2, #42	; 0x2a
    5988:	fb92 f3f3 	sdiv	r3, r2, r3
    598c:	617b      	str	r3, [r7, #20]
/home/csx/share/gerrit/optee_os/lib/libmpa/mpa_div.c:336
    598e:	e072      	b.n	5a76 <__mpa_div_q_r+0x126>
/home/csx/share/gerrit/optee_os/lib/libmpa/mpa_div.c:340
    5990:	687b      	ldr	r3, [r7, #4]
    5992:	685b      	ldr	r3, [r3, #4]
    5994:	2b00      	cmp	r3, #0
    5996:	db01      	blt.n	599c <__mpa_div_q_r+0x4c>
/home/csx/share/gerrit/optee_os/lib/libmpa/mpa_div.c:340 (discriminator 1)
    5998:	2201      	movs	r2, #1
    599a:	e001      	b.n	59a0 <__mpa_div_q_r+0x50>
/home/csx/share/gerrit/optee_os/lib/libmpa/mpa_div.c:340 (discriminator 2)
    599c:	f04f 32ff 	mov.w	r2, #4294967295	; 0xffffffff
/home/csx/share/gerrit/optee_os/lib/libmpa/mpa_div.c:341
    59a0:	683b      	ldr	r3, [r7, #0]
    59a2:	685b      	ldr	r3, [r3, #4]
    59a4:	2b00      	cmp	r3, #0
    59a6:	db01      	blt.n	59ac <__mpa_div_q_r+0x5c>
/home/csx/share/gerrit/optee_os/lib/libmpa/mpa_div.c:341 (discriminator 1)
    59a8:	2301      	movs	r3, #1
    59aa:	e001      	b.n	59b0 <__mpa_div_q_r+0x60>
/home/csx/share/gerrit/optee_os/lib/libmpa/mpa_div.c:341 (discriminator 2)
    59ac:	f04f 33ff 	mov.w	r3, #4294967295	; 0xffffffff
/home/csx/share/gerrit/optee_os/lib/libmpa/mpa_div.c:341 (discriminator 4)
    59b0:	429a      	cmp	r2, r3
    59b2:	d002      	beq.n	59ba <__mpa_div_q_r+0x6a>
/home/csx/share/gerrit/optee_os/lib/libmpa/mpa_div.c:341 (discriminator 5)
    59b4:	f04f 33ff 	mov.w	r3, #4294967295	; 0xffffffff
    59b8:	e000      	b.n	59bc <__mpa_div_q_r+0x6c>
/home/csx/share/gerrit/optee_os/lib/libmpa/mpa_div.c:341 (discriminator 6)
    59ba:	2301      	movs	r3, #1
/home/csx/share/gerrit/optee_os/lib/libmpa/mpa_div.c:339
    59bc:	617b      	str	r3, [r7, #20]
/home/csx/share/gerrit/optee_os/lib/libmpa/mpa_div.c:342
    59be:	6878      	ldr	r0, [r7, #4]
    59c0:	6839      	ldr	r1, [r7, #0]
    59c2:	f001 ffab 	bl	791c <__mpa_abs_cmp>
    59c6:	6138      	str	r0, [r7, #16]
/home/csx/share/gerrit/optee_os/lib/libmpa/mpa_div.c:343
    59c8:	693b      	ldr	r3, [r7, #16]
    59ca:	2b00      	cmp	r3, #0
    59cc:	d108      	bne.n	59e0 <__mpa_div_q_r+0x90>
/home/csx/share/gerrit/optee_os/lib/libmpa/mpa_div.c:344
    59ce:	68f8      	ldr	r0, [r7, #12]
    59d0:	2101      	movs	r1, #1
    59d2:	f7ff fbb1 	bl	5138 <mpa_set_word>
/home/csx/share/gerrit/optee_os/lib/libmpa/mpa_div.c:345
    59d6:	68b8      	ldr	r0, [r7, #8]
    59d8:	2100      	movs	r1, #0
    59da:	f7ff fbad 	bl	5138 <mpa_set_word>
/home/csx/share/gerrit/optee_os/lib/libmpa/mpa_div.c:346
    59de:	e04a      	b.n	5a76 <__mpa_div_q_r+0x126>
/home/csx/share/gerrit/optee_os/lib/libmpa/mpa_div.c:348
    59e0:	693b      	ldr	r3, [r7, #16]
    59e2:	2b00      	cmp	r3, #0
    59e4:	dd17      	ble.n	5a16 <__mpa_div_q_r+0xc6>
/home/csx/share/gerrit/optee_os/lib/libmpa/mpa_div.c:349
    59e6:	683b      	ldr	r3, [r7, #0]
    59e8:	685b      	ldr	r3, [r3, #4]
    59ea:	2b00      	cmp	r3, #0
    59ec:	bfb8      	it	lt
    59ee:	425b      	neglt	r3, r3
    59f0:	2b01      	cmp	r3, #1
    59f2:	dd08      	ble.n	5a06 <__mpa_div_q_r+0xb6>
/home/csx/share/gerrit/optee_os/lib/libmpa/mpa_div.c:350
    59f4:	6a3b      	ldr	r3, [r7, #32]
    59f6:	9300      	str	r3, [sp, #0]
    59f8:	68f8      	ldr	r0, [r7, #12]
    59fa:	68b9      	ldr	r1, [r7, #8]
    59fc:	687a      	ldr	r2, [r7, #4]
    59fe:	683b      	ldr	r3, [r7, #0]
    5a00:	f7ff fc60 	bl	52c4 <__mpa_div_q_r_internal>
    5a04:	e010      	b.n	5a28 <__mpa_div_q_r+0xd8>
/home/csx/share/gerrit/optee_os/lib/libmpa/mpa_div.c:352
    5a06:	683b      	ldr	r3, [r7, #0]
    5a08:	689b      	ldr	r3, [r3, #8]
    5a0a:	68f8      	ldr	r0, [r7, #12]
    5a0c:	68b9      	ldr	r1, [r7, #8]
    5a0e:	687a      	ldr	r2, [r7, #4]
    5a10:	f7ff ff14 	bl	583c <__mpa_div_q_r_internal_word>
    5a14:	e008      	b.n	5a28 <__mpa_div_q_r+0xd8>
/home/csx/share/gerrit/optee_os/lib/libmpa/mpa_div.c:354
    5a16:	68f8      	ldr	r0, [r7, #12]
    5a18:	2100      	movs	r1, #0
    5a1a:	f7ff fb8d 	bl	5138 <mpa_set_word>
/home/csx/share/gerrit/optee_os/lib/libmpa/mpa_div.c:355
    5a1e:	68b8      	ldr	r0, [r7, #8]
    5a20:	6879      	ldr	r1, [r7, #4]
    5a22:	f7fe fdf9 	bl	4618 <mpa_copy>
/home/csx/share/gerrit/optee_os/lib/libmpa/mpa_div.c:356
    5a26:	e026      	b.n	5a76 <__mpa_div_q_r+0x126>
/home/csx/share/gerrit/optee_os/lib/libmpa/mpa_div.c:358
    5a28:	68fb      	ldr	r3, [r7, #12]
    5a2a:	685b      	ldr	r3, [r3, #4]
    5a2c:	2b00      	cmp	r3, #0
    5a2e:	db01      	blt.n	5a34 <__mpa_div_q_r+0xe4>
/home/csx/share/gerrit/optee_os/lib/libmpa/mpa_div.c:358 (discriminator 1)
    5a30:	2201      	movs	r2, #1
    5a32:	e001      	b.n	5a38 <__mpa_div_q_r+0xe8>
/home/csx/share/gerrit/optee_os/lib/libmpa/mpa_div.c:358 (discriminator 2)
    5a34:	f04f 32ff 	mov.w	r2, #4294967295	; 0xffffffff
/home/csx/share/gerrit/optee_os/lib/libmpa/mpa_div.c:358 (discriminator 4)
    5a38:	697b      	ldr	r3, [r7, #20]
    5a3a:	429a      	cmp	r2, r3
    5a3c:	d004      	beq.n	5a48 <__mpa_div_q_r+0xf8>
/home/csx/share/gerrit/optee_os/lib/libmpa/mpa_div.c:358 (discriminator 5)
    5a3e:	68fb      	ldr	r3, [r7, #12]
    5a40:	685b      	ldr	r3, [r3, #4]
    5a42:	425a      	negs	r2, r3
    5a44:	68fb      	ldr	r3, [r7, #12]
    5a46:	605a      	str	r2, [r3, #4]
/home/csx/share/gerrit/optee_os/lib/libmpa/mpa_div.c:359
    5a48:	68bb      	ldr	r3, [r7, #8]
    5a4a:	685b      	ldr	r3, [r3, #4]
    5a4c:	2b00      	cmp	r3, #0
    5a4e:	db01      	blt.n	5a54 <__mpa_div_q_r+0x104>
/home/csx/share/gerrit/optee_os/lib/libmpa/mpa_div.c:359 (discriminator 1)
    5a50:	2201      	movs	r2, #1
    5a52:	e001      	b.n	5a58 <__mpa_div_q_r+0x108>
/home/csx/share/gerrit/optee_os/lib/libmpa/mpa_div.c:359 (discriminator 2)
    5a54:	f04f 32ff 	mov.w	r2, #4294967295	; 0xffffffff
/home/csx/share/gerrit/optee_os/lib/libmpa/mpa_div.c:359 (discriminator 4)
    5a58:	687b      	ldr	r3, [r7, #4]
    5a5a:	685b      	ldr	r3, [r3, #4]
    5a5c:	2b00      	cmp	r3, #0
    5a5e:	db01      	blt.n	5a64 <__mpa_div_q_r+0x114>
/home/csx/share/gerrit/optee_os/lib/libmpa/mpa_div.c:359 (discriminator 5)
    5a60:	2301      	movs	r3, #1
    5a62:	e001      	b.n	5a68 <__mpa_div_q_r+0x118>
/home/csx/share/gerrit/optee_os/lib/libmpa/mpa_div.c:359 (discriminator 6)
    5a64:	f04f 33ff 	mov.w	r3, #4294967295	; 0xffffffff
/home/csx/share/gerrit/optee_os/lib/libmpa/mpa_div.c:359 (discriminator 8)
    5a68:	429a      	cmp	r2, r3
    5a6a:	d004      	beq.n	5a76 <__mpa_div_q_r+0x126>
/home/csx/share/gerrit/optee_os/lib/libmpa/mpa_div.c:359 (discriminator 9)
    5a6c:	68bb      	ldr	r3, [r7, #8]
    5a6e:	685b      	ldr	r3, [r3, #4]
    5a70:	425a      	negs	r2, r3
    5a72:	68bb      	ldr	r3, [r7, #8]
    5a74:	605a      	str	r2, [r3, #4]
/home/csx/share/gerrit/optee_os/lib/libmpa/mpa_div.c:360
    5a76:	3718      	adds	r7, #24
    5a78:	46bd      	mov	sp, r7
    5a7a:	bd80      	pop	{r7, pc}

00005a7c <mpa_div>:
mpa_div():
/home/csx/share/gerrit/optee_os/lib/libmpa/mpa_div.c:379
    5a7c:	e96d 7e02 	strd	r7, lr, [sp, #-8]!
    5a80:	b08a      	sub	sp, #40	; 0x28
    5a82:	af02      	add	r7, sp, #8
    5a84:	60f8      	str	r0, [r7, #12]
    5a86:	60b9      	str	r1, [r7, #8]
    5a88:	607a      	str	r2, [r7, #4]
    5a8a:	603b      	str	r3, [r7, #0]
/home/csx/share/gerrit/optee_os/lib/libmpa/mpa_div.c:386
    5a8c:	68fa      	ldr	r2, [r7, #12]
    5a8e:	687b      	ldr	r3, [r7, #4]
    5a90:	429a      	cmp	r2, r3
    5a92:	d006      	beq.n	5aa2 <mpa_div+0x26>
/home/csx/share/gerrit/optee_os/lib/libmpa/mpa_div.c:386 (discriminator 1)
    5a94:	68fa      	ldr	r2, [r7, #12]
    5a96:	683b      	ldr	r3, [r7, #0]
    5a98:	429a      	cmp	r2, r3
    5a9a:	d002      	beq.n	5aa2 <mpa_div+0x26>
/home/csx/share/gerrit/optee_os/lib/libmpa/mpa_div.c:386 (discriminator 2)
    5a9c:	68fb      	ldr	r3, [r7, #12]
    5a9e:	2b00      	cmp	r3, #0
    5aa0:	d108      	bne.n	5ab4 <mpa_div+0x38>
/home/csx/share/gerrit/optee_os/lib/libmpa/mpa_div.c:387
    5aa2:	f107 0318 	add.w	r3, r7, #24
    5aa6:	4618      	mov	r0, r3
    5aa8:	6ab9      	ldr	r1, [r7, #40]	; 0x28
    5aaa:	f000 fce7 	bl	647c <mpa_alloc_static_temp_var>
/home/csx/share/gerrit/optee_os/lib/libmpa/mpa_div.c:388
    5aae:	2301      	movs	r3, #1
    5ab0:	77fb      	strb	r3, [r7, #31]
    5ab2:	e003      	b.n	5abc <mpa_div+0x40>
/home/csx/share/gerrit/optee_os/lib/libmpa/mpa_div.c:390
    5ab4:	68fb      	ldr	r3, [r7, #12]
    5ab6:	61bb      	str	r3, [r7, #24]
/home/csx/share/gerrit/optee_os/lib/libmpa/mpa_div.c:391
    5ab8:	2300      	movs	r3, #0
    5aba:	77fb      	strb	r3, [r7, #31]
/home/csx/share/gerrit/optee_os/lib/libmpa/mpa_div.c:395
    5abc:	68ba      	ldr	r2, [r7, #8]
    5abe:	687b      	ldr	r3, [r7, #4]
    5ac0:	429a      	cmp	r2, r3
    5ac2:	d006      	beq.n	5ad2 <mpa_div+0x56>
/home/csx/share/gerrit/optee_os/lib/libmpa/mpa_div.c:395 (discriminator 1)
    5ac4:	68ba      	ldr	r2, [r7, #8]
    5ac6:	683b      	ldr	r3, [r7, #0]
    5ac8:	429a      	cmp	r2, r3
    5aca:	d002      	beq.n	5ad2 <mpa_div+0x56>
/home/csx/share/gerrit/optee_os/lib/libmpa/mpa_div.c:395 (discriminator 2)
    5acc:	68bb      	ldr	r3, [r7, #8]
    5ace:	2b00      	cmp	r3, #0
    5ad0:	d108      	bne.n	5ae4 <mpa_div+0x68>
/home/csx/share/gerrit/optee_os/lib/libmpa/mpa_div.c:396
    5ad2:	f107 0314 	add.w	r3, r7, #20
    5ad6:	4618      	mov	r0, r3
    5ad8:	6ab9      	ldr	r1, [r7, #40]	; 0x28
    5ada:	f000 fccf 	bl	647c <mpa_alloc_static_temp_var>
/home/csx/share/gerrit/optee_os/lib/libmpa/mpa_div.c:397
    5ade:	2301      	movs	r3, #1
    5ae0:	77bb      	strb	r3, [r7, #30]
    5ae2:	e003      	b.n	5aec <mpa_div+0x70>
/home/csx/share/gerrit/optee_os/lib/libmpa/mpa_div.c:399
    5ae4:	68bb      	ldr	r3, [r7, #8]
    5ae6:	617b      	str	r3, [r7, #20]
/home/csx/share/gerrit/optee_os/lib/libmpa/mpa_div.c:400
    5ae8:	2300      	movs	r3, #0
    5aea:	77bb      	strb	r3, [r7, #30]
/home/csx/share/gerrit/optee_os/lib/libmpa/mpa_div.c:403
    5aec:	69b9      	ldr	r1, [r7, #24]
    5aee:	697a      	ldr	r2, [r7, #20]
    5af0:	6abb      	ldr	r3, [r7, #40]	; 0x28
    5af2:	9300      	str	r3, [sp, #0]
    5af4:	4608      	mov	r0, r1
    5af6:	4611      	mov	r1, r2
    5af8:	687a      	ldr	r2, [r7, #4]
    5afa:	683b      	ldr	r3, [r7, #0]
    5afc:	f7ff ff28 	bl	5950 <__mpa_div_q_r>
/home/csx/share/gerrit/optee_os/lib/libmpa/mpa_div.c:405
    5b00:	68fb      	ldr	r3, [r7, #12]
    5b02:	2b00      	cmp	r3, #0
    5b04:	d004      	beq.n	5b10 <mpa_div+0x94>
/home/csx/share/gerrit/optee_os/lib/libmpa/mpa_div.c:406
    5b06:	69bb      	ldr	r3, [r7, #24]
    5b08:	68f8      	ldr	r0, [r7, #12]
    5b0a:	4619      	mov	r1, r3
    5b0c:	f7fe fd84 	bl	4618 <mpa_copy>
/home/csx/share/gerrit/optee_os/lib/libmpa/mpa_div.c:407
    5b10:	7ffb      	ldrb	r3, [r7, #31]
    5b12:	2b00      	cmp	r3, #0
    5b14:	d005      	beq.n	5b22 <mpa_div+0xa6>
/home/csx/share/gerrit/optee_os/lib/libmpa/mpa_div.c:408
    5b16:	f107 0318 	add.w	r3, r7, #24
    5b1a:	4618      	mov	r0, r3
    5b1c:	6ab9      	ldr	r1, [r7, #40]	; 0x28
    5b1e:	f000 fcbf 	bl	64a0 <mpa_free_static_temp_var>
/home/csx/share/gerrit/optee_os/lib/libmpa/mpa_div.c:409
    5b22:	68bb      	ldr	r3, [r7, #8]
    5b24:	2b00      	cmp	r3, #0
    5b26:	d004      	beq.n	5b32 <mpa_div+0xb6>
/home/csx/share/gerrit/optee_os/lib/libmpa/mpa_div.c:410
    5b28:	697b      	ldr	r3, [r7, #20]
    5b2a:	68b8      	ldr	r0, [r7, #8]
    5b2c:	4619      	mov	r1, r3
    5b2e:	f7fe fd73 	bl	4618 <mpa_copy>
/home/csx/share/gerrit/optee_os/lib/libmpa/mpa_div.c:411
    5b32:	7fbb      	ldrb	r3, [r7, #30]
    5b34:	2b00      	cmp	r3, #0
    5b36:	d005      	beq.n	5b44 <mpa_div+0xc8>
/home/csx/share/gerrit/optee_os/lib/libmpa/mpa_div.c:412
    5b38:	f107 0314 	add.w	r3, r7, #20
    5b3c:	4618      	mov	r0, r3
    5b3e:	6ab9      	ldr	r1, [r7, #40]	; 0x28
    5b40:	f000 fcae 	bl	64a0 <mpa_free_static_temp_var>
/home/csx/share/gerrit/optee_os/lib/libmpa/mpa_div.c:413
    5b44:	3720      	adds	r7, #32
    5b46:	46bd      	mov	sp, r7
    5b48:	bd80      	pop	{r7, pc}
    5b4a:	bf00      	nop

00005b4c <__mpa_divby2>:
__mpa_divby2():
/home/csx/share/gerrit/optee_os/lib/libmpa/mpa_gcd.c:41
    5b4c:	f84d 7d04 	str.w	r7, [sp, #-4]!
    5b50:	b087      	sub	sp, #28
    5b52:	af00      	add	r7, sp, #0
    5b54:	6078      	str	r0, [r7, #4]
/home/csx/share/gerrit/optee_os/lib/libmpa/mpa_gcd.c:47
    5b56:	687b      	ldr	r3, [r7, #4]
    5b58:	685b      	ldr	r3, [r3, #4]
    5b5a:	2b00      	cmp	r3, #0
    5b5c:	d100      	bne.n	5b60 <__mpa_divby2+0x14>
/home/csx/share/gerrit/optee_os/lib/libmpa/mpa_gcd.c:48
    5b5e:	e057      	b.n	5c10 <__mpa_divby2+0xc4>
/home/csx/share/gerrit/optee_os/lib/libmpa/mpa_gcd.c:50
    5b60:	687b      	ldr	r3, [r7, #4]
    5b62:	685b      	ldr	r3, [r3, #4]
    5b64:	2b00      	cmp	r3, #0
    5b66:	bfb8      	it	lt
    5b68:	425b      	neglt	r3, r3
    5b6a:	1e5a      	subs	r2, r3, #1
    5b6c:	687b      	ldr	r3, [r7, #4]
    5b6e:	3202      	adds	r2, #2
    5b70:	f853 3022 	ldr.w	r3, [r3, r2, lsl #2]
    5b74:	085b      	lsrs	r3, r3, #1
    5b76:	2b00      	cmp	r3, #0
    5b78:	bf0c      	ite	eq
    5b7a:	2301      	moveq	r3, #1
    5b7c:	2300      	movne	r3, #0
    5b7e:	b2db      	uxtb	r3, r3
    5b80:	613b      	str	r3, [r7, #16]
/home/csx/share/gerrit/optee_os/lib/libmpa/mpa_gcd.c:52
    5b82:	687b      	ldr	r3, [r7, #4]
    5b84:	689b      	ldr	r3, [r3, #8]
    5b86:	085a      	lsrs	r2, r3, #1
    5b88:	687b      	ldr	r3, [r7, #4]
    5b8a:	609a      	str	r2, [r3, #8]
/home/csx/share/gerrit/optee_os/lib/libmpa/mpa_gcd.c:53
    5b8c:	2301      	movs	r3, #1
    5b8e:	617b      	str	r3, [r7, #20]
    5b90:	e024      	b.n	5bdc <__mpa_divby2+0x90>
/home/csx/share/gerrit/optee_os/lib/libmpa/mpa_gcd.c:54 (discriminator 3)
    5b92:	687b      	ldr	r3, [r7, #4]
    5b94:	697a      	ldr	r2, [r7, #20]
    5b96:	3202      	adds	r2, #2
    5b98:	f853 3022 	ldr.w	r3, [r3, r2, lsl #2]
    5b9c:	f003 0301 	and.w	r3, r3, #1
    5ba0:	60fb      	str	r3, [r7, #12]
/home/csx/share/gerrit/optee_os/lib/libmpa/mpa_gcd.c:55 (discriminator 3)
    5ba2:	687b      	ldr	r3, [r7, #4]
    5ba4:	697a      	ldr	r2, [r7, #20]
    5ba6:	3202      	adds	r2, #2
    5ba8:	f853 3022 	ldr.w	r3, [r3, r2, lsl #2]
    5bac:	0859      	lsrs	r1, r3, #1
    5bae:	687b      	ldr	r3, [r7, #4]
    5bb0:	697a      	ldr	r2, [r7, #20]
    5bb2:	3202      	adds	r2, #2
    5bb4:	f843 1022 	str.w	r1, [r3, r2, lsl #2]
/home/csx/share/gerrit/optee_os/lib/libmpa/mpa_gcd.c:56 (discriminator 3)
    5bb8:	697b      	ldr	r3, [r7, #20]
    5bba:	1e5a      	subs	r2, r3, #1
    5bbc:	697b      	ldr	r3, [r7, #20]
    5bbe:	1e59      	subs	r1, r3, #1
    5bc0:	687b      	ldr	r3, [r7, #4]
    5bc2:	3102      	adds	r1, #2
    5bc4:	f853 1021 	ldr.w	r1, [r3, r1, lsl #2]
    5bc8:	68fb      	ldr	r3, [r7, #12]
    5bca:	07db      	lsls	r3, r3, #31
    5bcc:	4059      	eors	r1, r3
    5bce:	687b      	ldr	r3, [r7, #4]
    5bd0:	3202      	adds	r2, #2
    5bd2:	f843 1022 	str.w	r1, [r3, r2, lsl #2]
/home/csx/share/gerrit/optee_os/lib/libmpa/mpa_gcd.c:53 (discriminator 3)
    5bd6:	697b      	ldr	r3, [r7, #20]
    5bd8:	3301      	adds	r3, #1
    5bda:	617b      	str	r3, [r7, #20]
/home/csx/share/gerrit/optee_os/lib/libmpa/mpa_gcd.c:53 (discriminator 1)
    5bdc:	687b      	ldr	r3, [r7, #4]
    5bde:	685b      	ldr	r3, [r3, #4]
    5be0:	2b00      	cmp	r3, #0
    5be2:	bfb8      	it	lt
    5be4:	425b      	neglt	r3, r3
    5be6:	461a      	mov	r2, r3
    5be8:	697b      	ldr	r3, [r7, #20]
    5bea:	429a      	cmp	r2, r3
    5bec:	d8d1      	bhi.n	5b92 <__mpa_divby2+0x46>
/home/csx/share/gerrit/optee_os/lib/libmpa/mpa_gcd.c:59
    5bee:	687b      	ldr	r3, [r7, #4]
    5bf0:	685b      	ldr	r3, [r3, #4]
    5bf2:	2b00      	cmp	r3, #0
    5bf4:	da06      	bge.n	5c04 <__mpa_divby2+0xb8>
/home/csx/share/gerrit/optee_os/lib/libmpa/mpa_gcd.c:60
    5bf6:	687b      	ldr	r3, [r7, #4]
    5bf8:	685a      	ldr	r2, [r3, #4]
    5bfa:	693b      	ldr	r3, [r7, #16]
    5bfc:	441a      	add	r2, r3
    5bfe:	687b      	ldr	r3, [r7, #4]
    5c00:	605a      	str	r2, [r3, #4]
    5c02:	e005      	b.n	5c10 <__mpa_divby2+0xc4>
/home/csx/share/gerrit/optee_os/lib/libmpa/mpa_gcd.c:62
    5c04:	687b      	ldr	r3, [r7, #4]
    5c06:	685a      	ldr	r2, [r3, #4]
    5c08:	693b      	ldr	r3, [r7, #16]
    5c0a:	1ad2      	subs	r2, r2, r3
    5c0c:	687b      	ldr	r3, [r7, #4]
    5c0e:	605a      	str	r2, [r3, #4]
/home/csx/share/gerrit/optee_os/lib/libmpa/mpa_gcd.c:63
    5c10:	371c      	adds	r7, #28
    5c12:	46bd      	mov	sp, r7
    5c14:	f85d 7b04 	ldr.w	r7, [sp], #4
    5c18:	4770      	bx	lr
    5c1a:	bf00      	nop

00005c1c <__mpa_egcd>:
__mpa_egcd():
/home/csx/share/gerrit/optee_os/lib/libmpa/mpa_gcd.c:116
    5c1c:	e96d 7e02 	strd	r7, lr, [sp, #-8]!
    5c20:	b08c      	sub	sp, #48	; 0x30
    5c22:	af00      	add	r7, sp, #0
    5c24:	60f8      	str	r0, [r7, #12]
    5c26:	60b9      	str	r1, [r7, #8]
    5c28:	607a      	str	r2, [r7, #4]
    5c2a:	603b      	str	r3, [r7, #0]
/home/csx/share/gerrit/optee_os/lib/libmpa/mpa_gcd.c:127
    5c2c:	6bbb      	ldr	r3, [r7, #56]	; 0x38
    5c2e:	685b      	ldr	r3, [r3, #4]
    5c30:	2b00      	cmp	r3, #0
    5c32:	d112      	bne.n	5c5a <__mpa_egcd+0x3e>
/home/csx/share/gerrit/optee_os/lib/libmpa/mpa_gcd.c:128
    5c34:	68bb      	ldr	r3, [r7, #8]
    5c36:	2b00      	cmp	r3, #0
    5c38:	d003      	beq.n	5c42 <__mpa_egcd+0x26>
/home/csx/share/gerrit/optee_os/lib/libmpa/mpa_gcd.c:129
    5c3a:	68b8      	ldr	r0, [r7, #8]
    5c3c:	2101      	movs	r1, #1
    5c3e:	f7ff fa7b 	bl	5138 <mpa_set_word>
/home/csx/share/gerrit/optee_os/lib/libmpa/mpa_gcd.c:130
    5c42:	687b      	ldr	r3, [r7, #4]
    5c44:	2b00      	cmp	r3, #0
    5c46:	d003      	beq.n	5c50 <__mpa_egcd+0x34>
/home/csx/share/gerrit/optee_os/lib/libmpa/mpa_gcd.c:131
    5c48:	6878      	ldr	r0, [r7, #4]
    5c4a:	2100      	movs	r1, #0
    5c4c:	f7ff fa74 	bl	5138 <mpa_set_word>
/home/csx/share/gerrit/optee_os/lib/libmpa/mpa_gcd.c:132
    5c50:	68f8      	ldr	r0, [r7, #12]
    5c52:	6839      	ldr	r1, [r7, #0]
    5c54:	f7fe fce0 	bl	4618 <mpa_copy>
    5c58:	e155      	b.n	5f06 <__mpa_egcd+0x2ea>
/home/csx/share/gerrit/optee_os/lib/libmpa/mpa_gcd.c:135
    5c5a:	f107 0318 	add.w	r3, r7, #24
    5c5e:	4618      	mov	r0, r3
    5c60:	6bf9      	ldr	r1, [r7, #60]	; 0x3c
    5c62:	f000 fc0b 	bl	647c <mpa_alloc_static_temp_var>
/home/csx/share/gerrit/optee_os/lib/libmpa/mpa_gcd.c:136
    5c66:	69bb      	ldr	r3, [r7, #24]
    5c68:	4618      	mov	r0, r3
    5c6a:	6839      	ldr	r1, [r7, #0]
    5c6c:	f7fe fcd4 	bl	4618 <mpa_copy>
/home/csx/share/gerrit/optee_os/lib/libmpa/mpa_gcd.c:137
    5c70:	f107 0314 	add.w	r3, r7, #20
    5c74:	4618      	mov	r0, r3
    5c76:	6bf9      	ldr	r1, [r7, #60]	; 0x3c
    5c78:	f000 fc00 	bl	647c <mpa_alloc_static_temp_var>
/home/csx/share/gerrit/optee_os/lib/libmpa/mpa_gcd.c:138
    5c7c:	697b      	ldr	r3, [r7, #20]
    5c7e:	4618      	mov	r0, r3
    5c80:	6bb9      	ldr	r1, [r7, #56]	; 0x38
    5c82:	f7fe fcc9 	bl	4618 <mpa_copy>
/home/csx/share/gerrit/optee_os/lib/libmpa/mpa_gcd.c:140
    5c86:	2300      	movs	r3, #0
    5c88:	62fb      	str	r3, [r7, #44]	; 0x2c
/home/csx/share/gerrit/optee_os/lib/libmpa/mpa_gcd.c:141
    5c8a:	e00a      	b.n	5ca2 <__mpa_egcd+0x86>
/home/csx/share/gerrit/optee_os/lib/libmpa/mpa_gcd.c:142
    5c8c:	6afb      	ldr	r3, [r7, #44]	; 0x2c
    5c8e:	3301      	adds	r3, #1
    5c90:	62fb      	str	r3, [r7, #44]	; 0x2c
/home/csx/share/gerrit/optee_os/lib/libmpa/mpa_gcd.c:143
    5c92:	69bb      	ldr	r3, [r7, #24]
    5c94:	4618      	mov	r0, r3
    5c96:	f7ff ff59 	bl	5b4c <__mpa_divby2>
/home/csx/share/gerrit/optee_os/lib/libmpa/mpa_gcd.c:144
    5c9a:	697b      	ldr	r3, [r7, #20]
    5c9c:	4618      	mov	r0, r3
    5c9e:	f7ff ff55 	bl	5b4c <__mpa_divby2>
/home/csx/share/gerrit/optee_os/lib/libmpa/mpa_gcd.c:141
    5ca2:	69bb      	ldr	r3, [r7, #24]
    5ca4:	4618      	mov	r0, r3
    5ca6:	f7fe fd71 	bl	478c <mpa_parity>
    5caa:	4603      	mov	r3, r0
    5cac:	2b00      	cmp	r3, #0
    5cae:	d106      	bne.n	5cbe <__mpa_egcd+0xa2>
/home/csx/share/gerrit/optee_os/lib/libmpa/mpa_gcd.c:141 (discriminator 1)
    5cb0:	697b      	ldr	r3, [r7, #20]
    5cb2:	4618      	mov	r0, r3
    5cb4:	f7fe fd6a 	bl	478c <mpa_parity>
    5cb8:	4603      	mov	r3, r0
    5cba:	2b00      	cmp	r3, #0
    5cbc:	d0e6      	beq.n	5c8c <__mpa_egcd+0x70>
/home/csx/share/gerrit/optee_os/lib/libmpa/mpa_gcd.c:147
    5cbe:	f107 0310 	add.w	r3, r7, #16
    5cc2:	4618      	mov	r0, r3
    5cc4:	6bf9      	ldr	r1, [r7, #60]	; 0x3c
    5cc6:	f000 fbd9 	bl	647c <mpa_alloc_static_temp_var>
/home/csx/share/gerrit/optee_os/lib/libmpa/mpa_gcd.c:148
    5cca:	693a      	ldr	r2, [r7, #16]
    5ccc:	69bb      	ldr	r3, [r7, #24]
    5cce:	4610      	mov	r0, r2
    5cd0:	4619      	mov	r1, r3
    5cd2:	f7fe fca1 	bl	4618 <mpa_copy>
/home/csx/share/gerrit/optee_os/lib/libmpa/mpa_gcd.c:149
    5cd6:	697b      	ldr	r3, [r7, #20]
    5cd8:	68f8      	ldr	r0, [r7, #12]
    5cda:	4619      	mov	r1, r3
    5cdc:	f7fe fc9c 	bl	4618 <mpa_copy>
/home/csx/share/gerrit/optee_os/lib/libmpa/mpa_gcd.c:150
    5ce0:	f107 0328 	add.w	r3, r7, #40	; 0x28
    5ce4:	4618      	mov	r0, r3
    5ce6:	6bf9      	ldr	r1, [r7, #60]	; 0x3c
    5ce8:	f000 fbc8 	bl	647c <mpa_alloc_static_temp_var>
/home/csx/share/gerrit/optee_os/lib/libmpa/mpa_gcd.c:151
    5cec:	6abb      	ldr	r3, [r7, #40]	; 0x28
    5cee:	4618      	mov	r0, r3
    5cf0:	2101      	movs	r1, #1
    5cf2:	f7ff fa21 	bl	5138 <mpa_set_word>
/home/csx/share/gerrit/optee_os/lib/libmpa/mpa_gcd.c:152
    5cf6:	f107 0324 	add.w	r3, r7, #36	; 0x24
    5cfa:	4618      	mov	r0, r3
    5cfc:	6bf9      	ldr	r1, [r7, #60]	; 0x3c
    5cfe:	f000 fbbd 	bl	647c <mpa_alloc_static_temp_var>
/home/csx/share/gerrit/optee_os/lib/libmpa/mpa_gcd.c:153
    5d02:	6a7b      	ldr	r3, [r7, #36]	; 0x24
    5d04:	4618      	mov	r0, r3
    5d06:	2100      	movs	r1, #0
    5d08:	f7ff fa16 	bl	5138 <mpa_set_word>
/home/csx/share/gerrit/optee_os/lib/libmpa/mpa_gcd.c:154
    5d0c:	f107 0320 	add.w	r3, r7, #32
    5d10:	4618      	mov	r0, r3
    5d12:	6bf9      	ldr	r1, [r7, #60]	; 0x3c
    5d14:	f000 fbb2 	bl	647c <mpa_alloc_static_temp_var>
/home/csx/share/gerrit/optee_os/lib/libmpa/mpa_gcd.c:155
    5d18:	6a3b      	ldr	r3, [r7, #32]
    5d1a:	4618      	mov	r0, r3
    5d1c:	2100      	movs	r1, #0
    5d1e:	f7ff fa0b 	bl	5138 <mpa_set_word>
/home/csx/share/gerrit/optee_os/lib/libmpa/mpa_gcd.c:156
    5d22:	f107 031c 	add.w	r3, r7, #28
    5d26:	4618      	mov	r0, r3
    5d28:	6bf9      	ldr	r1, [r7, #60]	; 0x3c
    5d2a:	f000 fba7 	bl	647c <mpa_alloc_static_temp_var>
/home/csx/share/gerrit/optee_os/lib/libmpa/mpa_gcd.c:157
    5d2e:	69fb      	ldr	r3, [r7, #28]
    5d30:	4618      	mov	r0, r3
    5d32:	2101      	movs	r1, #1
    5d34:	f7ff fa00 	bl	5138 <mpa_set_word>
/home/csx/share/gerrit/optee_os/lib/libmpa/mpa_gcd.c:159
    5d38:	e0a1      	b.n	5e7e <__mpa_egcd+0x262>
/home/csx/share/gerrit/optee_os/lib/libmpa/mpa_gcd.c:160
    5d3a:	e02b      	b.n	5d94 <__mpa_egcd+0x178>
/home/csx/share/gerrit/optee_os/lib/libmpa/mpa_gcd.c:161
    5d3c:	693b      	ldr	r3, [r7, #16]
    5d3e:	4618      	mov	r0, r3
    5d40:	f7ff ff04 	bl	5b4c <__mpa_divby2>
/home/csx/share/gerrit/optee_os/lib/libmpa/mpa_gcd.c:162
    5d44:	6abb      	ldr	r3, [r7, #40]	; 0x28
    5d46:	4618      	mov	r0, r3
    5d48:	f7fe fd20 	bl	478c <mpa_parity>
    5d4c:	4603      	mov	r3, r0
    5d4e:	2b01      	cmp	r3, #1
    5d50:	d006      	beq.n	5d60 <__mpa_egcd+0x144>
/home/csx/share/gerrit/optee_os/lib/libmpa/mpa_gcd.c:162 (discriminator 1)
    5d52:	6a7b      	ldr	r3, [r7, #36]	; 0x24
    5d54:	4618      	mov	r0, r3
    5d56:	f7fe fd19 	bl	478c <mpa_parity>
    5d5a:	4603      	mov	r3, r0
    5d5c:	2b01      	cmp	r3, #1
    5d5e:	d111      	bne.n	5d84 <__mpa_egcd+0x168>
/home/csx/share/gerrit/optee_os/lib/libmpa/mpa_gcd.c:163
    5d60:	6ab9      	ldr	r1, [r7, #40]	; 0x28
    5d62:	6aba      	ldr	r2, [r7, #40]	; 0x28
    5d64:	697b      	ldr	r3, [r7, #20]
    5d66:	4608      	mov	r0, r1
    5d68:	4611      	mov	r1, r2
    5d6a:	461a      	mov	r2, r3
    5d6c:	6bfb      	ldr	r3, [r7, #60]	; 0x3c
    5d6e:	f001 fabb 	bl	72e8 <mpa_add>
/home/csx/share/gerrit/optee_os/lib/libmpa/mpa_gcd.c:164
    5d72:	6a79      	ldr	r1, [r7, #36]	; 0x24
    5d74:	6a7a      	ldr	r2, [r7, #36]	; 0x24
    5d76:	69bb      	ldr	r3, [r7, #24]
    5d78:	4608      	mov	r0, r1
    5d7a:	4611      	mov	r1, r2
    5d7c:	461a      	mov	r2, r3
    5d7e:	6bfb      	ldr	r3, [r7, #60]	; 0x3c
    5d80:	f001 fb92 	bl	74a8 <mpa_sub>
/home/csx/share/gerrit/optee_os/lib/libmpa/mpa_gcd.c:166
    5d84:	6abb      	ldr	r3, [r7, #40]	; 0x28
    5d86:	4618      	mov	r0, r3
    5d88:	f7ff fee0 	bl	5b4c <__mpa_divby2>
/home/csx/share/gerrit/optee_os/lib/libmpa/mpa_gcd.c:167
    5d8c:	6a7b      	ldr	r3, [r7, #36]	; 0x24
    5d8e:	4618      	mov	r0, r3
    5d90:	f7ff fedc 	bl	5b4c <__mpa_divby2>
/home/csx/share/gerrit/optee_os/lib/libmpa/mpa_gcd.c:160
    5d94:	693b      	ldr	r3, [r7, #16]
    5d96:	4618      	mov	r0, r3
    5d98:	f7fe fcf8 	bl	478c <mpa_parity>
    5d9c:	4603      	mov	r3, r0
    5d9e:	2b00      	cmp	r3, #0
    5da0:	d0cc      	beq.n	5d3c <__mpa_egcd+0x120>
/home/csx/share/gerrit/optee_os/lib/libmpa/mpa_gcd.c:170
    5da2:	e02a      	b.n	5dfa <__mpa_egcd+0x1de>
/home/csx/share/gerrit/optee_os/lib/libmpa/mpa_gcd.c:171
    5da4:	68f8      	ldr	r0, [r7, #12]
    5da6:	f7ff fed1 	bl	5b4c <__mpa_divby2>
/home/csx/share/gerrit/optee_os/lib/libmpa/mpa_gcd.c:172
    5daa:	6a3b      	ldr	r3, [r7, #32]
    5dac:	4618      	mov	r0, r3
    5dae:	f7fe fced 	bl	478c <mpa_parity>
    5db2:	4603      	mov	r3, r0
    5db4:	2b01      	cmp	r3, #1
    5db6:	d006      	beq.n	5dc6 <__mpa_egcd+0x1aa>
/home/csx/share/gerrit/optee_os/lib/libmpa/mpa_gcd.c:172 (discriminator 1)
    5db8:	69fb      	ldr	r3, [r7, #28]
    5dba:	4618      	mov	r0, r3
    5dbc:	f7fe fce6 	bl	478c <mpa_parity>
    5dc0:	4603      	mov	r3, r0
    5dc2:	2b01      	cmp	r3, #1
    5dc4:	d111      	bne.n	5dea <__mpa_egcd+0x1ce>
/home/csx/share/gerrit/optee_os/lib/libmpa/mpa_gcd.c:173
    5dc6:	6a39      	ldr	r1, [r7, #32]
    5dc8:	6a3a      	ldr	r2, [r7, #32]
    5dca:	697b      	ldr	r3, [r7, #20]
    5dcc:	4608      	mov	r0, r1
    5dce:	4611      	mov	r1, r2
    5dd0:	461a      	mov	r2, r3
    5dd2:	6bfb      	ldr	r3, [r7, #60]	; 0x3c
    5dd4:	f001 fa88 	bl	72e8 <mpa_add>
/home/csx/share/gerrit/optee_os/lib/libmpa/mpa_gcd.c:174
    5dd8:	69f9      	ldr	r1, [r7, #28]
    5dda:	69fa      	ldr	r2, [r7, #28]
    5ddc:	69bb      	ldr	r3, [r7, #24]
    5dde:	4608      	mov	r0, r1
    5de0:	4611      	mov	r1, r2
    5de2:	461a      	mov	r2, r3
    5de4:	6bfb      	ldr	r3, [r7, #60]	; 0x3c
    5de6:	f001 fb5f 	bl	74a8 <mpa_sub>
/home/csx/share/gerrit/optee_os/lib/libmpa/mpa_gcd.c:176
    5dea:	6a3b      	ldr	r3, [r7, #32]
    5dec:	4618      	mov	r0, r3
    5dee:	f7ff fead 	bl	5b4c <__mpa_divby2>
/home/csx/share/gerrit/optee_os/lib/libmpa/mpa_gcd.c:177
    5df2:	69fb      	ldr	r3, [r7, #28]
    5df4:	4618      	mov	r0, r3
    5df6:	f7ff fea9 	bl	5b4c <__mpa_divby2>
/home/csx/share/gerrit/optee_os/lib/libmpa/mpa_gcd.c:170
    5dfa:	68f8      	ldr	r0, [r7, #12]
    5dfc:	f7fe fcc6 	bl	478c <mpa_parity>
    5e00:	4603      	mov	r3, r0
    5e02:	2b00      	cmp	r3, #0
    5e04:	d0ce      	beq.n	5da4 <__mpa_egcd+0x188>
/home/csx/share/gerrit/optee_os/lib/libmpa/mpa_gcd.c:180
    5e06:	693b      	ldr	r3, [r7, #16]
    5e08:	4618      	mov	r0, r3
    5e0a:	68f9      	ldr	r1, [r7, #12]
    5e0c:	f001 fe1e 	bl	7a4c <mpa_cmp>
    5e10:	4603      	mov	r3, r0
    5e12:	2b00      	cmp	r3, #0
    5e14:	db1a      	blt.n	5e4c <__mpa_egcd+0x230>
/home/csx/share/gerrit/optee_os/lib/libmpa/mpa_gcd.c:181
    5e16:	693a      	ldr	r2, [r7, #16]
    5e18:	693b      	ldr	r3, [r7, #16]
    5e1a:	4610      	mov	r0, r2
    5e1c:	4619      	mov	r1, r3
    5e1e:	68fa      	ldr	r2, [r7, #12]
    5e20:	6bfb      	ldr	r3, [r7, #60]	; 0x3c
    5e22:	f001 fb41 	bl	74a8 <mpa_sub>
/home/csx/share/gerrit/optee_os/lib/libmpa/mpa_gcd.c:182
    5e26:	6ab9      	ldr	r1, [r7, #40]	; 0x28
    5e28:	6aba      	ldr	r2, [r7, #40]	; 0x28
    5e2a:	6a3b      	ldr	r3, [r7, #32]
    5e2c:	4608      	mov	r0, r1
    5e2e:	4611      	mov	r1, r2
    5e30:	461a      	mov	r2, r3
    5e32:	6bfb      	ldr	r3, [r7, #60]	; 0x3c
    5e34:	f001 fb38 	bl	74a8 <mpa_sub>
/home/csx/share/gerrit/optee_os/lib/libmpa/mpa_gcd.c:183
    5e38:	6a79      	ldr	r1, [r7, #36]	; 0x24
    5e3a:	6a7a      	ldr	r2, [r7, #36]	; 0x24
    5e3c:	69fb      	ldr	r3, [r7, #28]
    5e3e:	4608      	mov	r0, r1
    5e40:	4611      	mov	r1, r2
    5e42:	461a      	mov	r2, r3
    5e44:	6bfb      	ldr	r3, [r7, #60]	; 0x3c
    5e46:	f001 fb2f 	bl	74a8 <mpa_sub>
    5e4a:	e018      	b.n	5e7e <__mpa_egcd+0x262>
/home/csx/share/gerrit/optee_os/lib/libmpa/mpa_gcd.c:185
    5e4c:	693b      	ldr	r3, [r7, #16]
    5e4e:	68f8      	ldr	r0, [r7, #12]
    5e50:	68f9      	ldr	r1, [r7, #12]
    5e52:	461a      	mov	r2, r3
    5e54:	6bfb      	ldr	r3, [r7, #60]	; 0x3c
    5e56:	f001 fb27 	bl	74a8 <mpa_sub>
/home/csx/share/gerrit/optee_os/lib/libmpa/mpa_gcd.c:186
    5e5a:	6a39      	ldr	r1, [r7, #32]
    5e5c:	6a3a      	ldr	r2, [r7, #32]
    5e5e:	6abb      	ldr	r3, [r7, #40]	; 0x28
    5e60:	4608      	mov	r0, r1
    5e62:	4611      	mov	r1, r2
    5e64:	461a      	mov	r2, r3
    5e66:	6bfb      	ldr	r3, [r7, #60]	; 0x3c
    5e68:	f001 fb1e 	bl	74a8 <mpa_sub>
/home/csx/share/gerrit/optee_os/lib/libmpa/mpa_gcd.c:187
    5e6c:	69f9      	ldr	r1, [r7, #28]
    5e6e:	69fa      	ldr	r2, [r7, #28]
    5e70:	6a7b      	ldr	r3, [r7, #36]	; 0x24
    5e72:	4608      	mov	r0, r1
    5e74:	4611      	mov	r1, r2
    5e76:	461a      	mov	r2, r3
    5e78:	6bfb      	ldr	r3, [r7, #60]	; 0x3c
    5e7a:	f001 fb15 	bl	74a8 <mpa_sub>
/home/csx/share/gerrit/optee_os/lib/libmpa/mpa_gcd.c:159
    5e7e:	693b      	ldr	r3, [r7, #16]
    5e80:	685b      	ldr	r3, [r3, #4]
    5e82:	2b00      	cmp	r3, #0
    5e84:	f47f af59 	bne.w	5d3a <__mpa_egcd+0x11e>
/home/csx/share/gerrit/optee_os/lib/libmpa/mpa_gcd.c:192
    5e88:	68bb      	ldr	r3, [r7, #8]
    5e8a:	2b00      	cmp	r3, #0
    5e8c:	d004      	beq.n	5e98 <__mpa_egcd+0x27c>
/home/csx/share/gerrit/optee_os/lib/libmpa/mpa_gcd.c:193
    5e8e:	6a3b      	ldr	r3, [r7, #32]
    5e90:	68b8      	ldr	r0, [r7, #8]
    5e92:	4619      	mov	r1, r3
    5e94:	f7fe fbc0 	bl	4618 <mpa_copy>
/home/csx/share/gerrit/optee_os/lib/libmpa/mpa_gcd.c:194
    5e98:	687b      	ldr	r3, [r7, #4]
    5e9a:	2b00      	cmp	r3, #0
    5e9c:	d004      	beq.n	5ea8 <__mpa_egcd+0x28c>
/home/csx/share/gerrit/optee_os/lib/libmpa/mpa_gcd.c:195
    5e9e:	69fb      	ldr	r3, [r7, #28]
    5ea0:	6878      	ldr	r0, [r7, #4]
    5ea2:	4619      	mov	r1, r3
    5ea4:	f7fe fbb8 	bl	4618 <mpa_copy>
/home/csx/share/gerrit/optee_os/lib/libmpa/mpa_gcd.c:196
    5ea8:	68f8      	ldr	r0, [r7, #12]
    5eaa:	68f9      	ldr	r1, [r7, #12]
    5eac:	6afa      	ldr	r2, [r7, #44]	; 0x2c
    5eae:	f000 fe77 	bl	6ba0 <mpa_shift_left>
/home/csx/share/gerrit/optee_os/lib/libmpa/mpa_gcd.c:198
    5eb2:	f107 0328 	add.w	r3, r7, #40	; 0x28
    5eb6:	4618      	mov	r0, r3
    5eb8:	6bf9      	ldr	r1, [r7, #60]	; 0x3c
    5eba:	f000 faf1 	bl	64a0 <mpa_free_static_temp_var>
/home/csx/share/gerrit/optee_os/lib/libmpa/mpa_gcd.c:199
    5ebe:	f107 0324 	add.w	r3, r7, #36	; 0x24
    5ec2:	4618      	mov	r0, r3
    5ec4:	6bf9      	ldr	r1, [r7, #60]	; 0x3c
    5ec6:	f000 faeb 	bl	64a0 <mpa_free_static_temp_var>
/home/csx/share/gerrit/optee_os/lib/libmpa/mpa_gcd.c:200
    5eca:	f107 0320 	add.w	r3, r7, #32
    5ece:	4618      	mov	r0, r3
    5ed0:	6bf9      	ldr	r1, [r7, #60]	; 0x3c
    5ed2:	f000 fae5 	bl	64a0 <mpa_free_static_temp_var>
/home/csx/share/gerrit/optee_os/lib/libmpa/mpa_gcd.c:201
    5ed6:	f107 031c 	add.w	r3, r7, #28
    5eda:	4618      	mov	r0, r3
    5edc:	6bf9      	ldr	r1, [r7, #60]	; 0x3c
    5ede:	f000 fadf 	bl	64a0 <mpa_free_static_temp_var>
/home/csx/share/gerrit/optee_os/lib/libmpa/mpa_gcd.c:202
    5ee2:	f107 0318 	add.w	r3, r7, #24
    5ee6:	4618      	mov	r0, r3
    5ee8:	6bf9      	ldr	r1, [r7, #60]	; 0x3c
    5eea:	f000 fad9 	bl	64a0 <mpa_free_static_temp_var>
/home/csx/share/gerrit/optee_os/lib/libmpa/mpa_gcd.c:203
    5eee:	f107 0314 	add.w	r3, r7, #20
    5ef2:	4618      	mov	r0, r3
    5ef4:	6bf9      	ldr	r1, [r7, #60]	; 0x3c
    5ef6:	f000 fad3 	bl	64a0 <mpa_free_static_temp_var>
/home/csx/share/gerrit/optee_os/lib/libmpa/mpa_gcd.c:204
    5efa:	f107 0310 	add.w	r3, r7, #16
    5efe:	4618      	mov	r0, r3
    5f00:	6bf9      	ldr	r1, [r7, #60]	; 0x3c
    5f02:	f000 facd 	bl	64a0 <mpa_free_static_temp_var>
/home/csx/share/gerrit/optee_os/lib/libmpa/mpa_gcd.c:205
    5f06:	3730      	adds	r7, #48	; 0x30
    5f08:	46bd      	mov	sp, r7
    5f0a:	bd80      	pop	{r7, pc}

00005f0c <__mpa_gcd>:
__mpa_gcd():
/home/csx/share/gerrit/optee_os/lib/libmpa/mpa_gcd.c:215
    5f0c:	e96d 7e02 	strd	r7, lr, [sp, #-8]!
    5f10:	b088      	sub	sp, #32
    5f12:	af00      	add	r7, sp, #0
    5f14:	60f8      	str	r0, [r7, #12]
    5f16:	60b9      	str	r1, [r7, #8]
    5f18:	607a      	str	r2, [r7, #4]
    5f1a:	603b      	str	r3, [r7, #0]
/home/csx/share/gerrit/optee_os/lib/libmpa/mpa_gcd.c:222
    5f1c:	687b      	ldr	r3, [r7, #4]
    5f1e:	685b      	ldr	r3, [r3, #4]
    5f20:	2b00      	cmp	r3, #0
    5f22:	d104      	bne.n	5f2e <__mpa_gcd+0x22>
/home/csx/share/gerrit/optee_os/lib/libmpa/mpa_gcd.c:223
    5f24:	68f8      	ldr	r0, [r7, #12]
    5f26:	68b9      	ldr	r1, [r7, #8]
    5f28:	f7fe fb76 	bl	4618 <mpa_copy>
    5f2c:	e098      	b.n	6060 <__mpa_gcd+0x154>
/home/csx/share/gerrit/optee_os/lib/libmpa/mpa_gcd.c:226
    5f2e:	f107 0318 	add.w	r3, r7, #24
    5f32:	4618      	mov	r0, r3
    5f34:	6839      	ldr	r1, [r7, #0]
    5f36:	f000 faa1 	bl	647c <mpa_alloc_static_temp_var>
/home/csx/share/gerrit/optee_os/lib/libmpa/mpa_gcd.c:227
    5f3a:	69bb      	ldr	r3, [r7, #24]
    5f3c:	4618      	mov	r0, r3
    5f3e:	68b9      	ldr	r1, [r7, #8]
    5f40:	f7fe fb6a 	bl	4618 <mpa_copy>
/home/csx/share/gerrit/optee_os/lib/libmpa/mpa_gcd.c:228
    5f44:	f107 0314 	add.w	r3, r7, #20
    5f48:	4618      	mov	r0, r3
    5f4a:	6839      	ldr	r1, [r7, #0]
    5f4c:	f000 fa96 	bl	647c <mpa_alloc_static_temp_var>
/home/csx/share/gerrit/optee_os/lib/libmpa/mpa_gcd.c:229
    5f50:	697b      	ldr	r3, [r7, #20]
    5f52:	4618      	mov	r0, r3
    5f54:	6879      	ldr	r1, [r7, #4]
    5f56:	f7fe fb5f 	bl	4618 <mpa_copy>
/home/csx/share/gerrit/optee_os/lib/libmpa/mpa_gcd.c:231
    5f5a:	2300      	movs	r3, #0
    5f5c:	61fb      	str	r3, [r7, #28]
/home/csx/share/gerrit/optee_os/lib/libmpa/mpa_gcd.c:232
    5f5e:	e00a      	b.n	5f76 <__mpa_gcd+0x6a>
/home/csx/share/gerrit/optee_os/lib/libmpa/mpa_gcd.c:233
    5f60:	69fb      	ldr	r3, [r7, #28]
    5f62:	3301      	adds	r3, #1
    5f64:	61fb      	str	r3, [r7, #28]
/home/csx/share/gerrit/optee_os/lib/libmpa/mpa_gcd.c:234
    5f66:	69bb      	ldr	r3, [r7, #24]
    5f68:	4618      	mov	r0, r3
    5f6a:	f7ff fdef 	bl	5b4c <__mpa_divby2>
/home/csx/share/gerrit/optee_os/lib/libmpa/mpa_gcd.c:235
    5f6e:	697b      	ldr	r3, [r7, #20]
    5f70:	4618      	mov	r0, r3
    5f72:	f7ff fdeb 	bl	5b4c <__mpa_divby2>
/home/csx/share/gerrit/optee_os/lib/libmpa/mpa_gcd.c:232
    5f76:	69bb      	ldr	r3, [r7, #24]
    5f78:	4618      	mov	r0, r3
    5f7a:	f7fe fc07 	bl	478c <mpa_parity>
    5f7e:	4603      	mov	r3, r0
    5f80:	2b00      	cmp	r3, #0
    5f82:	d106      	bne.n	5f92 <__mpa_gcd+0x86>
/home/csx/share/gerrit/optee_os/lib/libmpa/mpa_gcd.c:232 (discriminator 1)
    5f84:	697b      	ldr	r3, [r7, #20]
    5f86:	4618      	mov	r0, r3
    5f88:	f7fe fc00 	bl	478c <mpa_parity>
    5f8c:	4603      	mov	r3, r0
    5f8e:	2b00      	cmp	r3, #0
    5f90:	d0e6      	beq.n	5f60 <__mpa_gcd+0x54>
/home/csx/share/gerrit/optee_os/lib/libmpa/mpa_gcd.c:238
    5f92:	f107 0310 	add.w	r3, r7, #16
    5f96:	4618      	mov	r0, r3
    5f98:	6839      	ldr	r1, [r7, #0]
    5f9a:	f000 fa6f 	bl	647c <mpa_alloc_static_temp_var>
/home/csx/share/gerrit/optee_os/lib/libmpa/mpa_gcd.c:239
    5f9e:	e043      	b.n	6028 <__mpa_gcd+0x11c>
/home/csx/share/gerrit/optee_os/lib/libmpa/mpa_gcd.c:240
    5fa0:	e003      	b.n	5faa <__mpa_gcd+0x9e>
/home/csx/share/gerrit/optee_os/lib/libmpa/mpa_gcd.c:241
    5fa2:	69bb      	ldr	r3, [r7, #24]
    5fa4:	4618      	mov	r0, r3
    5fa6:	f7ff fdd1 	bl	5b4c <__mpa_divby2>
/home/csx/share/gerrit/optee_os/lib/libmpa/mpa_gcd.c:240
    5faa:	69bb      	ldr	r3, [r7, #24]
    5fac:	4618      	mov	r0, r3
    5fae:	f7fe fbed 	bl	478c <mpa_parity>
    5fb2:	4603      	mov	r3, r0
    5fb4:	2b00      	cmp	r3, #0
    5fb6:	d0f4      	beq.n	5fa2 <__mpa_gcd+0x96>
/home/csx/share/gerrit/optee_os/lib/libmpa/mpa_gcd.c:243
    5fb8:	e003      	b.n	5fc2 <__mpa_gcd+0xb6>
/home/csx/share/gerrit/optee_os/lib/libmpa/mpa_gcd.c:244
    5fba:	697b      	ldr	r3, [r7, #20]
    5fbc:	4618      	mov	r0, r3
    5fbe:	f7ff fdc5 	bl	5b4c <__mpa_divby2>
/home/csx/share/gerrit/optee_os/lib/libmpa/mpa_gcd.c:243
    5fc2:	697b      	ldr	r3, [r7, #20]
    5fc4:	4618      	mov	r0, r3
    5fc6:	f7fe fbe1 	bl	478c <mpa_parity>
    5fca:	4603      	mov	r3, r0
    5fcc:	2b00      	cmp	r3, #0
    5fce:	d0f4      	beq.n	5fba <__mpa_gcd+0xae>
/home/csx/share/gerrit/optee_os/lib/libmpa/mpa_gcd.c:246
    5fd0:	6939      	ldr	r1, [r7, #16]
    5fd2:	69ba      	ldr	r2, [r7, #24]
    5fd4:	697b      	ldr	r3, [r7, #20]
    5fd6:	4608      	mov	r0, r1
    5fd8:	4611      	mov	r1, r2
    5fda:	461a      	mov	r2, r3
    5fdc:	683b      	ldr	r3, [r7, #0]
    5fde:	f001 fa63 	bl	74a8 <mpa_sub>
/home/csx/share/gerrit/optee_os/lib/libmpa/mpa_gcd.c:248
    5fe2:	693b      	ldr	r3, [r7, #16]
    5fe4:	685b      	ldr	r3, [r3, #4]
    5fe6:	2b00      	cmp	r3, #0
    5fe8:	da04      	bge.n	5ff4 <__mpa_gcd+0xe8>
/home/csx/share/gerrit/optee_os/lib/libmpa/mpa_gcd.c:248 (discriminator 1)
    5fea:	693b      	ldr	r3, [r7, #16]
    5fec:	693a      	ldr	r2, [r7, #16]
    5fee:	6852      	ldr	r2, [r2, #4]
    5ff0:	4252      	negs	r2, r2
    5ff2:	605a      	str	r2, [r3, #4]
/home/csx/share/gerrit/optee_os/lib/libmpa/mpa_gcd.c:249
    5ff4:	693b      	ldr	r3, [r7, #16]
    5ff6:	4618      	mov	r0, r3
    5ff8:	f7ff fda8 	bl	5b4c <__mpa_divby2>
/home/csx/share/gerrit/optee_os/lib/libmpa/mpa_gcd.c:250
    5ffc:	69ba      	ldr	r2, [r7, #24]
    5ffe:	697b      	ldr	r3, [r7, #20]
    6000:	4610      	mov	r0, r2
    6002:	4619      	mov	r1, r3
    6004:	f001 fd22 	bl	7a4c <mpa_cmp>
    6008:	4603      	mov	r3, r0
    600a:	2b00      	cmp	r3, #0
    600c:	db06      	blt.n	601c <__mpa_gcd+0x110>
/home/csx/share/gerrit/optee_os/lib/libmpa/mpa_gcd.c:251
    600e:	69ba      	ldr	r2, [r7, #24]
    6010:	693b      	ldr	r3, [r7, #16]
    6012:	4610      	mov	r0, r2
    6014:	4619      	mov	r1, r3
    6016:	f7fe faff 	bl	4618 <mpa_copy>
    601a:	e005      	b.n	6028 <__mpa_gcd+0x11c>
/home/csx/share/gerrit/optee_os/lib/libmpa/mpa_gcd.c:253
    601c:	697a      	ldr	r2, [r7, #20]
    601e:	693b      	ldr	r3, [r7, #16]
    6020:	4610      	mov	r0, r2
    6022:	4619      	mov	r1, r3
    6024:	f7fe faf8 	bl	4618 <mpa_copy>
/home/csx/share/gerrit/optee_os/lib/libmpa/mpa_gcd.c:239
    6028:	69bb      	ldr	r3, [r7, #24]
    602a:	685b      	ldr	r3, [r3, #4]
    602c:	2b00      	cmp	r3, #0
    602e:	d1b7      	bne.n	5fa0 <__mpa_gcd+0x94>
/home/csx/share/gerrit/optee_os/lib/libmpa/mpa_gcd.c:256
    6030:	697b      	ldr	r3, [r7, #20]
    6032:	68f8      	ldr	r0, [r7, #12]
    6034:	4619      	mov	r1, r3
    6036:	69fa      	ldr	r2, [r7, #28]
    6038:	f000 fdb2 	bl	6ba0 <mpa_shift_left>
/home/csx/share/gerrit/optee_os/lib/libmpa/mpa_gcd.c:257
    603c:	f107 0310 	add.w	r3, r7, #16
    6040:	4618      	mov	r0, r3
    6042:	6839      	ldr	r1, [r7, #0]
    6044:	f000 fa2c 	bl	64a0 <mpa_free_static_temp_var>
/home/csx/share/gerrit/optee_os/lib/libmpa/mpa_gcd.c:258
    6048:	f107 0318 	add.w	r3, r7, #24
    604c:	4618      	mov	r0, r3
    604e:	6839      	ldr	r1, [r7, #0]
    6050:	f000 fa26 	bl	64a0 <mpa_free_static_temp_var>
/home/csx/share/gerrit/optee_os/lib/libmpa/mpa_gcd.c:259
    6054:	f107 0314 	add.w	r3, r7, #20
    6058:	4618      	mov	r0, r3
    605a:	6839      	ldr	r1, [r7, #0]
    605c:	f000 fa20 	bl	64a0 <mpa_free_static_temp_var>
/home/csx/share/gerrit/optee_os/lib/libmpa/mpa_gcd.c:260
    6060:	3720      	adds	r7, #32
    6062:	46bd      	mov	sp, r7
    6064:	bd80      	pop	{r7, pc}
    6066:	bf00      	nop

00006068 <mpa_gcd>:
mpa_gcd():
/home/csx/share/gerrit/optee_os/lib/libmpa/mpa_gcd.c:275
    6068:	e96d 7e02 	strd	r7, lr, [sp, #-8]!
    606c:	b088      	sub	sp, #32
    606e:	af00      	add	r7, sp, #0
    6070:	60f8      	str	r0, [r7, #12]
    6072:	60b9      	str	r1, [r7, #8]
    6074:	607a      	str	r2, [r7, #4]
    6076:	603b      	str	r3, [r7, #0]
/home/csx/share/gerrit/optee_os/lib/libmpa/mpa_gcd.c:281
    6078:	68bb      	ldr	r3, [r7, #8]
    607a:	685b      	ldr	r3, [r3, #4]
    607c:	2b00      	cmp	r3, #0
    607e:	db01      	blt.n	6084 <mpa_gcd+0x1c>
/home/csx/share/gerrit/optee_os/lib/libmpa/mpa_gcd.c:281 (discriminator 1)
    6080:	2301      	movs	r3, #1
    6082:	e001      	b.n	6088 <mpa_gcd+0x20>
/home/csx/share/gerrit/optee_os/lib/libmpa/mpa_gcd.c:281 (discriminator 2)
    6084:	f04f 33ff 	mov.w	r3, #4294967295	; 0xffffffff
/home/csx/share/gerrit/optee_os/lib/libmpa/mpa_gcd.c:281 (discriminator 4)
    6088:	61fb      	str	r3, [r7, #28]
/home/csx/share/gerrit/optee_os/lib/libmpa/mpa_gcd.c:282 (discriminator 4)
    608a:	687b      	ldr	r3, [r7, #4]
    608c:	685b      	ldr	r3, [r3, #4]
    608e:	2b00      	cmp	r3, #0
    6090:	db01      	blt.n	6096 <mpa_gcd+0x2e>
/home/csx/share/gerrit/optee_os/lib/libmpa/mpa_gcd.c:282 (discriminator 1)
    6092:	2301      	movs	r3, #1
    6094:	e001      	b.n	609a <mpa_gcd+0x32>
/home/csx/share/gerrit/optee_os/lib/libmpa/mpa_gcd.c:282 (discriminator 2)
    6096:	f04f 33ff 	mov.w	r3, #4294967295	; 0xffffffff
/home/csx/share/gerrit/optee_os/lib/libmpa/mpa_gcd.c:282 (discriminator 4)
    609a:	61bb      	str	r3, [r7, #24]
/home/csx/share/gerrit/optee_os/lib/libmpa/mpa_gcd.c:283 (discriminator 4)
    609c:	68bb      	ldr	r3, [r7, #8]
    609e:	685b      	ldr	r3, [r3, #4]
    60a0:	2b00      	cmp	r3, #0
    60a2:	da04      	bge.n	60ae <mpa_gcd+0x46>
/home/csx/share/gerrit/optee_os/lib/libmpa/mpa_gcd.c:283 (discriminator 1)
    60a4:	68bb      	ldr	r3, [r7, #8]
    60a6:	685b      	ldr	r3, [r3, #4]
    60a8:	425a      	negs	r2, r3
    60aa:	68bb      	ldr	r3, [r7, #8]
    60ac:	605a      	str	r2, [r3, #4]
/home/csx/share/gerrit/optee_os/lib/libmpa/mpa_gcd.c:284
    60ae:	687b      	ldr	r3, [r7, #4]
    60b0:	685b      	ldr	r3, [r3, #4]
    60b2:	2b00      	cmp	r3, #0
    60b4:	da04      	bge.n	60c0 <mpa_gcd+0x58>
/home/csx/share/gerrit/optee_os/lib/libmpa/mpa_gcd.c:284 (discriminator 1)
    60b6:	687b      	ldr	r3, [r7, #4]
    60b8:	685b      	ldr	r3, [r3, #4]
    60ba:	425a      	negs	r2, r3
    60bc:	687b      	ldr	r3, [r7, #4]
    60be:	605a      	str	r2, [r3, #4]
/home/csx/share/gerrit/optee_os/lib/libmpa/mpa_gcd.c:286
    60c0:	68b8      	ldr	r0, [r7, #8]
    60c2:	6879      	ldr	r1, [r7, #4]
    60c4:	f001 fcc2 	bl	7a4c <mpa_cmp>
    60c8:	6178      	str	r0, [r7, #20]
/home/csx/share/gerrit/optee_os/lib/libmpa/mpa_gcd.c:287
    60ca:	697b      	ldr	r3, [r7, #20]
    60cc:	2b00      	cmp	r3, #0
    60ce:	d104      	bne.n	60da <mpa_gcd+0x72>
/home/csx/share/gerrit/optee_os/lib/libmpa/mpa_gcd.c:288
    60d0:	68f8      	ldr	r0, [r7, #12]
    60d2:	68b9      	ldr	r1, [r7, #8]
    60d4:	f7fe faa0 	bl	4618 <mpa_copy>
/home/csx/share/gerrit/optee_os/lib/libmpa/mpa_gcd.c:289
    60d8:	e00f      	b.n	60fa <mpa_gcd+0x92>
/home/csx/share/gerrit/optee_os/lib/libmpa/mpa_gcd.c:291
    60da:	697b      	ldr	r3, [r7, #20]
    60dc:	2b00      	cmp	r3, #0
    60de:	da06      	bge.n	60ee <mpa_gcd+0x86>
/home/csx/share/gerrit/optee_os/lib/libmpa/mpa_gcd.c:292
    60e0:	68f8      	ldr	r0, [r7, #12]
    60e2:	6879      	ldr	r1, [r7, #4]
    60e4:	68ba      	ldr	r2, [r7, #8]
    60e6:	683b      	ldr	r3, [r7, #0]
    60e8:	f7ff ff10 	bl	5f0c <__mpa_gcd>
    60ec:	e005      	b.n	60fa <mpa_gcd+0x92>
/home/csx/share/gerrit/optee_os/lib/libmpa/mpa_gcd.c:294
    60ee:	68f8      	ldr	r0, [r7, #12]
    60f0:	68b9      	ldr	r1, [r7, #8]
    60f2:	687a      	ldr	r2, [r7, #4]
    60f4:	683b      	ldr	r3, [r7, #0]
    60f6:	f7ff ff09 	bl	5f0c <__mpa_gcd>
/home/csx/share/gerrit/optee_os/lib/libmpa/mpa_gcd.c:299
    60fa:	68bb      	ldr	r3, [r7, #8]
    60fc:	685b      	ldr	r3, [r3, #4]
    60fe:	2b00      	cmp	r3, #0
    6100:	db01      	blt.n	6106 <mpa_gcd+0x9e>
/home/csx/share/gerrit/optee_os/lib/libmpa/mpa_gcd.c:299 (discriminator 1)
    6102:	2201      	movs	r2, #1
    6104:	e001      	b.n	610a <mpa_gcd+0xa2>
/home/csx/share/gerrit/optee_os/lib/libmpa/mpa_gcd.c:299 (discriminator 2)
    6106:	f04f 32ff 	mov.w	r2, #4294967295	; 0xffffffff
/home/csx/share/gerrit/optee_os/lib/libmpa/mpa_gcd.c:299 (discriminator 4)
    610a:	69fb      	ldr	r3, [r7, #28]
    610c:	429a      	cmp	r2, r3
    610e:	d004      	beq.n	611a <mpa_gcd+0xb2>
/home/csx/share/gerrit/optee_os/lib/libmpa/mpa_gcd.c:299 (discriminator 5)
    6110:	68bb      	ldr	r3, [r7, #8]
    6112:	685b      	ldr	r3, [r3, #4]
    6114:	425a      	negs	r2, r3
    6116:	68bb      	ldr	r3, [r7, #8]
    6118:	605a      	str	r2, [r3, #4]
/home/csx/share/gerrit/optee_os/lib/libmpa/mpa_gcd.c:300
    611a:	687b      	ldr	r3, [r7, #4]
    611c:	685b      	ldr	r3, [r3, #4]
    611e:	2b00      	cmp	r3, #0
    6120:	db01      	blt.n	6126 <mpa_gcd+0xbe>
/home/csx/share/gerrit/optee_os/lib/libmpa/mpa_gcd.c:300 (discriminator 1)
    6122:	2201      	movs	r2, #1
    6124:	e001      	b.n	612a <mpa_gcd+0xc2>
/home/csx/share/gerrit/optee_os/lib/libmpa/mpa_gcd.c:300 (discriminator 2)
    6126:	f04f 32ff 	mov.w	r2, #4294967295	; 0xffffffff
/home/csx/share/gerrit/optee_os/lib/libmpa/mpa_gcd.c:300 (discriminator 4)
    612a:	69bb      	ldr	r3, [r7, #24]
    612c:	429a      	cmp	r2, r3
    612e:	d004      	beq.n	613a <mpa_gcd+0xd2>
/home/csx/share/gerrit/optee_os/lib/libmpa/mpa_gcd.c:300 (discriminator 5)
    6130:	687b      	ldr	r3, [r7, #4]
    6132:	685b      	ldr	r3, [r3, #4]
    6134:	425a      	negs	r2, r3
    6136:	687b      	ldr	r3, [r7, #4]
    6138:	605a      	str	r2, [r3, #4]
/home/csx/share/gerrit/optee_os/lib/libmpa/mpa_gcd.c:301
    613a:	3720      	adds	r7, #32
    613c:	46bd      	mov	sp, r7
    613e:	bd80      	pop	{r7, pc}

00006140 <mpa_extended_gcd>:
mpa_extended_gcd():
/home/csx/share/gerrit/optee_os/lib/libmpa/mpa_gcd.c:317
    6140:	e96d 7e02 	strd	r7, lr, [sp, #-8]!
    6144:	b08c      	sub	sp, #48	; 0x30
    6146:	af02      	add	r7, sp, #8
    6148:	60f8      	str	r0, [r7, #12]
    614a:	60b9      	str	r1, [r7, #8]
    614c:	607a      	str	r2, [r7, #4]
    614e:	603b      	str	r3, [r7, #0]
/home/csx/share/gerrit/optee_os/lib/libmpa/mpa_gcd.c:324
    6150:	68bb      	ldr	r3, [r7, #8]
    6152:	2b00      	cmp	r3, #0
    6154:	d10d      	bne.n	6172 <mpa_extended_gcd+0x32>
/home/csx/share/gerrit/optee_os/lib/libmpa/mpa_gcd.c:324 (discriminator 1)
    6156:	687b      	ldr	r3, [r7, #4]
    6158:	2b00      	cmp	r3, #0
    615a:	d10a      	bne.n	6172 <mpa_extended_gcd+0x32>
/home/csx/share/gerrit/optee_os/lib/libmpa/mpa_gcd.c:325
    615c:	68fb      	ldr	r3, [r7, #12]
    615e:	2b00      	cmp	r3, #0
    6160:	f000 80c8 	beq.w	62f4 <mpa_extended_gcd+0x1b4>
/home/csx/share/gerrit/optee_os/lib/libmpa/mpa_gcd.c:326
    6164:	68f8      	ldr	r0, [r7, #12]
    6166:	6839      	ldr	r1, [r7, #0]
    6168:	6b3a      	ldr	r2, [r7, #48]	; 0x30
    616a:	6b7b      	ldr	r3, [r7, #52]	; 0x34
    616c:	f7ff ff7c 	bl	6068 <mpa_gcd>
/home/csx/share/gerrit/optee_os/lib/libmpa/mpa_gcd.c:327
    6170:	e0c0      	b.n	62f4 <mpa_extended_gcd+0x1b4>
/home/csx/share/gerrit/optee_os/lib/libmpa/mpa_gcd.c:331
    6172:	683b      	ldr	r3, [r7, #0]
    6174:	685b      	ldr	r3, [r3, #4]
    6176:	2b00      	cmp	r3, #0
    6178:	db01      	blt.n	617e <mpa_extended_gcd+0x3e>
/home/csx/share/gerrit/optee_os/lib/libmpa/mpa_gcd.c:331 (discriminator 1)
    617a:	2301      	movs	r3, #1
    617c:	e001      	b.n	6182 <mpa_extended_gcd+0x42>
/home/csx/share/gerrit/optee_os/lib/libmpa/mpa_gcd.c:331 (discriminator 2)
    617e:	f04f 33ff 	mov.w	r3, #4294967295	; 0xffffffff
/home/csx/share/gerrit/optee_os/lib/libmpa/mpa_gcd.c:331 (discriminator 4)
    6182:	627b      	str	r3, [r7, #36]	; 0x24
/home/csx/share/gerrit/optee_os/lib/libmpa/mpa_gcd.c:332 (discriminator 4)
    6184:	6b3b      	ldr	r3, [r7, #48]	; 0x30
    6186:	685b      	ldr	r3, [r3, #4]
    6188:	2b00      	cmp	r3, #0
    618a:	db01      	blt.n	6190 <mpa_extended_gcd+0x50>
/home/csx/share/gerrit/optee_os/lib/libmpa/mpa_gcd.c:332 (discriminator 1)
    618c:	2301      	movs	r3, #1
    618e:	e001      	b.n	6194 <mpa_extended_gcd+0x54>
/home/csx/share/gerrit/optee_os/lib/libmpa/mpa_gcd.c:332 (discriminator 2)
    6190:	f04f 33ff 	mov.w	r3, #4294967295	; 0xffffffff
/home/csx/share/gerrit/optee_os/lib/libmpa/mpa_gcd.c:332 (discriminator 4)
    6194:	623b      	str	r3, [r7, #32]
/home/csx/share/gerrit/optee_os/lib/libmpa/mpa_gcd.c:333 (discriminator 4)
    6196:	683b      	ldr	r3, [r7, #0]
    6198:	685b      	ldr	r3, [r3, #4]
    619a:	2b00      	cmp	r3, #0
    619c:	da04      	bge.n	61a8 <mpa_extended_gcd+0x68>
/home/csx/share/gerrit/optee_os/lib/libmpa/mpa_gcd.c:333 (discriminator 1)
    619e:	683b      	ldr	r3, [r7, #0]
    61a0:	685b      	ldr	r3, [r3, #4]
    61a2:	425a      	negs	r2, r3
    61a4:	683b      	ldr	r3, [r7, #0]
    61a6:	605a      	str	r2, [r3, #4]
/home/csx/share/gerrit/optee_os/lib/libmpa/mpa_gcd.c:334
    61a8:	6b3b      	ldr	r3, [r7, #48]	; 0x30
    61aa:	685b      	ldr	r3, [r3, #4]
    61ac:	2b00      	cmp	r3, #0
    61ae:	da04      	bge.n	61ba <mpa_extended_gcd+0x7a>
/home/csx/share/gerrit/optee_os/lib/libmpa/mpa_gcd.c:334 (discriminator 1)
    61b0:	6b3b      	ldr	r3, [r7, #48]	; 0x30
    61b2:	685b      	ldr	r3, [r3, #4]
    61b4:	425a      	negs	r2, r3
    61b6:	6b3b      	ldr	r3, [r7, #48]	; 0x30
    61b8:	605a      	str	r2, [r3, #4]
/home/csx/share/gerrit/optee_os/lib/libmpa/mpa_gcd.c:336
    61ba:	6838      	ldr	r0, [r7, #0]
    61bc:	6b39      	ldr	r1, [r7, #48]	; 0x30
    61be:	f001 fc45 	bl	7a4c <mpa_cmp>
    61c2:	61f8      	str	r0, [r7, #28]
/home/csx/share/gerrit/optee_os/lib/libmpa/mpa_gcd.c:337
    61c4:	69fb      	ldr	r3, [r7, #28]
    61c6:	2b00      	cmp	r3, #0
    61c8:	d116      	bne.n	61f8 <mpa_extended_gcd+0xb8>
/home/csx/share/gerrit/optee_os/lib/libmpa/mpa_gcd.c:338
    61ca:	68fb      	ldr	r3, [r7, #12]
    61cc:	2b00      	cmp	r3, #0
    61ce:	d003      	beq.n	61d8 <mpa_extended_gcd+0x98>
/home/csx/share/gerrit/optee_os/lib/libmpa/mpa_gcd.c:339
    61d0:	68f8      	ldr	r0, [r7, #12]
    61d2:	6839      	ldr	r1, [r7, #0]
    61d4:	f7fe fa20 	bl	4618 <mpa_copy>
/home/csx/share/gerrit/optee_os/lib/libmpa/mpa_gcd.c:340
    61d8:	68bb      	ldr	r3, [r7, #8]
    61da:	2b00      	cmp	r3, #0
    61dc:	d003      	beq.n	61e6 <mpa_extended_gcd+0xa6>
/home/csx/share/gerrit/optee_os/lib/libmpa/mpa_gcd.c:341
    61de:	68b8      	ldr	r0, [r7, #8]
    61e0:	2101      	movs	r1, #1
    61e2:	f7fe ffa9 	bl	5138 <mpa_set_word>
/home/csx/share/gerrit/optee_os/lib/libmpa/mpa_gcd.c:342
    61e6:	687b      	ldr	r3, [r7, #4]
    61e8:	2b00      	cmp	r3, #0
    61ea:	d004      	beq.n	61f6 <mpa_extended_gcd+0xb6>
/home/csx/share/gerrit/optee_os/lib/libmpa/mpa_gcd.c:343
    61ec:	6878      	ldr	r0, [r7, #4]
    61ee:	2100      	movs	r1, #0
    61f0:	f7fe ffa2 	bl	5138 <mpa_set_word>
/home/csx/share/gerrit/optee_os/lib/libmpa/mpa_gcd.c:344
    61f4:	e046      	b.n	6284 <mpa_extended_gcd+0x144>
    61f6:	e045      	b.n	6284 <mpa_extended_gcd+0x144>
/home/csx/share/gerrit/optee_os/lib/libmpa/mpa_gcd.c:347
    61f8:	68fb      	ldr	r3, [r7, #12]
    61fa:	2b00      	cmp	r3, #0
    61fc:	d007      	beq.n	620e <mpa_extended_gcd+0xce>
/home/csx/share/gerrit/optee_os/lib/libmpa/mpa_gcd.c:347 (discriminator 2)
    61fe:	68fa      	ldr	r2, [r7, #12]
    6200:	683b      	ldr	r3, [r7, #0]
    6202:	429a      	cmp	r2, r3
    6204:	d003      	beq.n	620e <mpa_extended_gcd+0xce>
/home/csx/share/gerrit/optee_os/lib/libmpa/mpa_gcd.c:347 (discriminator 4)
    6206:	68fa      	ldr	r2, [r7, #12]
    6208:	6b3b      	ldr	r3, [r7, #48]	; 0x30
    620a:	429a      	cmp	r2, r3
    620c:	d101      	bne.n	6212 <mpa_extended_gcd+0xd2>
/home/csx/share/gerrit/optee_os/lib/libmpa/mpa_gcd.c:347 (discriminator 5)
    620e:	2301      	movs	r3, #1
    6210:	e000      	b.n	6214 <mpa_extended_gcd+0xd4>
/home/csx/share/gerrit/optee_os/lib/libmpa/mpa_gcd.c:347 (discriminator 6)
    6212:	2300      	movs	r3, #0
/home/csx/share/gerrit/optee_os/lib/libmpa/mpa_gcd.c:347 (discriminator 8)
    6214:	61bb      	str	r3, [r7, #24]
/home/csx/share/gerrit/optee_os/lib/libmpa/mpa_gcd.c:348 (discriminator 8)
    6216:	69bb      	ldr	r3, [r7, #24]
    6218:	2b00      	cmp	r3, #0
    621a:	d006      	beq.n	622a <mpa_extended_gcd+0xea>
/home/csx/share/gerrit/optee_os/lib/libmpa/mpa_gcd.c:349
    621c:	f107 0314 	add.w	r3, r7, #20
    6220:	4618      	mov	r0, r3
    6222:	6b79      	ldr	r1, [r7, #52]	; 0x34
    6224:	f000 f92a 	bl	647c <mpa_alloc_static_temp_var>
    6228:	e001      	b.n	622e <mpa_extended_gcd+0xee>
/home/csx/share/gerrit/optee_os/lib/libmpa/mpa_gcd.c:351
    622a:	68fb      	ldr	r3, [r7, #12]
    622c:	617b      	str	r3, [r7, #20]
/home/csx/share/gerrit/optee_os/lib/libmpa/mpa_gcd.c:353
    622e:	69fb      	ldr	r3, [r7, #28]
    6230:	2b00      	cmp	r3, #0
    6232:	da0b      	bge.n	624c <mpa_extended_gcd+0x10c>
/home/csx/share/gerrit/optee_os/lib/libmpa/mpa_gcd.c:354
    6234:	697a      	ldr	r2, [r7, #20]
    6236:	683b      	ldr	r3, [r7, #0]
    6238:	9300      	str	r3, [sp, #0]
    623a:	6b7b      	ldr	r3, [r7, #52]	; 0x34
    623c:	9301      	str	r3, [sp, #4]
    623e:	4610      	mov	r0, r2
    6240:	6879      	ldr	r1, [r7, #4]
    6242:	68ba      	ldr	r2, [r7, #8]
    6244:	6b3b      	ldr	r3, [r7, #48]	; 0x30
    6246:	f7ff fce9 	bl	5c1c <__mpa_egcd>
    624a:	e00a      	b.n	6262 <mpa_extended_gcd+0x122>
/home/csx/share/gerrit/optee_os/lib/libmpa/mpa_gcd.c:356
    624c:	697a      	ldr	r2, [r7, #20]
    624e:	6b3b      	ldr	r3, [r7, #48]	; 0x30
    6250:	9300      	str	r3, [sp, #0]
    6252:	6b7b      	ldr	r3, [r7, #52]	; 0x34
    6254:	9301      	str	r3, [sp, #4]
    6256:	4610      	mov	r0, r2
    6258:	68b9      	ldr	r1, [r7, #8]
    625a:	687a      	ldr	r2, [r7, #4]
    625c:	683b      	ldr	r3, [r7, #0]
    625e:	f7ff fcdd 	bl	5c1c <__mpa_egcd>
/home/csx/share/gerrit/optee_os/lib/libmpa/mpa_gcd.c:358
    6262:	68fb      	ldr	r3, [r7, #12]
    6264:	2b00      	cmp	r3, #0
    6266:	d004      	beq.n	6272 <mpa_extended_gcd+0x132>
/home/csx/share/gerrit/optee_os/lib/libmpa/mpa_gcd.c:359
    6268:	697b      	ldr	r3, [r7, #20]
    626a:	68f8      	ldr	r0, [r7, #12]
    626c:	4619      	mov	r1, r3
    626e:	f7fe f9d3 	bl	4618 <mpa_copy>
/home/csx/share/gerrit/optee_os/lib/libmpa/mpa_gcd.c:360
    6272:	69bb      	ldr	r3, [r7, #24]
    6274:	2b00      	cmp	r3, #0
    6276:	d005      	beq.n	6284 <mpa_extended_gcd+0x144>
/home/csx/share/gerrit/optee_os/lib/libmpa/mpa_gcd.c:361
    6278:	f107 0314 	add.w	r3, r7, #20
    627c:	4618      	mov	r0, r3
    627e:	6b79      	ldr	r1, [r7, #52]	; 0x34
    6280:	f000 f90e 	bl	64a0 <mpa_free_static_temp_var>
/home/csx/share/gerrit/optee_os/lib/libmpa/mpa_gcd.c:365
    6284:	683b      	ldr	r3, [r7, #0]
    6286:	685b      	ldr	r3, [r3, #4]
    6288:	2b00      	cmp	r3, #0
    628a:	db01      	blt.n	6290 <mpa_extended_gcd+0x150>
/home/csx/share/gerrit/optee_os/lib/libmpa/mpa_gcd.c:365 (discriminator 1)
    628c:	2201      	movs	r2, #1
    628e:	e001      	b.n	6294 <mpa_extended_gcd+0x154>
/home/csx/share/gerrit/optee_os/lib/libmpa/mpa_gcd.c:365 (discriminator 2)
    6290:	f04f 32ff 	mov.w	r2, #4294967295	; 0xffffffff
/home/csx/share/gerrit/optee_os/lib/libmpa/mpa_gcd.c:365 (discriminator 4)
    6294:	6a7b      	ldr	r3, [r7, #36]	; 0x24
    6296:	429a      	cmp	r2, r3
    6298:	d004      	beq.n	62a4 <mpa_extended_gcd+0x164>
/home/csx/share/gerrit/optee_os/lib/libmpa/mpa_gcd.c:365 (discriminator 5)
    629a:	683b      	ldr	r3, [r7, #0]
    629c:	685b      	ldr	r3, [r3, #4]
    629e:	425a      	negs	r2, r3
    62a0:	683b      	ldr	r3, [r7, #0]
    62a2:	605a      	str	r2, [r3, #4]
/home/csx/share/gerrit/optee_os/lib/libmpa/mpa_gcd.c:366
    62a4:	6b3b      	ldr	r3, [r7, #48]	; 0x30
    62a6:	685b      	ldr	r3, [r3, #4]
    62a8:	2b00      	cmp	r3, #0
    62aa:	db01      	blt.n	62b0 <mpa_extended_gcd+0x170>
/home/csx/share/gerrit/optee_os/lib/libmpa/mpa_gcd.c:366 (discriminator 1)
    62ac:	2201      	movs	r2, #1
    62ae:	e001      	b.n	62b4 <mpa_extended_gcd+0x174>
/home/csx/share/gerrit/optee_os/lib/libmpa/mpa_gcd.c:366 (discriminator 2)
    62b0:	f04f 32ff 	mov.w	r2, #4294967295	; 0xffffffff
/home/csx/share/gerrit/optee_os/lib/libmpa/mpa_gcd.c:366 (discriminator 4)
    62b4:	6a3b      	ldr	r3, [r7, #32]
    62b6:	429a      	cmp	r2, r3
    62b8:	d004      	beq.n	62c4 <mpa_extended_gcd+0x184>
/home/csx/share/gerrit/optee_os/lib/libmpa/mpa_gcd.c:366 (discriminator 5)
    62ba:	6b3b      	ldr	r3, [r7, #48]	; 0x30
    62bc:	685b      	ldr	r3, [r3, #4]
    62be:	425a      	negs	r2, r3
    62c0:	6b3b      	ldr	r3, [r7, #48]	; 0x30
    62c2:	605a      	str	r2, [r3, #4]
/home/csx/share/gerrit/optee_os/lib/libmpa/mpa_gcd.c:368
    62c4:	6a7b      	ldr	r3, [r7, #36]	; 0x24
    62c6:	f1b3 3fff 	cmp.w	r3, #4294967295	; 0xffffffff
    62ca:	d107      	bne.n	62dc <mpa_extended_gcd+0x19c>
/home/csx/share/gerrit/optee_os/lib/libmpa/mpa_gcd.c:368 (discriminator 1)
    62cc:	68bb      	ldr	r3, [r7, #8]
    62ce:	2b00      	cmp	r3, #0
    62d0:	d004      	beq.n	62dc <mpa_extended_gcd+0x19c>
/home/csx/share/gerrit/optee_os/lib/libmpa/mpa_gcd.c:369
    62d2:	68bb      	ldr	r3, [r7, #8]
    62d4:	685b      	ldr	r3, [r3, #4]
    62d6:	425a      	negs	r2, r3
    62d8:	68bb      	ldr	r3, [r7, #8]
    62da:	605a      	str	r2, [r3, #4]
/home/csx/share/gerrit/optee_os/lib/libmpa/mpa_gcd.c:370
    62dc:	6a3b      	ldr	r3, [r7, #32]
    62de:	f1b3 3fff 	cmp.w	r3, #4294967295	; 0xffffffff
    62e2:	d107      	bne.n	62f4 <mpa_extended_gcd+0x1b4>
/home/csx/share/gerrit/optee_os/lib/libmpa/mpa_gcd.c:370 (discriminator 1)
    62e4:	687b      	ldr	r3, [r7, #4]
    62e6:	2b00      	cmp	r3, #0
    62e8:	d004      	beq.n	62f4 <mpa_extended_gcd+0x1b4>
/home/csx/share/gerrit/optee_os/lib/libmpa/mpa_gcd.c:371
    62ea:	687b      	ldr	r3, [r7, #4]
    62ec:	685b      	ldr	r3, [r3, #4]
    62ee:	425a      	negs	r2, r3
    62f0:	687b      	ldr	r3, [r7, #4]
    62f2:	605a      	str	r2, [r3, #4]
/home/csx/share/gerrit/optee_os/lib/libmpa/mpa_gcd.c:372
    62f4:	3728      	adds	r7, #40	; 0x28
    62f6:	46bd      	mov	sp, r7
    62f8:	bd80      	pop	{r7, pc}
    62fa:	bf00      	nop

000062fc <mpa_init_scratch_mem_sync>:
mpa_init_scratch_mem_sync():
/home/csx/share/gerrit/optee_os/lib/libmpa/mpa_mem_static.c:38
    62fc:	f84d 7d04 	str.w	r7, [sp, #-4]!
    6300:	b085      	sub	sp, #20
    6302:	af00      	add	r7, sp, #0
    6304:	60f8      	str	r0, [r7, #12]
    6306:	60b9      	str	r1, [r7, #8]
    6308:	607a      	str	r2, [r7, #4]
    630a:	603b      	str	r3, [r7, #0]
/home/csx/share/gerrit/optee_os/lib/libmpa/mpa_mem_static.c:39
    630c:	68fb      	ldr	r3, [r7, #12]
    630e:	68ba      	ldr	r2, [r7, #8]
    6310:	601a      	str	r2, [r3, #0]
/home/csx/share/gerrit/optee_os/lib/libmpa/mpa_mem_static.c:40
    6312:	68fb      	ldr	r3, [r7, #12]
    6314:	2200      	movs	r2, #0
    6316:	609a      	str	r2, [r3, #8]
/home/csx/share/gerrit/optee_os/lib/libmpa/mpa_mem_static.c:41
    6318:	687b      	ldr	r3, [r7, #4]
    631a:	005a      	lsls	r2, r3, #1
    631c:	68fb      	ldr	r3, [r7, #12]
    631e:	605a      	str	r2, [r3, #4]
/home/csx/share/gerrit/optee_os/lib/libmpa/mpa_mem_static.c:42
    6320:	68fb      	ldr	r3, [r7, #12]
    6322:	683a      	ldr	r2, [r7, #0]
    6324:	60da      	str	r2, [r3, #12]
/home/csx/share/gerrit/optee_os/lib/libmpa/mpa_mem_static.c:43
    6326:	68fb      	ldr	r3, [r7, #12]
    6328:	69ba      	ldr	r2, [r7, #24]
    632a:	611a      	str	r2, [r3, #16]
/home/csx/share/gerrit/optee_os/lib/libmpa/mpa_mem_static.c:44
    632c:	68fb      	ldr	r3, [r7, #12]
    632e:	69fa      	ldr	r2, [r7, #28]
    6330:	615a      	str	r2, [r3, #20]
/home/csx/share/gerrit/optee_os/lib/libmpa/mpa_mem_static.c:45
    6332:	3714      	adds	r7, #20
    6334:	46bd      	mov	sp, r7
    6336:	f85d 7b04 	ldr.w	r7, [sp], #4
    633a:	4770      	bx	lr

0000633c <mpa_init_scratch_mem>:
mpa_init_scratch_mem():
/home/csx/share/gerrit/optee_os/lib/libmpa/mpa_mem_static.c:48
    633c:	e96d 7e02 	strd	r7, lr, [sp, #-8]!
    6340:	b086      	sub	sp, #24
    6342:	af02      	add	r7, sp, #8
    6344:	60f8      	str	r0, [r7, #12]
    6346:	60b9      	str	r1, [r7, #8]
    6348:	607a      	str	r2, [r7, #4]
/home/csx/share/gerrit/optee_os/lib/libmpa/mpa_mem_static.c:49
    634a:	2300      	movs	r3, #0
    634c:	9300      	str	r3, [sp, #0]
    634e:	2300      	movs	r3, #0
    6350:	9301      	str	r3, [sp, #4]
    6352:	68f8      	ldr	r0, [r7, #12]
    6354:	68b9      	ldr	r1, [r7, #8]
    6356:	687a      	ldr	r2, [r7, #4]
    6358:	2300      	movs	r3, #0
    635a:	f7ff ffcf 	bl	62fc <mpa_init_scratch_mem_sync>
/home/csx/share/gerrit/optee_os/lib/libmpa/mpa_mem_static.c:50
    635e:	3710      	adds	r7, #16
    6360:	46bd      	mov	sp, r7
    6362:	bd80      	pop	{r7, pc}

00006364 <mpa_alloc_static_temp_var_size>:
mpa_alloc_static_temp_var_size():
/home/csx/share/gerrit/optee_os/lib/libmpa/mpa_mem_static.c:89
    6364:	e96d 7e02 	strd	r7, lr, [sp, #-8]!
    6368:	b088      	sub	sp, #32
    636a:	af00      	add	r7, sp, #0
    636c:	60f8      	str	r0, [r7, #12]
    636e:	60b9      	str	r1, [r7, #8]
    6370:	607a      	str	r2, [r7, #4]
/home/csx/share/gerrit/optee_os/lib/libmpa/mpa_mem_static.c:93
    6372:	2300      	movs	r3, #0
    6374:	61bb      	str	r3, [r7, #24]
/home/csx/share/gerrit/optee_os/lib/libmpa/mpa_mem_static.c:95
    6376:	687b      	ldr	r3, [r7, #4]
    6378:	68db      	ldr	r3, [r3, #12]
    637a:	2b00      	cmp	r3, #0
    637c:	d005      	beq.n	638a <mpa_alloc_static_temp_var_size+0x26>
/home/csx/share/gerrit/optee_os/lib/libmpa/mpa_mem_static.c:96
    637e:	687b      	ldr	r3, [r7, #4]
    6380:	68db      	ldr	r3, [r3, #12]
    6382:	687a      	ldr	r2, [r7, #4]
    6384:	6952      	ldr	r2, [r2, #20]
    6386:	4610      	mov	r0, r2
    6388:	4798      	blx	r3
/home/csx/share/gerrit/optee_os/lib/libmpa/mpa_mem_static.c:98
    638a:	687b      	ldr	r3, [r7, #4]
    638c:	689b      	ldr	r3, [r3, #8]
    638e:	2b00      	cmp	r3, #0
    6390:	d102      	bne.n	6398 <mpa_alloc_static_temp_var_size+0x34>
/home/csx/share/gerrit/optee_os/lib/libmpa/mpa_mem_static.c:99
    6392:	2318      	movs	r3, #24
    6394:	61fb      	str	r3, [r7, #28]
    6396:	e00b      	b.n	63b0 <mpa_alloc_static_temp_var_size+0x4c>
/home/csx/share/gerrit/optee_os/lib/libmpa/mpa_mem_static.c:101
    6398:	687b      	ldr	r3, [r7, #4]
    639a:	689b      	ldr	r3, [r3, #8]
    639c:	61fb      	str	r3, [r7, #28]
/home/csx/share/gerrit/optee_os/lib/libmpa/mpa_mem_static.c:103
    639e:	687a      	ldr	r2, [r7, #4]
    63a0:	69fb      	ldr	r3, [r7, #28]
    63a2:	4413      	add	r3, r2
/home/csx/share/gerrit/optee_os/lib/libmpa/mpa_mem_static.c:102
    63a4:	61bb      	str	r3, [r7, #24]
/home/csx/share/gerrit/optee_os/lib/libmpa/mpa_mem_static.c:104
    63a6:	69bb      	ldr	r3, [r7, #24]
    63a8:	681b      	ldr	r3, [r3, #0]
    63aa:	69fa      	ldr	r2, [r7, #28]
    63ac:	4413      	add	r3, r2
    63ae:	61fb      	str	r3, [r7, #28]
/home/csx/share/gerrit/optee_os/lib/libmpa/mpa_mem_static.c:107
    63b0:	69fb      	ldr	r3, [r7, #28]
    63b2:	3303      	adds	r3, #3
    63b4:	f023 0303 	bic.w	r3, r3, #3
    63b8:	61fb      	str	r3, [r7, #28]
/home/csx/share/gerrit/optee_os/lib/libmpa/mpa_mem_static.c:108
    63ba:	687b      	ldr	r3, [r7, #4]
    63bc:	681a      	ldr	r2, [r3, #0]
    63be:	69fb      	ldr	r3, [r7, #28]
    63c0:	429a      	cmp	r2, r3
    63c2:	d200      	bcs.n	63c6 <mpa_alloc_static_temp_var_size+0x62>
/home/csx/share/gerrit/optee_os/lib/libmpa/mpa_mem_static.c:109
    63c4:	e047      	b.n	6456 <mpa_alloc_static_temp_var_size+0xf2>
/home/csx/share/gerrit/optee_os/lib/libmpa/mpa_mem_static.c:112
    63c6:	68fb      	ldr	r3, [r7, #12]
    63c8:	331f      	adds	r3, #31
    63ca:	f103 021f 	add.w	r2, r3, #31
    63ce:	2b00      	cmp	r3, #0
    63d0:	bfb4      	ite	lt
    63d2:	4613      	movlt	r3, r2
    63d4:	461b      	movge	r3, r3
    63d6:	115b      	asrs	r3, r3, #5
/home/csx/share/gerrit/optee_os/lib/libmpa/mpa_mem_static.c:111
    63d8:	3305      	adds	r3, #5
    63da:	009b      	lsls	r3, r3, #2
    63dc:	617b      	str	r3, [r7, #20]
/home/csx/share/gerrit/optee_os/lib/libmpa/mpa_mem_static.c:113
    63de:	697b      	ldr	r3, [r7, #20]
    63e0:	3303      	adds	r3, #3
    63e2:	f023 0303 	bic.w	r3, r3, #3
    63e6:	617b      	str	r3, [r7, #20]
/home/csx/share/gerrit/optee_os/lib/libmpa/mpa_mem_static.c:114
    63e8:	69fa      	ldr	r2, [r7, #28]
    63ea:	697b      	ldr	r3, [r7, #20]
    63ec:	441a      	add	r2, r3
    63ee:	687b      	ldr	r3, [r7, #4]
    63f0:	681b      	ldr	r3, [r3, #0]
    63f2:	429a      	cmp	r2, r3
    63f4:	d900      	bls.n	63f8 <mpa_alloc_static_temp_var_size+0x94>
/home/csx/share/gerrit/optee_os/lib/libmpa/mpa_mem_static.c:115
    63f6:	e02e      	b.n	6456 <mpa_alloc_static_temp_var_size+0xf2>
/home/csx/share/gerrit/optee_os/lib/libmpa/mpa_mem_static.c:117
    63f8:	687a      	ldr	r2, [r7, #4]
    63fa:	69fb      	ldr	r3, [r7, #28]
    63fc:	4413      	add	r3, r2
    63fe:	613b      	str	r3, [r7, #16]
/home/csx/share/gerrit/optee_os/lib/libmpa/mpa_mem_static.c:118
    6400:	693b      	ldr	r3, [r7, #16]
    6402:	697a      	ldr	r2, [r7, #20]
    6404:	601a      	str	r2, [r3, #0]
/home/csx/share/gerrit/optee_os/lib/libmpa/mpa_mem_static.c:119
    6406:	687b      	ldr	r3, [r7, #4]
    6408:	689a      	ldr	r2, [r3, #8]
    640a:	693b      	ldr	r3, [r7, #16]
    640c:	605a      	str	r2, [r3, #4]
/home/csx/share/gerrit/optee_os/lib/libmpa/mpa_mem_static.c:120
    640e:	69bb      	ldr	r3, [r7, #24]
    6410:	2b00      	cmp	r3, #0
    6412:	d002      	beq.n	641a <mpa_alloc_static_temp_var_size+0xb6>
/home/csx/share/gerrit/optee_os/lib/libmpa/mpa_mem_static.c:121
    6414:	69bb      	ldr	r3, [r7, #24]
    6416:	69fa      	ldr	r2, [r7, #28]
    6418:	609a      	str	r2, [r3, #8]
/home/csx/share/gerrit/optee_os/lib/libmpa/mpa_mem_static.c:122
    641a:	693b      	ldr	r3, [r7, #16]
    641c:	2200      	movs	r2, #0
    641e:	609a      	str	r2, [r3, #8]
/home/csx/share/gerrit/optee_os/lib/libmpa/mpa_mem_static.c:123
    6420:	687b      	ldr	r3, [r7, #4]
    6422:	69fa      	ldr	r2, [r7, #28]
    6424:	609a      	str	r2, [r3, #8]
/home/csx/share/gerrit/optee_os/lib/libmpa/mpa_mem_static.c:125
    6426:	693b      	ldr	r3, [r7, #16]
    6428:	f103 020c 	add.w	r2, r3, #12
    642c:	68bb      	ldr	r3, [r7, #8]
    642e:	601a      	str	r2, [r3, #0]
/home/csx/share/gerrit/optee_os/lib/libmpa/mpa_mem_static.c:126
    6430:	68bb      	ldr	r3, [r7, #8]
    6432:	6819      	ldr	r1, [r3, #0]
    6434:	68fb      	ldr	r3, [r7, #12]
    6436:	331f      	adds	r3, #31
    6438:	f103 021f 	add.w	r2, r3, #31
    643c:	2b00      	cmp	r3, #0
    643e:	bfb4      	ite	lt
    6440:	4613      	movlt	r3, r2
    6442:	461b      	movge	r3, r3
    6444:	115b      	asrs	r3, r3, #5
    6446:	3302      	adds	r3, #2
    6448:	4608      	mov	r0, r1
    644a:	4619      	mov	r1, r3
    644c:	f001 fc26 	bl	7c9c <mpa_init_static>
/home/csx/share/gerrit/optee_os/lib/libmpa/mpa_mem_static.c:127
    6450:	68bb      	ldr	r3, [r7, #8]
    6452:	681b      	ldr	r3, [r3, #0]
    6454:	e00d      	b.n	6472 <mpa_alloc_static_temp_var_size+0x10e>
/home/csx/share/gerrit/optee_os/lib/libmpa/mpa_mem_static.c:130
    6456:	68bb      	ldr	r3, [r7, #8]
    6458:	2200      	movs	r2, #0
    645a:	601a      	str	r2, [r3, #0]
/home/csx/share/gerrit/optee_os/lib/libmpa/mpa_mem_static.c:131
    645c:	687b      	ldr	r3, [r7, #4]
    645e:	691b      	ldr	r3, [r3, #16]
    6460:	2b00      	cmp	r3, #0
    6462:	d005      	beq.n	6470 <mpa_alloc_static_temp_var_size+0x10c>
/home/csx/share/gerrit/optee_os/lib/libmpa/mpa_mem_static.c:132
    6464:	687b      	ldr	r3, [r7, #4]
    6466:	691b      	ldr	r3, [r3, #16]
    6468:	687a      	ldr	r2, [r7, #4]
    646a:	6952      	ldr	r2, [r2, #20]
    646c:	4610      	mov	r0, r2
    646e:	4798      	blx	r3
/home/csx/share/gerrit/optee_os/lib/libmpa/mpa_mem_static.c:133
    6470:	2300      	movs	r3, #0
/home/csx/share/gerrit/optee_os/lib/libmpa/mpa_mem_static.c:134
    6472:	4618      	mov	r0, r3
    6474:	3720      	adds	r7, #32
    6476:	46bd      	mov	sp, r7
    6478:	bd80      	pop	{r7, pc}
    647a:	bf00      	nop

0000647c <mpa_alloc_static_temp_var>:
mpa_alloc_static_temp_var():
/home/csx/share/gerrit/optee_os/lib/libmpa/mpa_mem_static.c:138
    647c:	e96d 7e02 	strd	r7, lr, [sp, #-8]!
    6480:	b082      	sub	sp, #8
    6482:	af00      	add	r7, sp, #0
    6484:	6078      	str	r0, [r7, #4]
    6486:	6039      	str	r1, [r7, #0]
/home/csx/share/gerrit/optee_os/lib/libmpa/mpa_mem_static.c:139
    6488:	683b      	ldr	r3, [r7, #0]
    648a:	685b      	ldr	r3, [r3, #4]
    648c:	4618      	mov	r0, r3
    648e:	6879      	ldr	r1, [r7, #4]
    6490:	683a      	ldr	r2, [r7, #0]
    6492:	f7ff ff67 	bl	6364 <mpa_alloc_static_temp_var_size>
    6496:	4603      	mov	r3, r0
/home/csx/share/gerrit/optee_os/lib/libmpa/mpa_mem_static.c:140
    6498:	4618      	mov	r0, r3
    649a:	3708      	adds	r7, #8
    649c:	46bd      	mov	sp, r7
    649e:	bd80      	pop	{r7, pc}

000064a0 <mpa_free_static_temp_var>:
mpa_free_static_temp_var():
/home/csx/share/gerrit/optee_os/lib/libmpa/mpa_mem_static.c:148
    64a0:	e96d 7e02 	strd	r7, lr, [sp, #-8]!
    64a4:	b086      	sub	sp, #24
    64a6:	af00      	add	r7, sp, #0
    64a8:	6078      	str	r0, [r7, #4]
    64aa:	6039      	str	r1, [r7, #0]
/home/csx/share/gerrit/optee_os/lib/libmpa/mpa_mem_static.c:152
    64ac:	2300      	movs	r3, #0
    64ae:	617b      	str	r3, [r7, #20]
/home/csx/share/gerrit/optee_os/lib/libmpa/mpa_mem_static.c:154
    64b0:	687b      	ldr	r3, [r7, #4]
    64b2:	2b00      	cmp	r3, #0
    64b4:	d003      	beq.n	64be <mpa_free_static_temp_var+0x1e>
/home/csx/share/gerrit/optee_os/lib/libmpa/mpa_mem_static.c:154 (discriminator 1)
    64b6:	687b      	ldr	r3, [r7, #4]
    64b8:	681b      	ldr	r3, [r3, #0]
    64ba:	2b00      	cmp	r3, #0
    64bc:	d100      	bne.n	64c0 <mpa_free_static_temp_var+0x20>
/home/csx/share/gerrit/optee_os/lib/libmpa/mpa_mem_static.c:155
    64be:	e030      	b.n	6522 <mpa_free_static_temp_var+0x82>
/home/csx/share/gerrit/optee_os/lib/libmpa/mpa_mem_static.c:157
    64c0:	687b      	ldr	r3, [r7, #4]
    64c2:	681b      	ldr	r3, [r3, #0]
    64c4:	3b0c      	subs	r3, #12
    64c6:	613b      	str	r3, [r7, #16]
/home/csx/share/gerrit/optee_os/lib/libmpa/mpa_mem_static.c:159
    64c8:	693b      	ldr	r3, [r7, #16]
    64ca:	685b      	ldr	r3, [r3, #4]
    64cc:	2b00      	cmp	r3, #0
    64ce:	d00b      	beq.n	64e8 <mpa_free_static_temp_var+0x48>
/home/csx/share/gerrit/optee_os/lib/libmpa/mpa_mem_static.c:161
    64d0:	693b      	ldr	r3, [r7, #16]
    64d2:	685a      	ldr	r2, [r3, #4]
/home/csx/share/gerrit/optee_os/lib/libmpa/mpa_mem_static.c:160
    64d4:	683b      	ldr	r3, [r7, #0]
    64d6:	4413      	add	r3, r2
    64d8:	60fb      	str	r3, [r7, #12]
/home/csx/share/gerrit/optee_os/lib/libmpa/mpa_mem_static.c:162
    64da:	693b      	ldr	r3, [r7, #16]
    64dc:	689a      	ldr	r2, [r3, #8]
    64de:	68fb      	ldr	r3, [r7, #12]
    64e0:	609a      	str	r2, [r3, #8]
/home/csx/share/gerrit/optee_os/lib/libmpa/mpa_mem_static.c:163
    64e2:	693b      	ldr	r3, [r7, #16]
    64e4:	685b      	ldr	r3, [r3, #4]
    64e6:	617b      	str	r3, [r7, #20]
/home/csx/share/gerrit/optee_os/lib/libmpa/mpa_mem_static.c:166
    64e8:	693b      	ldr	r3, [r7, #16]
    64ea:	689b      	ldr	r3, [r3, #8]
    64ec:	2b00      	cmp	r3, #0
    64ee:	d00b      	beq.n	6508 <mpa_free_static_temp_var+0x68>
/home/csx/share/gerrit/optee_os/lib/libmpa/mpa_mem_static.c:168
    64f0:	693b      	ldr	r3, [r7, #16]
    64f2:	689a      	ldr	r2, [r3, #8]
/home/csx/share/gerrit/optee_os/lib/libmpa/mpa_mem_static.c:167
    64f4:	683b      	ldr	r3, [r7, #0]
    64f6:	4413      	add	r3, r2
    64f8:	60bb      	str	r3, [r7, #8]
/home/csx/share/gerrit/optee_os/lib/libmpa/mpa_mem_static.c:169
    64fa:	693b      	ldr	r3, [r7, #16]
    64fc:	685a      	ldr	r2, [r3, #4]
    64fe:	68bb      	ldr	r3, [r7, #8]
    6500:	605a      	str	r2, [r3, #4]
/home/csx/share/gerrit/optee_os/lib/libmpa/mpa_mem_static.c:170
    6502:	683b      	ldr	r3, [r7, #0]
    6504:	689b      	ldr	r3, [r3, #8]
    6506:	617b      	str	r3, [r7, #20]
/home/csx/share/gerrit/optee_os/lib/libmpa/mpa_mem_static.c:173
    6508:	683b      	ldr	r3, [r7, #0]
    650a:	697a      	ldr	r2, [r7, #20]
    650c:	609a      	str	r2, [r3, #8]
/home/csx/share/gerrit/optee_os/lib/libmpa/mpa_mem_static.c:174
    650e:	683b      	ldr	r3, [r7, #0]
    6510:	691b      	ldr	r3, [r3, #16]
    6512:	2b00      	cmp	r3, #0
    6514:	d005      	beq.n	6522 <mpa_free_static_temp_var+0x82>
/home/csx/share/gerrit/optee_os/lib/libmpa/mpa_mem_static.c:175
    6516:	683b      	ldr	r3, [r7, #0]
    6518:	691b      	ldr	r3, [r3, #16]
    651a:	683a      	ldr	r2, [r7, #0]
    651c:	6952      	ldr	r2, [r2, #20]
    651e:	4610      	mov	r0, r2
    6520:	4798      	blx	r3
/home/csx/share/gerrit/optee_os/lib/libmpa/mpa_mem_static.c:176
    6522:	3718      	adds	r7, #24
    6524:	46bd      	mov	sp, r7
    6526:	bd80      	pop	{r7, pc}

00006528 <__mpa_mul_add_word>:
__mpa_mul_add_word():
/home/csx/share/gerrit/optee_os/lib/libmpa/mpa_mul.c:50
    6528:	f84d 4d14 	str.w	r4, [sp, #-20]!
    652c:	e9cd 5601 	strd	r5, r6, [sp, #4]
    6530:	e9cd 7e03 	strd	r7, lr, [sp, #12]
    6534:	b087      	sub	sp, #28
    6536:	af00      	add	r7, sp, #0
    6538:	60f8      	str	r0, [r7, #12]
    653a:	60b9      	str	r1, [r7, #8]
    653c:	607a      	str	r2, [r7, #4]
    653e:	603b      	str	r3, [r7, #0]
/home/csx/share/gerrit/optee_os/lib/libmpa/mpa_mul.c:54
    6540:	68fb      	ldr	r3, [r7, #12]
    6542:	4618      	mov	r0, r3
    6544:	f04f 0100 	mov.w	r1, #0
    6548:	68bb      	ldr	r3, [r7, #8]
    654a:	461a      	mov	r2, r3
    654c:	f04f 0300 	mov.w	r3, #0
    6550:	fb02 fe01 	mul.w	lr, r2, r1
    6554:	fb00 f603 	mul.w	r6, r0, r3
    6558:	4476      	add	r6, lr
    655a:	fba0 2302 	umull	r2, r3, r0, r2
    655e:	18f1      	adds	r1, r6, r3
    6560:	460b      	mov	r3, r1
    6562:	6839      	ldr	r1, [r7, #0]
    6564:	6809      	ldr	r1, [r1, #0]
    6566:	4608      	mov	r0, r1
    6568:	f04f 0100 	mov.w	r1, #0
    656c:	1812      	adds	r2, r2, r0
    656e:	eb43 0301 	adc.w	r3, r3, r1
    6572:	e9c7 2304 	strd	r2, r3, [r7, #16]
/home/csx/share/gerrit/optee_os/lib/libmpa/mpa_mul.c:55
    6576:	693a      	ldr	r2, [r7, #16]
    6578:	687b      	ldr	r3, [r7, #4]
    657a:	601a      	str	r2, [r3, #0]
/home/csx/share/gerrit/optee_os/lib/libmpa/mpa_mul.c:56
    657c:	e9d7 2304 	ldrd	r2, r3, [r7, #16]
    6580:	001c      	movs	r4, r3
    6582:	2500      	movs	r5, #0
    6584:	4622      	mov	r2, r4
    6586:	683b      	ldr	r3, [r7, #0]
    6588:	601a      	str	r2, [r3, #0]
/home/csx/share/gerrit/optee_os/lib/libmpa/mpa_mul.c:60
    658a:	371c      	adds	r7, #28
    658c:	46bd      	mov	sp, r7
    658e:	e9dd 4500 	ldrd	r4, r5, [sp]
    6592:	e9dd 6702 	ldrd	r6, r7, [sp, #8]
    6596:	b004      	add	sp, #16
    6598:	f85d fb04 	ldr.w	pc, [sp], #4

0000659c <__mpa_mul_add_word_cum>:
__mpa_mul_add_word_cum():
/home/csx/share/gerrit/optee_os/lib/libmpa/mpa_mul.c:71
    659c:	f84d 4d14 	str.w	r4, [sp, #-20]!
    65a0:	e9cd 5601 	strd	r5, r6, [sp, #4]
    65a4:	e9cd 7e03 	strd	r7, lr, [sp, #12]
    65a8:	b087      	sub	sp, #28
    65aa:	af00      	add	r7, sp, #0
    65ac:	60f8      	str	r0, [r7, #12]
    65ae:	60b9      	str	r1, [r7, #8]
    65b0:	607a      	str	r2, [r7, #4]
    65b2:	603b      	str	r3, [r7, #0]
/home/csx/share/gerrit/optee_os/lib/libmpa/mpa_mul.c:76
    65b4:	68fb      	ldr	r3, [r7, #12]
    65b6:	4618      	mov	r0, r3
    65b8:	f04f 0100 	mov.w	r1, #0
    65bc:	68bb      	ldr	r3, [r7, #8]
    65be:	461a      	mov	r2, r3
    65c0:	f04f 0300 	mov.w	r3, #0
    65c4:	fb02 fe01 	mul.w	lr, r2, r1
    65c8:	fb00 f603 	mul.w	r6, r0, r3
    65cc:	4476      	add	r6, lr
    65ce:	fba0 2302 	umull	r2, r3, r0, r2
    65d2:	18f1      	adds	r1, r6, r3
    65d4:	460b      	mov	r3, r1
    65d6:	6879      	ldr	r1, [r7, #4]
    65d8:	6809      	ldr	r1, [r1, #0]
    65da:	4608      	mov	r0, r1
    65dc:	f04f 0100 	mov.w	r1, #0
    65e0:	1880      	adds	r0, r0, r2
    65e2:	eb41 0103 	adc.w	r1, r1, r3
/home/csx/share/gerrit/optee_os/lib/libmpa/mpa_mul.c:77
    65e6:	683b      	ldr	r3, [r7, #0]
    65e8:	681b      	ldr	r3, [r3, #0]
    65ea:	461a      	mov	r2, r3
    65ec:	f04f 0300 	mov.w	r3, #0
/home/csx/share/gerrit/optee_os/lib/libmpa/mpa_mul.c:75
    65f0:	1812      	adds	r2, r2, r0
    65f2:	eb43 0301 	adc.w	r3, r3, r1
    65f6:	e9c7 2304 	strd	r2, r3, [r7, #16]
/home/csx/share/gerrit/optee_os/lib/libmpa/mpa_mul.c:78
    65fa:	693a      	ldr	r2, [r7, #16]
    65fc:	687b      	ldr	r3, [r7, #4]
    65fe:	601a      	str	r2, [r3, #0]
/home/csx/share/gerrit/optee_os/lib/libmpa/mpa_mul.c:79
    6600:	e9d7 2304 	ldrd	r2, r3, [r7, #16]
    6604:	001c      	movs	r4, r3
    6606:	2500      	movs	r5, #0
    6608:	4622      	mov	r2, r4
    660a:	683b      	ldr	r3, [r7, #0]
    660c:	601a      	str	r2, [r3, #0]
/home/csx/share/gerrit/optee_os/lib/libmpa/mpa_mul.c:83
    660e:	371c      	adds	r7, #28
    6610:	46bd      	mov	sp, r7
    6612:	e9dd 4500 	ldrd	r4, r5, [sp]
    6616:	e9dd 6702 	ldrd	r6, r7, [sp, #8]
    661a:	b004      	add	sp, #16
    661c:	f85d fb04 	ldr.w	pc, [sp], #4

00006620 <__mpa_abs_mul_word>:
__mpa_abs_mul_word():
/home/csx/share/gerrit/optee_os/lib/libmpa/mpa_mul.c:95
    6620:	e96d 7e02 	strd	r7, lr, [sp, #-8]!
    6624:	b088      	sub	sp, #32
    6626:	af00      	add	r7, sp, #0
    6628:	60f8      	str	r0, [r7, #12]
    662a:	60b9      	str	r1, [r7, #8]
    662c:	607a      	str	r2, [r7, #4]
/home/csx/share/gerrit/optee_os/lib/libmpa/mpa_mul.c:102
    662e:	68fb      	ldr	r3, [r7, #12]
    6630:	f103 0208 	add.w	r2, r3, #8
    6634:	68fb      	ldr	r3, [r7, #12]
    6636:	681b      	ldr	r3, [r3, #0]
    6638:	009b      	lsls	r3, r3, #2
    663a:	4610      	mov	r0, r2
    663c:	2100      	movs	r1, #0
    663e:	461a      	mov	r2, r3
    6640:	f7fc fc9e 	bl	2f80 <memset>
/home/csx/share/gerrit/optee_os/lib/libmpa/mpa_mul.c:104
    6644:	68bb      	ldr	r3, [r7, #8]
    6646:	3308      	adds	r3, #8
    6648:	61bb      	str	r3, [r7, #24]
/home/csx/share/gerrit/optee_os/lib/libmpa/mpa_mul.c:105
    664a:	68fb      	ldr	r3, [r7, #12]
    664c:	3308      	adds	r3, #8
    664e:	617b      	str	r3, [r7, #20]
/home/csx/share/gerrit/optee_os/lib/libmpa/mpa_mul.c:106
    6650:	2300      	movs	r3, #0
    6652:	613b      	str	r3, [r7, #16]
/home/csx/share/gerrit/optee_os/lib/libmpa/mpa_mul.c:107
    6654:	2300      	movs	r3, #0
    6656:	61fb      	str	r3, [r7, #28]
    6658:	e011      	b.n	667e <__mpa_abs_mul_word+0x5e>
/home/csx/share/gerrit/optee_os/lib/libmpa/mpa_mul.c:108 (discriminator 3)
    665a:	69bb      	ldr	r3, [r7, #24]
    665c:	6819      	ldr	r1, [r3, #0]
    665e:	69fb      	ldr	r3, [r7, #28]
    6660:	009b      	lsls	r3, r3, #2
    6662:	697a      	ldr	r2, [r7, #20]
    6664:	441a      	add	r2, r3
    6666:	f107 0310 	add.w	r3, r7, #16
    666a:	4608      	mov	r0, r1
    666c:	6879      	ldr	r1, [r7, #4]
    666e:	f7ff ff5b 	bl	6528 <__mpa_mul_add_word>
/home/csx/share/gerrit/optee_os/lib/libmpa/mpa_mul.c:109 (discriminator 3)
    6672:	69bb      	ldr	r3, [r7, #24]
    6674:	3304      	adds	r3, #4
    6676:	61bb      	str	r3, [r7, #24]
/home/csx/share/gerrit/optee_os/lib/libmpa/mpa_mul.c:107 (discriminator 3)
    6678:	69fb      	ldr	r3, [r7, #28]
    667a:	3301      	adds	r3, #1
    667c:	61fb      	str	r3, [r7, #28]
/home/csx/share/gerrit/optee_os/lib/libmpa/mpa_mul.c:107 (discriminator 1)
    667e:	68bb      	ldr	r3, [r7, #8]
    6680:	685b      	ldr	r3, [r3, #4]
    6682:	2b00      	cmp	r3, #0
    6684:	bfb8      	it	lt
    6686:	425b      	neglt	r3, r3
    6688:	461a      	mov	r2, r3
    668a:	69fb      	ldr	r3, [r7, #28]
    668c:	429a      	cmp	r2, r3
    668e:	d8e4      	bhi.n	665a <__mpa_abs_mul_word+0x3a>
/home/csx/share/gerrit/optee_os/lib/libmpa/mpa_mul.c:111
    6690:	69fa      	ldr	r2, [r7, #28]
    6692:	68fb      	ldr	r3, [r7, #12]
    6694:	605a      	str	r2, [r3, #4]
/home/csx/share/gerrit/optee_os/lib/libmpa/mpa_mul.c:112
    6696:	693b      	ldr	r3, [r7, #16]
    6698:	2b00      	cmp	r3, #0
    669a:	d00a      	beq.n	66b2 <__mpa_abs_mul_word+0x92>
/home/csx/share/gerrit/optee_os/lib/libmpa/mpa_mul.c:113
    669c:	69fb      	ldr	r3, [r7, #28]
    669e:	009b      	lsls	r3, r3, #2
    66a0:	697a      	ldr	r2, [r7, #20]
    66a2:	4413      	add	r3, r2
    66a4:	693a      	ldr	r2, [r7, #16]
    66a6:	601a      	str	r2, [r3, #0]
/home/csx/share/gerrit/optee_os/lib/libmpa/mpa_mul.c:114
    66a8:	68fb      	ldr	r3, [r7, #12]
    66aa:	685b      	ldr	r3, [r3, #4]
    66ac:	1c5a      	adds	r2, r3, #1
    66ae:	68fb      	ldr	r3, [r7, #12]
    66b0:	605a      	str	r2, [r3, #4]
/home/csx/share/gerrit/optee_os/lib/libmpa/mpa_mul.c:116
    66b2:	3720      	adds	r7, #32
    66b4:	46bd      	mov	sp, r7
    66b6:	bd80      	pop	{r7, pc}

000066b8 <__mpa_abs_mul>:
__mpa_abs_mul():
/home/csx/share/gerrit/optee_os/lib/libmpa/mpa_mul.c:126
    66b8:	e96d 7e02 	strd	r7, lr, [sp, #-8]!
    66bc:	b08a      	sub	sp, #40	; 0x28
    66be:	af00      	add	r7, sp, #0
    66c0:	60f8      	str	r0, [r7, #12]
    66c2:	60b9      	str	r1, [r7, #8]
    66c4:	607a      	str	r2, [r7, #4]
/home/csx/share/gerrit/optee_os/lib/libmpa/mpa_mul.c:127
    66c6:	2300      	movs	r3, #0
    66c8:	627b      	str	r3, [r7, #36]	; 0x24
/home/csx/share/gerrit/optee_os/lib/libmpa/mpa_mul.c:128
    66ca:	2300      	movs	r3, #0
    66cc:	623b      	str	r3, [r7, #32]
/home/csx/share/gerrit/optee_os/lib/libmpa/mpa_mul.c:129
    66ce:	2300      	movs	r3, #0
    66d0:	613b      	str	r3, [r7, #16]
/home/csx/share/gerrit/optee_os/lib/libmpa/mpa_mul.c:135
    66d2:	68fb      	ldr	r3, [r7, #12]
    66d4:	f103 0208 	add.w	r2, r3, #8
    66d8:	68fb      	ldr	r3, [r7, #12]
    66da:	681b      	ldr	r3, [r3, #0]
    66dc:	009b      	lsls	r3, r3, #2
    66de:	4610      	mov	r0, r2
    66e0:	2100      	movs	r1, #0
    66e2:	461a      	mov	r2, r3
    66e4:	f7fc fc4c 	bl	2f80 <memset>
/home/csx/share/gerrit/optee_os/lib/libmpa/mpa_mul.c:137
    66e8:	68bb      	ldr	r3, [r7, #8]
    66ea:	3308      	adds	r3, #8
    66ec:	61bb      	str	r3, [r7, #24]
/home/csx/share/gerrit/optee_os/lib/libmpa/mpa_mul.c:138
    66ee:	68fb      	ldr	r3, [r7, #12]
    66f0:	3308      	adds	r3, #8
    66f2:	61fb      	str	r3, [r7, #28]
/home/csx/share/gerrit/optee_os/lib/libmpa/mpa_mul.c:139
    66f4:	2300      	movs	r3, #0
    66f6:	627b      	str	r3, [r7, #36]	; 0x24
    66f8:	e034      	b.n	6764 <__mpa_abs_mul+0xac>
/home/csx/share/gerrit/optee_os/lib/libmpa/mpa_mul.c:140
    66fa:	687b      	ldr	r3, [r7, #4]
    66fc:	3308      	adds	r3, #8
    66fe:	617b      	str	r3, [r7, #20]
/home/csx/share/gerrit/optee_os/lib/libmpa/mpa_mul.c:141
    6700:	2300      	movs	r3, #0
    6702:	613b      	str	r3, [r7, #16]
/home/csx/share/gerrit/optee_os/lib/libmpa/mpa_mul.c:142
    6704:	2300      	movs	r3, #0
    6706:	623b      	str	r3, [r7, #32]
    6708:	e011      	b.n	672e <__mpa_abs_mul+0x76>
/home/csx/share/gerrit/optee_os/lib/libmpa/mpa_mul.c:143 (discriminator 3)
    670a:	69bb      	ldr	r3, [r7, #24]
    670c:	6818      	ldr	r0, [r3, #0]
    670e:	697b      	ldr	r3, [r7, #20]
    6710:	6819      	ldr	r1, [r3, #0]
    6712:	6a3b      	ldr	r3, [r7, #32]
    6714:	009b      	lsls	r3, r3, #2
    6716:	69fa      	ldr	r2, [r7, #28]
    6718:	441a      	add	r2, r3
    671a:	f107 0310 	add.w	r3, r7, #16
    671e:	f7ff ff3d 	bl	659c <__mpa_mul_add_word_cum>
/home/csx/share/gerrit/optee_os/lib/libmpa/mpa_mul.c:144 (discriminator 3)
    6722:	697b      	ldr	r3, [r7, #20]
    6724:	3304      	adds	r3, #4
    6726:	617b      	str	r3, [r7, #20]
/home/csx/share/gerrit/optee_os/lib/libmpa/mpa_mul.c:142 (discriminator 3)
    6728:	6a3b      	ldr	r3, [r7, #32]
    672a:	3301      	adds	r3, #1
    672c:	623b      	str	r3, [r7, #32]
/home/csx/share/gerrit/optee_os/lib/libmpa/mpa_mul.c:142 (discriminator 1)
    672e:	687b      	ldr	r3, [r7, #4]
    6730:	685b      	ldr	r3, [r3, #4]
    6732:	2b00      	cmp	r3, #0
    6734:	bfb8      	it	lt
    6736:	425b      	neglt	r3, r3
    6738:	461a      	mov	r2, r3
    673a:	6a3b      	ldr	r3, [r7, #32]
    673c:	429a      	cmp	r2, r3
    673e:	d8e4      	bhi.n	670a <__mpa_abs_mul+0x52>
/home/csx/share/gerrit/optee_os/lib/libmpa/mpa_mul.c:146
    6740:	693b      	ldr	r3, [r7, #16]
    6742:	2b00      	cmp	r3, #0
    6744:	d005      	beq.n	6752 <__mpa_abs_mul+0x9a>
/home/csx/share/gerrit/optee_os/lib/libmpa/mpa_mul.c:147
    6746:	6a3b      	ldr	r3, [r7, #32]
    6748:	009b      	lsls	r3, r3, #2
    674a:	69fa      	ldr	r2, [r7, #28]
    674c:	4413      	add	r3, r2
    674e:	693a      	ldr	r2, [r7, #16]
    6750:	601a      	str	r2, [r3, #0]
/home/csx/share/gerrit/optee_os/lib/libmpa/mpa_mul.c:148 (discriminator 2)
    6752:	69bb      	ldr	r3, [r7, #24]
    6754:	3304      	adds	r3, #4
    6756:	61bb      	str	r3, [r7, #24]
/home/csx/share/gerrit/optee_os/lib/libmpa/mpa_mul.c:149 (discriminator 2)
    6758:	69fb      	ldr	r3, [r7, #28]
    675a:	3304      	adds	r3, #4
    675c:	61fb      	str	r3, [r7, #28]
/home/csx/share/gerrit/optee_os/lib/libmpa/mpa_mul.c:139 (discriminator 2)
    675e:	6a7b      	ldr	r3, [r7, #36]	; 0x24
    6760:	3301      	adds	r3, #1
    6762:	627b      	str	r3, [r7, #36]	; 0x24
/home/csx/share/gerrit/optee_os/lib/libmpa/mpa_mul.c:139 (discriminator 1)
    6764:	68bb      	ldr	r3, [r7, #8]
    6766:	685b      	ldr	r3, [r3, #4]
    6768:	2b00      	cmp	r3, #0
    676a:	bfb8      	it	lt
    676c:	425b      	neglt	r3, r3
    676e:	461a      	mov	r2, r3
    6770:	6a7b      	ldr	r3, [r7, #36]	; 0x24
    6772:	429a      	cmp	r2, r3
    6774:	d8c1      	bhi.n	66fa <__mpa_abs_mul+0x42>
/home/csx/share/gerrit/optee_os/lib/libmpa/mpa_mul.c:151
    6776:	6a7a      	ldr	r2, [r7, #36]	; 0x24
    6778:	6a3b      	ldr	r3, [r7, #32]
    677a:	4413      	add	r3, r2
    677c:	3b01      	subs	r3, #1
    677e:	461a      	mov	r2, r3
    6780:	68fb      	ldr	r3, [r7, #12]
    6782:	605a      	str	r2, [r3, #4]
/home/csx/share/gerrit/optee_os/lib/libmpa/mpa_mul.c:152
    6784:	693b      	ldr	r3, [r7, #16]
    6786:	2b00      	cmp	r3, #0
    6788:	d004      	beq.n	6794 <__mpa_abs_mul+0xdc>
/home/csx/share/gerrit/optee_os/lib/libmpa/mpa_mul.c:153
    678a:	68fb      	ldr	r3, [r7, #12]
    678c:	685b      	ldr	r3, [r3, #4]
    678e:	1c5a      	adds	r2, r3, #1
    6790:	68fb      	ldr	r3, [r7, #12]
    6792:	605a      	str	r2, [r3, #4]
/home/csx/share/gerrit/optee_os/lib/libmpa/mpa_mul.c:154
    6794:	3728      	adds	r7, #40	; 0x28
    6796:	46bd      	mov	sp, r7
    6798:	bd80      	pop	{r7, pc}
    679a:	bf00      	nop

0000679c <mpa_mul>:
mpa_mul():
/home/csx/share/gerrit/optee_os/lib/libmpa/mpa_mul.c:169
    679c:	e96d 7e02 	strd	r7, lr, [sp, #-8]!
    67a0:	b086      	sub	sp, #24
    67a2:	af00      	add	r7, sp, #0
    67a4:	60f8      	str	r0, [r7, #12]
    67a6:	60b9      	str	r1, [r7, #8]
    67a8:	607a      	str	r2, [r7, #4]
    67aa:	603b      	str	r3, [r7, #0]
/home/csx/share/gerrit/optee_os/lib/libmpa/mpa_mul.c:173
    67ac:	68bb      	ldr	r3, [r7, #8]
    67ae:	685b      	ldr	r3, [r3, #4]
    67b0:	2b00      	cmp	r3, #0
    67b2:	d003      	beq.n	67bc <mpa_mul+0x20>
/home/csx/share/gerrit/optee_os/lib/libmpa/mpa_mul.c:173 (discriminator 1)
    67b4:	687b      	ldr	r3, [r7, #4]
    67b6:	685b      	ldr	r3, [r3, #4]
    67b8:	2b00      	cmp	r3, #0
    67ba:	d104      	bne.n	67c6 <mpa_mul+0x2a>
/home/csx/share/gerrit/optee_os/lib/libmpa/mpa_mul.c:174
    67bc:	68f8      	ldr	r0, [r7, #12]
    67be:	2100      	movs	r1, #0
    67c0:	f7fe fcba 	bl	5138 <mpa_set_word>
    67c4:	e042      	b.n	684c <mpa_mul+0xb0>
/home/csx/share/gerrit/optee_os/lib/libmpa/mpa_mul.c:179
    67c6:	68fa      	ldr	r2, [r7, #12]
    67c8:	68bb      	ldr	r3, [r7, #8]
    67ca:	429a      	cmp	r2, r3
    67cc:	d003      	beq.n	67d6 <mpa_mul+0x3a>
/home/csx/share/gerrit/optee_os/lib/libmpa/mpa_mul.c:179 (discriminator 2)
    67ce:	68fa      	ldr	r2, [r7, #12]
    67d0:	687b      	ldr	r3, [r7, #4]
    67d2:	429a      	cmp	r2, r3
    67d4:	d101      	bne.n	67da <mpa_mul+0x3e>
/home/csx/share/gerrit/optee_os/lib/libmpa/mpa_mul.c:179 (discriminator 3)
    67d6:	2301      	movs	r3, #1
    67d8:	e000      	b.n	67dc <mpa_mul+0x40>
/home/csx/share/gerrit/optee_os/lib/libmpa/mpa_mul.c:179 (discriminator 4)
    67da:	2300      	movs	r3, #0
/home/csx/share/gerrit/optee_os/lib/libmpa/mpa_mul.c:179 (discriminator 6)
    67dc:	75fb      	strb	r3, [r7, #23]
/home/csx/share/gerrit/optee_os/lib/libmpa/mpa_mul.c:180 (discriminator 6)
    67de:	7dfb      	ldrb	r3, [r7, #23]
    67e0:	2b00      	cmp	r3, #0
    67e2:	d006      	beq.n	67f2 <mpa_mul+0x56>
/home/csx/share/gerrit/optee_os/lib/libmpa/mpa_mul.c:181
    67e4:	f107 0310 	add.w	r3, r7, #16
    67e8:	4618      	mov	r0, r3
    67ea:	6839      	ldr	r1, [r7, #0]
    67ec:	f7ff fe46 	bl	647c <mpa_alloc_static_temp_var>
    67f0:	e001      	b.n	67f6 <mpa_mul+0x5a>
/home/csx/share/gerrit/optee_os/lib/libmpa/mpa_mul.c:183
    67f2:	68fb      	ldr	r3, [r7, #12]
    67f4:	613b      	str	r3, [r7, #16]
/home/csx/share/gerrit/optee_os/lib/libmpa/mpa_mul.c:185
    67f6:	693b      	ldr	r3, [r7, #16]
    67f8:	4618      	mov	r0, r3
    67fa:	68b9      	ldr	r1, [r7, #8]
    67fc:	687a      	ldr	r2, [r7, #4]
    67fe:	f7ff ff5b 	bl	66b8 <__mpa_abs_mul>
/home/csx/share/gerrit/optee_os/lib/libmpa/mpa_mul.c:187
    6802:	68bb      	ldr	r3, [r7, #8]
    6804:	685b      	ldr	r3, [r3, #4]
    6806:	2b00      	cmp	r3, #0
    6808:	db01      	blt.n	680e <mpa_mul+0x72>
/home/csx/share/gerrit/optee_os/lib/libmpa/mpa_mul.c:187 (discriminator 1)
    680a:	2201      	movs	r2, #1
    680c:	e001      	b.n	6812 <mpa_mul+0x76>
/home/csx/share/gerrit/optee_os/lib/libmpa/mpa_mul.c:187 (discriminator 2)
    680e:	f04f 32ff 	mov.w	r2, #4294967295	; 0xffffffff
/home/csx/share/gerrit/optee_os/lib/libmpa/mpa_mul.c:187 (discriminator 4)
    6812:	687b      	ldr	r3, [r7, #4]
    6814:	685b      	ldr	r3, [r3, #4]
    6816:	2b00      	cmp	r3, #0
    6818:	db01      	blt.n	681e <mpa_mul+0x82>
/home/csx/share/gerrit/optee_os/lib/libmpa/mpa_mul.c:187 (discriminator 5)
    681a:	2301      	movs	r3, #1
    681c:	e001      	b.n	6822 <mpa_mul+0x86>
/home/csx/share/gerrit/optee_os/lib/libmpa/mpa_mul.c:187 (discriminator 6)
    681e:	f04f 33ff 	mov.w	r3, #4294967295	; 0xffffffff
/home/csx/share/gerrit/optee_os/lib/libmpa/mpa_mul.c:187 (discriminator 8)
    6822:	429a      	cmp	r2, r3
    6824:	d004      	beq.n	6830 <mpa_mul+0x94>
/home/csx/share/gerrit/optee_os/lib/libmpa/mpa_mul.c:188
    6826:	693b      	ldr	r3, [r7, #16]
    6828:	693a      	ldr	r2, [r7, #16]
    682a:	6852      	ldr	r2, [r2, #4]
    682c:	4252      	negs	r2, r2
    682e:	605a      	str	r2, [r3, #4]
/home/csx/share/gerrit/optee_os/lib/libmpa/mpa_mul.c:190
    6830:	693b      	ldr	r3, [r7, #16]
    6832:	68f8      	ldr	r0, [r7, #12]
    6834:	4619      	mov	r1, r3
    6836:	f7fd feef 	bl	4618 <mpa_copy>
/home/csx/share/gerrit/optee_os/lib/libmpa/mpa_mul.c:191
    683a:	7dfb      	ldrb	r3, [r7, #23]
    683c:	2b00      	cmp	r3, #0
    683e:	d005      	beq.n	684c <mpa_mul+0xb0>
/home/csx/share/gerrit/optee_os/lib/libmpa/mpa_mul.c:192
    6840:	f107 0310 	add.w	r3, r7, #16
    6844:	4618      	mov	r0, r3
    6846:	6839      	ldr	r1, [r7, #0]
    6848:	f7ff fe2a 	bl	64a0 <mpa_free_static_temp_var>
/home/csx/share/gerrit/optee_os/lib/libmpa/mpa_mul.c:193
    684c:	3718      	adds	r7, #24
    684e:	46bd      	mov	sp, r7
    6850:	bd80      	pop	{r7, pc}
    6852:	bf00      	nop

00006854 <mpa_mul_word>:
mpa_mul_word():
/home/csx/share/gerrit/optee_os/lib/libmpa/mpa_mul.c:202
    6854:	e96d 7e02 	strd	r7, lr, [sp, #-8]!
    6858:	b088      	sub	sp, #32
    685a:	af00      	add	r7, sp, #0
    685c:	60f8      	str	r0, [r7, #12]
    685e:	60b9      	str	r1, [r7, #8]
    6860:	607a      	str	r2, [r7, #4]
    6862:	603b      	str	r3, [r7, #0]
/home/csx/share/gerrit/optee_os/lib/libmpa/mpa_mul.c:207
    6864:	68bb      	ldr	r3, [r7, #8]
    6866:	685b      	ldr	r3, [r3, #4]
    6868:	2b00      	cmp	r3, #0
    686a:	d002      	beq.n	6872 <mpa_mul_word+0x1e>
/home/csx/share/gerrit/optee_os/lib/libmpa/mpa_mul.c:207 (discriminator 1)
    686c:	687b      	ldr	r3, [r7, #4]
    686e:	2b00      	cmp	r3, #0
    6870:	d104      	bne.n	687c <mpa_mul_word+0x28>
/home/csx/share/gerrit/optee_os/lib/libmpa/mpa_mul.c:208
    6872:	68f8      	ldr	r0, [r7, #12]
    6874:	2100      	movs	r1, #0
    6876:	f7fe fc5f 	bl	5138 <mpa_set_word>
    687a:	e039      	b.n	68f0 <mpa_mul_word+0x9c>
/home/csx/share/gerrit/optee_os/lib/libmpa/mpa_mul.c:212
    687c:	68bb      	ldr	r3, [r7, #8]
    687e:	685b      	ldr	r3, [r3, #4]
    6880:	2b00      	cmp	r3, #0
    6882:	db01      	blt.n	6888 <mpa_mul_word+0x34>
/home/csx/share/gerrit/optee_os/lib/libmpa/mpa_mul.c:212 (discriminator 1)
    6884:	2301      	movs	r3, #1
    6886:	e001      	b.n	688c <mpa_mul_word+0x38>
/home/csx/share/gerrit/optee_os/lib/libmpa/mpa_mul.c:212 (discriminator 2)
    6888:	f04f 33ff 	mov.w	r3, #4294967295	; 0xffffffff
/home/csx/share/gerrit/optee_os/lib/libmpa/mpa_mul.c:212 (discriminator 4)
    688c:	61fb      	str	r3, [r7, #28]
/home/csx/share/gerrit/optee_os/lib/libmpa/mpa_mul.c:215 (discriminator 4)
    688e:	68fa      	ldr	r2, [r7, #12]
    6890:	68bb      	ldr	r3, [r7, #8]
    6892:	429a      	cmp	r2, r3
    6894:	bf0c      	ite	eq
    6896:	2301      	moveq	r3, #1
    6898:	2300      	movne	r3, #0
    689a:	b2db      	uxtb	r3, r3
    689c:	76fb      	strb	r3, [r7, #27]
/home/csx/share/gerrit/optee_os/lib/libmpa/mpa_mul.c:216 (discriminator 4)
    689e:	7efb      	ldrb	r3, [r7, #27]
    68a0:	2b00      	cmp	r3, #0
    68a2:	d006      	beq.n	68b2 <mpa_mul_word+0x5e>
/home/csx/share/gerrit/optee_os/lib/libmpa/mpa_mul.c:217
    68a4:	f107 0314 	add.w	r3, r7, #20
    68a8:	4618      	mov	r0, r3
    68aa:	6839      	ldr	r1, [r7, #0]
    68ac:	f7ff fde6 	bl	647c <mpa_alloc_static_temp_var>
    68b0:	e001      	b.n	68b6 <mpa_mul_word+0x62>
/home/csx/share/gerrit/optee_os/lib/libmpa/mpa_mul.c:219
    68b2:	68fb      	ldr	r3, [r7, #12]
    68b4:	617b      	str	r3, [r7, #20]
/home/csx/share/gerrit/optee_os/lib/libmpa/mpa_mul.c:221
    68b6:	697b      	ldr	r3, [r7, #20]
    68b8:	4618      	mov	r0, r3
    68ba:	68b9      	ldr	r1, [r7, #8]
    68bc:	687a      	ldr	r2, [r7, #4]
    68be:	f7ff feaf 	bl	6620 <__mpa_abs_mul_word>
/home/csx/share/gerrit/optee_os/lib/libmpa/mpa_mul.c:223
    68c2:	69fb      	ldr	r3, [r7, #28]
    68c4:	f1b3 3fff 	cmp.w	r3, #4294967295	; 0xffffffff
    68c8:	d104      	bne.n	68d4 <mpa_mul_word+0x80>
/home/csx/share/gerrit/optee_os/lib/libmpa/mpa_mul.c:224
    68ca:	697b      	ldr	r3, [r7, #20]
    68cc:	697a      	ldr	r2, [r7, #20]
    68ce:	6852      	ldr	r2, [r2, #4]
    68d0:	4252      	negs	r2, r2
    68d2:	605a      	str	r2, [r3, #4]
/home/csx/share/gerrit/optee_os/lib/libmpa/mpa_mul.c:225
    68d4:	697b      	ldr	r3, [r7, #20]
    68d6:	68f8      	ldr	r0, [r7, #12]
    68d8:	4619      	mov	r1, r3
    68da:	f7fd fe9d 	bl	4618 <mpa_copy>
/home/csx/share/gerrit/optee_os/lib/libmpa/mpa_mul.c:226
    68de:	7efb      	ldrb	r3, [r7, #27]
    68e0:	2b00      	cmp	r3, #0
    68e2:	d005      	beq.n	68f0 <mpa_mul_word+0x9c>
/home/csx/share/gerrit/optee_os/lib/libmpa/mpa_mul.c:227
    68e4:	f107 0314 	add.w	r3, r7, #20
    68e8:	4618      	mov	r0, r3
    68ea:	6839      	ldr	r1, [r7, #0]
    68ec:	f7ff fdd8 	bl	64a0 <mpa_free_static_temp_var>
/home/csx/share/gerrit/optee_os/lib/libmpa/mpa_mul.c:228
    68f0:	3720      	adds	r7, #32
    68f2:	46bd      	mov	sp, r7
    68f4:	bd80      	pop	{r7, pc}
    68f6:	bf00      	nop

000068f8 <mpa_set_random_generator>:
mpa_set_random_generator():
/home/csx/share/gerrit/optee_os/lib/libmpa/mpa_random.c:33
    68f8:	f84d 7d04 	str.w	r7, [sp, #-4]!
    68fc:	b083      	sub	sp, #12
    68fe:	af00      	add	r7, sp, #0
    6900:	6078      	str	r0, [r7, #4]
/home/csx/share/gerrit/optee_os/lib/libmpa/mpa_random.c:34
    6902:	4b05      	ldr	r3, [pc, #20]	; (6918 <mpa_set_random_generator+0x20>)
    6904:	447b      	add	r3, pc
    6906:	461a      	mov	r2, r3
    6908:	687b      	ldr	r3, [r7, #4]
    690a:	6013      	str	r3, [r2, #0]
/home/csx/share/gerrit/optee_os/lib/libmpa/mpa_random.c:35
    690c:	370c      	adds	r7, #12
    690e:	46bd      	mov	sp, r7
    6910:	f85d 7b04 	ldr.w	r7, [sp], #4
    6914:	4770      	bx	lr
    6916:	bf00      	nop
    6918:	0000e2f0 	.word	0x0000e2f0

0000691c <get_random_byte>:
get_random_byte():
/home/csx/share/gerrit/optee_os/lib/libmpa/mpa_random.c:38
    691c:	e96d 7e02 	strd	r7, lr, [sp, #-8]!
    6920:	b082      	sub	sp, #8
    6922:	af00      	add	r7, sp, #0
/home/csx/share/gerrit/optee_os/lib/libmpa/mpa_random.c:40
    6924:	bf00      	nop
/home/csx/share/gerrit/optee_os/lib/libmpa/mpa_random.c:40 (discriminator 1)
    6926:	4b07      	ldr	r3, [pc, #28]	; (6944 <get_random_byte+0x28>)
    6928:	447b      	add	r3, pc
    692a:	681b      	ldr	r3, [r3, #0]
    692c:	1dfa      	adds	r2, r7, #7
    692e:	4610      	mov	r0, r2
    6930:	2101      	movs	r1, #1
    6932:	4798      	blx	r3
    6934:	4603      	mov	r3, r0
    6936:	2b00      	cmp	r3, #0
    6938:	d1f5      	bne.n	6926 <get_random_byte+0xa>
/home/csx/share/gerrit/optee_os/lib/libmpa/mpa_random.c:43
    693a:	79fb      	ldrb	r3, [r7, #7]
/home/csx/share/gerrit/optee_os/lib/libmpa/mpa_random.c:44
    693c:	4618      	mov	r0, r3
    693e:	3708      	adds	r7, #8
    6940:	46bd      	mov	sp, r7
    6942:	bd80      	pop	{r7, pc}
    6944:	0000e2cc 	.word	0x0000e2cc

00006948 <mpa_get_random>:
mpa_get_random():
/home/csx/share/gerrit/optee_os/lib/libmpa/mpa_random.c:52
    6948:	f84d 4d0c 	str.w	r4, [sp, #-12]!
    694c:	e9cd 7e01 	strd	r7, lr, [sp, #4]
    6950:	b089      	sub	sp, #36	; 0x24
    6952:	af00      	add	r7, sp, #0
    6954:	6078      	str	r0, [r7, #4]
    6956:	6039      	str	r1, [r7, #0]
/home/csx/share/gerrit/optee_os/lib/libmpa/mpa_random.c:53
    6958:	2300      	movs	r3, #0
    695a:	61fb      	str	r3, [r7, #28]
/home/csx/share/gerrit/optee_os/lib/libmpa/mpa_random.c:55
    695c:	6878      	ldr	r0, [r7, #4]
    695e:	f7fd fe45 	bl	45ec <mpa_wipe>
/home/csx/share/gerrit/optee_os/lib/libmpa/mpa_random.c:56
    6962:	687b      	ldr	r3, [r7, #4]
    6964:	681b      	ldr	r3, [r3, #0]
    6966:	683a      	ldr	r2, [r7, #0]
    6968:	6852      	ldr	r2, [r2, #4]
    696a:	2a00      	cmp	r2, #0
    696c:	bfb8      	it	lt
    696e:	4252      	neglt	r2, r2
    6970:	4293      	cmp	r3, r2
    6972:	d205      	bcs.n	6980 <mpa_get_random+0x38>
/home/csx/share/gerrit/optee_os/lib/libmpa/mpa_random.c:57
    6974:	687b      	ldr	r3, [r7, #4]
    6976:	681b      	ldr	r3, [r3, #0]
    6978:	461a      	mov	r2, r3
    697a:	687b      	ldr	r3, [r7, #4]
    697c:	605a      	str	r2, [r3, #4]
    697e:	e007      	b.n	6990 <mpa_get_random+0x48>
/home/csx/share/gerrit/optee_os/lib/libmpa/mpa_random.c:59
    6980:	683b      	ldr	r3, [r7, #0]
    6982:	685b      	ldr	r3, [r3, #4]
    6984:	ea83 72e3 	eor.w	r2, r3, r3, asr #31
    6988:	eba2 72e3 	sub.w	r2, r2, r3, asr #31
    698c:	687b      	ldr	r3, [r7, #4]
    698e:	605a      	str	r2, [r3, #4]
/home/csx/share/gerrit/optee_os/lib/libmpa/mpa_random.c:60
    6990:	e059      	b.n	6a46 <mpa_get_random+0xfe>
/home/csx/share/gerrit/optee_os/lib/libmpa/mpa_random.c:61
    6992:	2300      	movs	r3, #0
    6994:	61bb      	str	r3, [r7, #24]
    6996:	e01a      	b.n	69ce <mpa_get_random+0x86>
/home/csx/share/gerrit/optee_os/lib/libmpa/mpa_random.c:62
    6998:	2300      	movs	r3, #0
    699a:	617b      	str	r3, [r7, #20]
/home/csx/share/gerrit/optee_os/lib/libmpa/mpa_random.c:63
    699c:	2300      	movs	r3, #0
    699e:	613b      	str	r3, [r7, #16]
    69a0:	e009      	b.n	69b6 <mpa_get_random+0x6e>
/home/csx/share/gerrit/optee_os/lib/libmpa/mpa_random.c:64 (discriminator 3)
    69a2:	697b      	ldr	r3, [r7, #20]
    69a4:	021c      	lsls	r4, r3, #8
    69a6:	f7ff ffb9 	bl	691c <get_random_byte>
    69aa:	4603      	mov	r3, r0
    69ac:	4063      	eors	r3, r4
    69ae:	617b      	str	r3, [r7, #20]
/home/csx/share/gerrit/optee_os/lib/libmpa/mpa_random.c:63 (discriminator 3)
    69b0:	693b      	ldr	r3, [r7, #16]
    69b2:	3301      	adds	r3, #1
    69b4:	613b      	str	r3, [r7, #16]
/home/csx/share/gerrit/optee_os/lib/libmpa/mpa_random.c:63 (discriminator 1)
    69b6:	693b      	ldr	r3, [r7, #16]
    69b8:	2b03      	cmp	r3, #3
    69ba:	ddf2      	ble.n	69a2 <mpa_get_random+0x5a>
/home/csx/share/gerrit/optee_os/lib/libmpa/mpa_random.c:65 (discriminator 2)
    69bc:	687b      	ldr	r3, [r7, #4]
    69be:	69ba      	ldr	r2, [r7, #24]
    69c0:	3202      	adds	r2, #2
    69c2:	6979      	ldr	r1, [r7, #20]
    69c4:	f843 1022 	str.w	r1, [r3, r2, lsl #2]
/home/csx/share/gerrit/optee_os/lib/libmpa/mpa_random.c:61 (discriminator 2)
    69c8:	69bb      	ldr	r3, [r7, #24]
    69ca:	3301      	adds	r3, #1
    69cc:	61bb      	str	r3, [r7, #24]
/home/csx/share/gerrit/optee_os/lib/libmpa/mpa_random.c:61 (discriminator 1)
    69ce:	687b      	ldr	r3, [r7, #4]
    69d0:	685a      	ldr	r2, [r3, #4]
    69d2:	69bb      	ldr	r3, [r7, #24]
    69d4:	429a      	cmp	r2, r3
    69d6:	dcdf      	bgt.n	6998 <mpa_get_random+0x50>
/home/csx/share/gerrit/optee_os/lib/libmpa/mpa_random.c:67
    69d8:	687b      	ldr	r3, [r7, #4]
    69da:	685a      	ldr	r2, [r3, #4]
    69dc:	683b      	ldr	r3, [r7, #0]
    69de:	685b      	ldr	r3, [r3, #4]
    69e0:	2b00      	cmp	r3, #0
    69e2:	bfb8      	it	lt
    69e4:	425b      	neglt	r3, r3
    69e6:	429a      	cmp	r2, r3
    69e8:	da02      	bge.n	69f0 <mpa_get_random+0xa8>
/home/csx/share/gerrit/optee_os/lib/libmpa/mpa_random.c:68
    69ea:	2301      	movs	r3, #1
    69ec:	61fb      	str	r3, [r7, #28]
    69ee:	e02a      	b.n	6a46 <mpa_get_random+0xfe>
/home/csx/share/gerrit/optee_os/lib/libmpa/mpa_random.c:71
    69f0:	6838      	ldr	r0, [r7, #0]
    69f2:	f7fd fe4b 	bl	468c <mpa_highest_bit_index>
    69f6:	4603      	mov	r3, r0
/home/csx/share/gerrit/optee_os/lib/libmpa/mpa_random.c:70
    69f8:	60fb      	str	r3, [r7, #12]
/home/csx/share/gerrit/optee_os/lib/libmpa/mpa_random.c:73
    69fa:	68fb      	ldr	r3, [r7, #12]
    69fc:	f003 031f 	and.w	r3, r3, #31
    6a00:	3301      	adds	r3, #1
    6a02:	60fb      	str	r3, [r7, #12]
/home/csx/share/gerrit/optee_os/lib/libmpa/mpa_random.c:74
    6a04:	68fb      	ldr	r3, [r7, #12]
    6a06:	2b1f      	cmp	r3, #31
    6a08:	d815      	bhi.n	6a36 <mpa_get_random+0xee>
/home/csx/share/gerrit/optee_os/lib/libmpa/mpa_random.c:75
    6a0a:	68fb      	ldr	r3, [r7, #12]
    6a0c:	2201      	movs	r2, #1
    6a0e:	fa02 f303 	lsl.w	r3, r2, r3
    6a12:	3b01      	subs	r3, #1
    6a14:	60fb      	str	r3, [r7, #12]
/home/csx/share/gerrit/optee_os/lib/libmpa/mpa_random.c:76
    6a16:	687b      	ldr	r3, [r7, #4]
    6a18:	685b      	ldr	r3, [r3, #4]
    6a1a:	1e5a      	subs	r2, r3, #1
    6a1c:	687b      	ldr	r3, [r7, #4]
    6a1e:	685b      	ldr	r3, [r3, #4]
    6a20:	1e59      	subs	r1, r3, #1
    6a22:	687b      	ldr	r3, [r7, #4]
    6a24:	3102      	adds	r1, #2
    6a26:	f853 1021 	ldr.w	r1, [r3, r1, lsl #2]
    6a2a:	68fb      	ldr	r3, [r7, #12]
    6a2c:	4019      	ands	r1, r3
    6a2e:	687b      	ldr	r3, [r7, #4]
    6a30:	3202      	adds	r2, #2
    6a32:	f843 1022 	str.w	r1, [r3, r2, lsl #2]
/home/csx/share/gerrit/optee_os/lib/libmpa/mpa_random.c:78
    6a36:	6878      	ldr	r0, [r7, #4]
    6a38:	6839      	ldr	r1, [r7, #0]
    6a3a:	f001 f807 	bl	7a4c <mpa_cmp>
    6a3e:	4603      	mov	r3, r0
    6a40:	0fdb      	lsrs	r3, r3, #31
    6a42:	b2db      	uxtb	r3, r3
    6a44:	61fb      	str	r3, [r7, #28]
/home/csx/share/gerrit/optee_os/lib/libmpa/mpa_random.c:60
    6a46:	69fb      	ldr	r3, [r7, #28]
    6a48:	2b00      	cmp	r3, #0
    6a4a:	d0a2      	beq.n	6992 <mpa_get_random+0x4a>
/home/csx/share/gerrit/optee_os/lib/libmpa/mpa_random.c:81
    6a4c:	3724      	adds	r7, #36	; 0x24
    6a4e:	46bd      	mov	sp, r7
    6a50:	e9dd 4700 	ldrd	r4, r7, [sp]
    6a54:	b002      	add	sp, #8
    6a56:	f85d fb04 	ldr.w	pc, [sp], #4
    6a5a:	bf00      	nop

00006a5c <__mpa_shift_words_left>:
__mpa_shift_words_left():
/home/csx/share/gerrit/optee_os/lib/libmpa/mpa_shift.c:41
    6a5c:	e96d 7e02 	strd	r7, lr, [sp, #-8]!
    6a60:	b084      	sub	sp, #16
    6a62:	af00      	add	r7, sp, #0
    6a64:	6078      	str	r0, [r7, #4]
    6a66:	6039      	str	r1, [r7, #0]
/home/csx/share/gerrit/optee_os/lib/libmpa/mpa_shift.c:44
    6a68:	683b      	ldr	r3, [r7, #0]
    6a6a:	2b00      	cmp	r3, #0
    6a6c:	d003      	beq.n	6a76 <__mpa_shift_words_left+0x1a>
/home/csx/share/gerrit/optee_os/lib/libmpa/mpa_shift.c:44 (discriminator 1)
    6a6e:	687b      	ldr	r3, [r7, #4]
    6a70:	685b      	ldr	r3, [r3, #4]
    6a72:	2b00      	cmp	r3, #0
    6a74:	d100      	bne.n	6a78 <__mpa_shift_words_left+0x1c>
/home/csx/share/gerrit/optee_os/lib/libmpa/mpa_shift.c:45
    6a76:	e03d      	b.n	6af4 <__mpa_shift_words_left+0x98>
/home/csx/share/gerrit/optee_os/lib/libmpa/mpa_shift.c:46
    6a78:	687b      	ldr	r3, [r7, #4]
    6a7a:	685b      	ldr	r3, [r3, #4]
    6a7c:	2b00      	cmp	r3, #0
    6a7e:	bfb8      	it	lt
    6a80:	425b      	neglt	r3, r3
    6a82:	461a      	mov	r2, r3
    6a84:	683b      	ldr	r3, [r7, #0]
    6a86:	4413      	add	r3, r2
    6a88:	3b01      	subs	r3, #1
    6a8a:	60fb      	str	r3, [r7, #12]
    6a8c:	e00e      	b.n	6aac <__mpa_shift_words_left+0x50>
/home/csx/share/gerrit/optee_os/lib/libmpa/mpa_shift.c:47 (discriminator 3)
    6a8e:	68fa      	ldr	r2, [r7, #12]
    6a90:	683b      	ldr	r3, [r7, #0]
    6a92:	1ad2      	subs	r2, r2, r3
    6a94:	687b      	ldr	r3, [r7, #4]
    6a96:	3202      	adds	r2, #2
    6a98:	f853 1022 	ldr.w	r1, [r3, r2, lsl #2]
    6a9c:	687b      	ldr	r3, [r7, #4]
    6a9e:	68fa      	ldr	r2, [r7, #12]
    6aa0:	3202      	adds	r2, #2
    6aa2:	f843 1022 	str.w	r1, [r3, r2, lsl #2]
/home/csx/share/gerrit/optee_os/lib/libmpa/mpa_shift.c:46 (discriminator 3)
    6aa6:	68fb      	ldr	r3, [r7, #12]
    6aa8:	3b01      	subs	r3, #1
    6aaa:	60fb      	str	r3, [r7, #12]
/home/csx/share/gerrit/optee_os/lib/libmpa/mpa_shift.c:46 (discriminator 1)
    6aac:	683b      	ldr	r3, [r7, #0]
    6aae:	1e5a      	subs	r2, r3, #1
    6ab0:	68fb      	ldr	r3, [r7, #12]
    6ab2:	429a      	cmp	r2, r3
    6ab4:	d3eb      	bcc.n	6a8e <__mpa_shift_words_left+0x32>
/home/csx/share/gerrit/optee_os/lib/libmpa/mpa_shift.c:49
    6ab6:	687b      	ldr	r3, [r7, #4]
    6ab8:	f103 0208 	add.w	r2, r3, #8
    6abc:	683b      	ldr	r3, [r7, #0]
    6abe:	009b      	lsls	r3, r3, #2
    6ac0:	4610      	mov	r0, r2
    6ac2:	2100      	movs	r1, #0
    6ac4:	461a      	mov	r2, r3
    6ac6:	f7fc fa5b 	bl	2f80 <memset>
/home/csx/share/gerrit/optee_os/lib/libmpa/mpa_shift.c:52
    6aca:	687b      	ldr	r3, [r7, #4]
    6acc:	685b      	ldr	r3, [r3, #4]
    6ace:	2b00      	cmp	r3, #0
    6ad0:	dd08      	ble.n	6ae4 <__mpa_shift_words_left+0x88>
/home/csx/share/gerrit/optee_os/lib/libmpa/mpa_shift.c:53
    6ad2:	687b      	ldr	r3, [r7, #4]
    6ad4:	685b      	ldr	r3, [r3, #4]
    6ad6:	461a      	mov	r2, r3
    6ad8:	683b      	ldr	r3, [r7, #0]
    6ada:	4413      	add	r3, r2
    6adc:	461a      	mov	r2, r3
    6ade:	687b      	ldr	r3, [r7, #4]
    6ae0:	605a      	str	r2, [r3, #4]
    6ae2:	e007      	b.n	6af4 <__mpa_shift_words_left+0x98>
/home/csx/share/gerrit/optee_os/lib/libmpa/mpa_shift.c:55
    6ae4:	687b      	ldr	r3, [r7, #4]
    6ae6:	685b      	ldr	r3, [r3, #4]
    6ae8:	461a      	mov	r2, r3
    6aea:	683b      	ldr	r3, [r7, #0]
    6aec:	1ad3      	subs	r3, r2, r3
    6aee:	461a      	mov	r2, r3
    6af0:	687b      	ldr	r3, [r7, #4]
    6af2:	605a      	str	r2, [r3, #4]
/home/csx/share/gerrit/optee_os/lib/libmpa/mpa_shift.c:56
    6af4:	3710      	adds	r7, #16
    6af6:	46bd      	mov	sp, r7
    6af8:	bd80      	pop	{r7, pc}
    6afa:	bf00      	nop

00006afc <__mpa_shift_words_right>:
__mpa_shift_words_right():
/home/csx/share/gerrit/optee_os/lib/libmpa/mpa_shift.c:64
    6afc:	e96d 7e02 	strd	r7, lr, [sp, #-8]!
    6b00:	b084      	sub	sp, #16
    6b02:	af00      	add	r7, sp, #0
    6b04:	6078      	str	r0, [r7, #4]
    6b06:	6039      	str	r1, [r7, #0]
/home/csx/share/gerrit/optee_os/lib/libmpa/mpa_shift.c:67
    6b08:	683b      	ldr	r3, [r7, #0]
    6b0a:	2b00      	cmp	r3, #0
    6b0c:	d003      	beq.n	6b16 <__mpa_shift_words_right+0x1a>
/home/csx/share/gerrit/optee_os/lib/libmpa/mpa_shift.c:67 (discriminator 1)
    6b0e:	687b      	ldr	r3, [r7, #4]
    6b10:	685b      	ldr	r3, [r3, #4]
    6b12:	2b00      	cmp	r3, #0
    6b14:	d100      	bne.n	6b18 <__mpa_shift_words_right+0x1c>
/home/csx/share/gerrit/optee_os/lib/libmpa/mpa_shift.c:68
    6b16:	e03f      	b.n	6b98 <__mpa_shift_words_right+0x9c>
/home/csx/share/gerrit/optee_os/lib/libmpa/mpa_shift.c:70
    6b18:	687b      	ldr	r3, [r7, #4]
    6b1a:	685b      	ldr	r3, [r3, #4]
    6b1c:	2b00      	cmp	r3, #0
    6b1e:	bfb8      	it	lt
    6b20:	425b      	neglt	r3, r3
    6b22:	461a      	mov	r2, r3
    6b24:	683b      	ldr	r3, [r7, #0]
    6b26:	429a      	cmp	r2, r3
    6b28:	d804      	bhi.n	6b34 <__mpa_shift_words_right+0x38>
/home/csx/share/gerrit/optee_os/lib/libmpa/mpa_shift.c:71
    6b2a:	6878      	ldr	r0, [r7, #4]
    6b2c:	2100      	movs	r1, #0
    6b2e:	f7fe fb03 	bl	5138 <mpa_set_word>
/home/csx/share/gerrit/optee_os/lib/libmpa/mpa_shift.c:72
    6b32:	e031      	b.n	6b98 <__mpa_shift_words_right+0x9c>
/home/csx/share/gerrit/optee_os/lib/libmpa/mpa_shift.c:75
    6b34:	2300      	movs	r3, #0
    6b36:	60fb      	str	r3, [r7, #12]
    6b38:	e00e      	b.n	6b58 <__mpa_shift_words_right+0x5c>
/home/csx/share/gerrit/optee_os/lib/libmpa/mpa_shift.c:76 (discriminator 3)
    6b3a:	68fa      	ldr	r2, [r7, #12]
    6b3c:	683b      	ldr	r3, [r7, #0]
    6b3e:	441a      	add	r2, r3
    6b40:	687b      	ldr	r3, [r7, #4]
    6b42:	3202      	adds	r2, #2
    6b44:	f853 1022 	ldr.w	r1, [r3, r2, lsl #2]
    6b48:	687b      	ldr	r3, [r7, #4]
    6b4a:	68fa      	ldr	r2, [r7, #12]
    6b4c:	3202      	adds	r2, #2
    6b4e:	f843 1022 	str.w	r1, [r3, r2, lsl #2]
/home/csx/share/gerrit/optee_os/lib/libmpa/mpa_shift.c:75 (discriminator 3)
    6b52:	68fb      	ldr	r3, [r7, #12]
    6b54:	3301      	adds	r3, #1
    6b56:	60fb      	str	r3, [r7, #12]
/home/csx/share/gerrit/optee_os/lib/libmpa/mpa_shift.c:75 (discriminator 1)
    6b58:	687b      	ldr	r3, [r7, #4]
    6b5a:	685b      	ldr	r3, [r3, #4]
    6b5c:	2b00      	cmp	r3, #0
    6b5e:	bfb8      	it	lt
    6b60:	425b      	neglt	r3, r3
    6b62:	461a      	mov	r2, r3
    6b64:	683b      	ldr	r3, [r7, #0]
    6b66:	1ad2      	subs	r2, r2, r3
    6b68:	68fb      	ldr	r3, [r7, #12]
    6b6a:	429a      	cmp	r2, r3
    6b6c:	d8e5      	bhi.n	6b3a <__mpa_shift_words_right+0x3e>
/home/csx/share/gerrit/optee_os/lib/libmpa/mpa_shift.c:79
    6b6e:	687b      	ldr	r3, [r7, #4]
    6b70:	685b      	ldr	r3, [r3, #4]
    6b72:	2b00      	cmp	r3, #0
    6b74:	dd08      	ble.n	6b88 <__mpa_shift_words_right+0x8c>
/home/csx/share/gerrit/optee_os/lib/libmpa/mpa_shift.c:80
    6b76:	687b      	ldr	r3, [r7, #4]
    6b78:	685b      	ldr	r3, [r3, #4]
    6b7a:	461a      	mov	r2, r3
    6b7c:	683b      	ldr	r3, [r7, #0]
    6b7e:	1ad3      	subs	r3, r2, r3
    6b80:	461a      	mov	r2, r3
    6b82:	687b      	ldr	r3, [r7, #4]
    6b84:	605a      	str	r2, [r3, #4]
    6b86:	e007      	b.n	6b98 <__mpa_shift_words_right+0x9c>
/home/csx/share/gerrit/optee_os/lib/libmpa/mpa_shift.c:82
    6b88:	687b      	ldr	r3, [r7, #4]
    6b8a:	685b      	ldr	r3, [r3, #4]
    6b8c:	461a      	mov	r2, r3
    6b8e:	683b      	ldr	r3, [r7, #0]
    6b90:	4413      	add	r3, r2
    6b92:	461a      	mov	r2, r3
    6b94:	687b      	ldr	r3, [r7, #4]
    6b96:	605a      	str	r2, [r3, #4]
/home/csx/share/gerrit/optee_os/lib/libmpa/mpa_shift.c:83
    6b98:	3710      	adds	r7, #16
    6b9a:	46bd      	mov	sp, r7
    6b9c:	bd80      	pop	{r7, pc}
    6b9e:	bf00      	nop

00006ba0 <mpa_shift_left>:
mpa_shift_left():
/home/csx/share/gerrit/optee_os/lib/libmpa/mpa_shift.c:98
    6ba0:	e96d 7e02 	strd	r7, lr, [sp, #-8]!
    6ba4:	b08a      	sub	sp, #40	; 0x28
    6ba6:	af00      	add	r7, sp, #0
    6ba8:	60f8      	str	r0, [r7, #12]
    6baa:	60b9      	str	r1, [r7, #8]
    6bac:	607a      	str	r2, [r7, #4]
/home/csx/share/gerrit/optee_os/lib/libmpa/mpa_shift.c:110
    6bae:	68f8      	ldr	r0, [r7, #12]
    6bb0:	68b9      	ldr	r1, [r7, #8]
    6bb2:	f7fd fd31 	bl	4618 <mpa_copy>
/home/csx/share/gerrit/optee_os/lib/libmpa/mpa_shift.c:111
    6bb6:	68f8      	ldr	r0, [r7, #12]
    6bb8:	f7fd fcfa 	bl	45b0 <__mpa_set_unused_digits_to_zero>
/home/csx/share/gerrit/optee_os/lib/libmpa/mpa_shift.c:112
    6bbc:	687b      	ldr	r3, [r7, #4]
    6bbe:	2b00      	cmp	r3, #0
    6bc0:	d003      	beq.n	6bca <mpa_shift_left+0x2a>
/home/csx/share/gerrit/optee_os/lib/libmpa/mpa_shift.c:112 (discriminator 1)
    6bc2:	68fb      	ldr	r3, [r7, #12]
    6bc4:	685b      	ldr	r3, [r3, #4]
    6bc6:	2b00      	cmp	r3, #0
    6bc8:	d100      	bne.n	6bcc <mpa_shift_left+0x2c>
/home/csx/share/gerrit/optee_os/lib/libmpa/mpa_shift.c:113
    6bca:	e0d1      	b.n	6d70 <mpa_shift_left+0x1d0>
/home/csx/share/gerrit/optee_os/lib/libmpa/mpa_shift.c:115
    6bcc:	687b      	ldr	r3, [r7, #4]
    6bce:	f003 031f 	and.w	r3, r3, #31
    6bd2:	61fb      	str	r3, [r7, #28]
/home/csx/share/gerrit/optee_os/lib/libmpa/mpa_shift.c:116
    6bd4:	687b      	ldr	r3, [r7, #4]
    6bd6:	095b      	lsrs	r3, r3, #5
    6bd8:	61bb      	str	r3, [r7, #24]
/home/csx/share/gerrit/optee_os/lib/libmpa/mpa_shift.c:130
    6bda:	2300      	movs	r3, #0
    6bdc:	623b      	str	r3, [r7, #32]
/home/csx/share/gerrit/optee_os/lib/libmpa/mpa_shift.c:131
    6bde:	68fb      	ldr	r3, [r7, #12]
    6be0:	685b      	ldr	r3, [r3, #4]
    6be2:	2b00      	cmp	r3, #0
    6be4:	bfb8      	it	lt
    6be6:	425b      	neglt	r3, r3
    6be8:	1e5a      	subs	r2, r3, #1
    6bea:	68fb      	ldr	r3, [r7, #12]
    6bec:	3202      	adds	r2, #2
    6bee:	f853 3022 	ldr.w	r3, [r3, r2, lsl #2]
    6bf2:	69fa      	ldr	r2, [r7, #28]
    6bf4:	2101      	movs	r1, #1
    6bf6:	fa01 f202 	lsl.w	r2, r1, r2
    6bfa:	3a01      	subs	r2, #1
    6bfc:	69f9      	ldr	r1, [r7, #28]
    6bfe:	f1c1 0120 	rsb	r1, r1, #32
    6c02:	408a      	lsls	r2, r1
    6c04:	4013      	ands	r3, r2
    6c06:	2b00      	cmp	r3, #0
    6c08:	d001      	beq.n	6c0e <mpa_shift_left+0x6e>
/home/csx/share/gerrit/optee_os/lib/libmpa/mpa_shift.c:132
    6c0a:	2301      	movs	r3, #1
    6c0c:	623b      	str	r3, [r7, #32]
/home/csx/share/gerrit/optee_os/lib/libmpa/mpa_shift.c:134
    6c0e:	69fb      	ldr	r3, [r7, #28]
    6c10:	2b00      	cmp	r3, #0
    6c12:	d11f      	bne.n	6c54 <mpa_shift_left+0xb4>
/home/csx/share/gerrit/optee_os/lib/libmpa/mpa_shift.c:138
    6c14:	68fb      	ldr	r3, [r7, #12]
    6c16:	685b      	ldr	r3, [r3, #4]
    6c18:	2b00      	cmp	r3, #0
    6c1a:	bfb8      	it	lt
    6c1c:	425b      	neglt	r3, r3
    6c1e:	461a      	mov	r2, r3
    6c20:	69bb      	ldr	r3, [r7, #24]
    6c22:	4413      	add	r3, r2
    6c24:	3b01      	subs	r3, #1
    6c26:	627b      	str	r3, [r7, #36]	; 0x24
    6c28:	e00e      	b.n	6c48 <mpa_shift_left+0xa8>
/home/csx/share/gerrit/optee_os/lib/libmpa/mpa_shift.c:139 (discriminator 3)
    6c2a:	6a7a      	ldr	r2, [r7, #36]	; 0x24
    6c2c:	69bb      	ldr	r3, [r7, #24]
    6c2e:	1ad2      	subs	r2, r2, r3
    6c30:	68fb      	ldr	r3, [r7, #12]
    6c32:	3202      	adds	r2, #2
    6c34:	f853 1022 	ldr.w	r1, [r3, r2, lsl #2]
    6c38:	68fb      	ldr	r3, [r7, #12]
    6c3a:	6a7a      	ldr	r2, [r7, #36]	; 0x24
    6c3c:	3202      	adds	r2, #2
    6c3e:	f843 1022 	str.w	r1, [r3, r2, lsl #2]
/home/csx/share/gerrit/optee_os/lib/libmpa/mpa_shift.c:138 (discriminator 3)
    6c42:	6a7b      	ldr	r3, [r7, #36]	; 0x24
    6c44:	3b01      	subs	r3, #1
    6c46:	627b      	str	r3, [r7, #36]	; 0x24
/home/csx/share/gerrit/optee_os/lib/libmpa/mpa_shift.c:138 (discriminator 1)
    6c48:	69bb      	ldr	r3, [r7, #24]
    6c4a:	1e5a      	subs	r2, r3, #1
    6c4c:	6a7b      	ldr	r3, [r7, #36]	; 0x24
    6c4e:	429a      	cmp	r2, r3
    6c50:	d3eb      	bcc.n	6c2a <mpa_shift_left+0x8a>
    6c52:	e06a      	b.n	6d2a <mpa_shift_left+0x18a>
/home/csx/share/gerrit/optee_os/lib/libmpa/mpa_shift.c:147
    6c54:	68fb      	ldr	r3, [r7, #12]
    6c56:	685b      	ldr	r3, [r3, #4]
    6c58:	2b00      	cmp	r3, #0
    6c5a:	bfb8      	it	lt
    6c5c:	425b      	neglt	r3, r3
    6c5e:	461a      	mov	r2, r3
    6c60:	69bb      	ldr	r3, [r7, #24]
    6c62:	441a      	add	r2, r3
    6c64:	6a3b      	ldr	r3, [r7, #32]
    6c66:	4413      	add	r3, r2
    6c68:	627b      	str	r3, [r7, #36]	; 0x24
/home/csx/share/gerrit/optee_os/lib/libmpa/mpa_shift.c:148
    6c6a:	6a3b      	ldr	r3, [r7, #32]
    6c6c:	2b00      	cmp	r3, #0
    6c6e:	d019      	beq.n	6ca4 <mpa_shift_left+0x104>
/home/csx/share/gerrit/optee_os/lib/libmpa/mpa_shift.c:149
    6c70:	6a7a      	ldr	r2, [r7, #36]	; 0x24
    6c72:	69bb      	ldr	r3, [r7, #24]
    6c74:	1ad3      	subs	r3, r2, r3
    6c76:	1e5a      	subs	r2, r3, #1
    6c78:	68fb      	ldr	r3, [r7, #12]
    6c7a:	3202      	adds	r2, #2
    6c7c:	f853 3022 	ldr.w	r3, [r3, r2, lsl #2]
    6c80:	69fa      	ldr	r2, [r7, #28]
    6c82:	f1c2 0220 	rsb	r2, r2, #32
    6c86:	40d3      	lsrs	r3, r2
    6c88:	617b      	str	r3, [r7, #20]
/home/csx/share/gerrit/optee_os/lib/libmpa/mpa_shift.c:150
    6c8a:	68fb      	ldr	r3, [r7, #12]
    6c8c:	6a7a      	ldr	r2, [r7, #36]	; 0x24
    6c8e:	3202      	adds	r2, #2
    6c90:	f853 2022 	ldr.w	r2, [r3, r2, lsl #2]
    6c94:	697b      	ldr	r3, [r7, #20]
    6c96:	ea82 0103 	eor.w	r1, r2, r3
    6c9a:	68fb      	ldr	r3, [r7, #12]
    6c9c:	6a7a      	ldr	r2, [r7, #36]	; 0x24
    6c9e:	3202      	adds	r2, #2
    6ca0:	f843 1022 	str.w	r1, [r3, r2, lsl #2]
/home/csx/share/gerrit/optee_os/lib/libmpa/mpa_shift.c:152
    6ca4:	6a7b      	ldr	r3, [r7, #36]	; 0x24
    6ca6:	3b01      	subs	r3, #1
    6ca8:	627b      	str	r3, [r7, #36]	; 0x24
/home/csx/share/gerrit/optee_os/lib/libmpa/mpa_shift.c:153
    6caa:	6a7a      	ldr	r2, [r7, #36]	; 0x24
    6cac:	69bb      	ldr	r3, [r7, #24]
    6cae:	1ad2      	subs	r2, r2, r3
    6cb0:	68fb      	ldr	r3, [r7, #12]
    6cb2:	3202      	adds	r2, #2
    6cb4:	f853 2022 	ldr.w	r2, [r3, r2, lsl #2]
    6cb8:	69fb      	ldr	r3, [r7, #28]
    6cba:	fa02 f103 	lsl.w	r1, r2, r3
    6cbe:	68fb      	ldr	r3, [r7, #12]
    6cc0:	6a7a      	ldr	r2, [r7, #36]	; 0x24
    6cc2:	3202      	adds	r2, #2
    6cc4:	f843 1022 	str.w	r1, [r3, r2, lsl #2]
/home/csx/share/gerrit/optee_os/lib/libmpa/mpa_shift.c:154
    6cc8:	e02b      	b.n	6d22 <mpa_shift_left+0x182>
/home/csx/share/gerrit/optee_os/lib/libmpa/mpa_shift.c:155
    6cca:	6a7a      	ldr	r2, [r7, #36]	; 0x24
    6ccc:	69bb      	ldr	r3, [r7, #24]
    6cce:	1ad3      	subs	r3, r2, r3
    6cd0:	1e5a      	subs	r2, r3, #1
    6cd2:	68fb      	ldr	r3, [r7, #12]
    6cd4:	3202      	adds	r2, #2
    6cd6:	f853 3022 	ldr.w	r3, [r3, r2, lsl #2]
    6cda:	69fa      	ldr	r2, [r7, #28]
    6cdc:	f1c2 0220 	rsb	r2, r2, #32
    6ce0:	40d3      	lsrs	r3, r2
    6ce2:	617b      	str	r3, [r7, #20]
/home/csx/share/gerrit/optee_os/lib/libmpa/mpa_shift.c:156
    6ce4:	68fb      	ldr	r3, [r7, #12]
    6ce6:	6a7a      	ldr	r2, [r7, #36]	; 0x24
    6ce8:	3202      	adds	r2, #2
    6cea:	f853 2022 	ldr.w	r2, [r3, r2, lsl #2]
    6cee:	697b      	ldr	r3, [r7, #20]
    6cf0:	ea82 0103 	eor.w	r1, r2, r3
    6cf4:	68fb      	ldr	r3, [r7, #12]
    6cf6:	6a7a      	ldr	r2, [r7, #36]	; 0x24
    6cf8:	3202      	adds	r2, #2
    6cfa:	f843 1022 	str.w	r1, [r3, r2, lsl #2]
/home/csx/share/gerrit/optee_os/lib/libmpa/mpa_shift.c:157
    6cfe:	6a7b      	ldr	r3, [r7, #36]	; 0x24
    6d00:	3b01      	subs	r3, #1
    6d02:	627b      	str	r3, [r7, #36]	; 0x24
/home/csx/share/gerrit/optee_os/lib/libmpa/mpa_shift.c:158
    6d04:	6a7a      	ldr	r2, [r7, #36]	; 0x24
    6d06:	69bb      	ldr	r3, [r7, #24]
    6d08:	1ad2      	subs	r2, r2, r3
    6d0a:	68fb      	ldr	r3, [r7, #12]
    6d0c:	3202      	adds	r2, #2
    6d0e:	f853 2022 	ldr.w	r2, [r3, r2, lsl #2]
    6d12:	69fb      	ldr	r3, [r7, #28]
    6d14:	fa02 f103 	lsl.w	r1, r2, r3
    6d18:	68fb      	ldr	r3, [r7, #12]
    6d1a:	6a7a      	ldr	r2, [r7, #36]	; 0x24
    6d1c:	3202      	adds	r2, #2
    6d1e:	f843 1022 	str.w	r1, [r3, r2, lsl #2]
/home/csx/share/gerrit/optee_os/lib/libmpa/mpa_shift.c:154
    6d22:	6a7a      	ldr	r2, [r7, #36]	; 0x24
    6d24:	69bb      	ldr	r3, [r7, #24]
    6d26:	429a      	cmp	r2, r3
    6d28:	d8cf      	bhi.n	6cca <mpa_shift_left+0x12a>
/home/csx/share/gerrit/optee_os/lib/libmpa/mpa_shift.c:161
    6d2a:	68fb      	ldr	r3, [r7, #12]
    6d2c:	f103 0208 	add.w	r2, r3, #8
    6d30:	69bb      	ldr	r3, [r7, #24]
    6d32:	009b      	lsls	r3, r3, #2
    6d34:	4610      	mov	r0, r2
    6d36:	2100      	movs	r1, #0
    6d38:	461a      	mov	r2, r3
    6d3a:	f7fc f921 	bl	2f80 <memset>
/home/csx/share/gerrit/optee_os/lib/libmpa/mpa_shift.c:163
    6d3e:	68fb      	ldr	r3, [r7, #12]
    6d40:	685b      	ldr	r3, [r3, #4]
    6d42:	2b00      	cmp	r3, #0
    6d44:	dd0a      	ble.n	6d5c <mpa_shift_left+0x1bc>
/home/csx/share/gerrit/optee_os/lib/libmpa/mpa_shift.c:164
    6d46:	68fb      	ldr	r3, [r7, #12]
    6d48:	685b      	ldr	r3, [r3, #4]
    6d4a:	4619      	mov	r1, r3
    6d4c:	69ba      	ldr	r2, [r7, #24]
    6d4e:	6a3b      	ldr	r3, [r7, #32]
    6d50:	4413      	add	r3, r2
    6d52:	440b      	add	r3, r1
    6d54:	461a      	mov	r2, r3
    6d56:	68fb      	ldr	r3, [r7, #12]
    6d58:	605a      	str	r2, [r3, #4]
    6d5a:	e009      	b.n	6d70 <mpa_shift_left+0x1d0>
/home/csx/share/gerrit/optee_os/lib/libmpa/mpa_shift.c:166
    6d5c:	68fb      	ldr	r3, [r7, #12]
    6d5e:	685b      	ldr	r3, [r3, #4]
    6d60:	4619      	mov	r1, r3
    6d62:	69ba      	ldr	r2, [r7, #24]
    6d64:	6a3b      	ldr	r3, [r7, #32]
    6d66:	4413      	add	r3, r2
    6d68:	1acb      	subs	r3, r1, r3
    6d6a:	461a      	mov	r2, r3
    6d6c:	68fb      	ldr	r3, [r7, #12]
    6d6e:	605a      	str	r2, [r3, #4]
/home/csx/share/gerrit/optee_os/lib/libmpa/mpa_shift.c:167
    6d70:	3728      	adds	r7, #40	; 0x28
    6d72:	46bd      	mov	sp, r7
    6d74:	bd80      	pop	{r7, pc}
    6d76:	bf00      	nop

00006d78 <mpa_shift_right>:
mpa_shift_right():
/home/csx/share/gerrit/optee_os/lib/libmpa/mpa_shift.c:178
    6d78:	e96d 7e02 	strd	r7, lr, [sp, #-8]!
    6d7c:	b088      	sub	sp, #32
    6d7e:	af00      	add	r7, sp, #0
    6d80:	60f8      	str	r0, [r7, #12]
    6d82:	60b9      	str	r1, [r7, #8]
    6d84:	607a      	str	r2, [r7, #4]
/home/csx/share/gerrit/optee_os/lib/libmpa/mpa_shift.c:189
    6d86:	68f8      	ldr	r0, [r7, #12]
    6d88:	68b9      	ldr	r1, [r7, #8]
    6d8a:	f7fd fc45 	bl	4618 <mpa_copy>
/home/csx/share/gerrit/optee_os/lib/libmpa/mpa_shift.c:190
    6d8e:	68f8      	ldr	r0, [r7, #12]
    6d90:	f7fd fc0e 	bl	45b0 <__mpa_set_unused_digits_to_zero>
/home/csx/share/gerrit/optee_os/lib/libmpa/mpa_shift.c:191
    6d94:	687b      	ldr	r3, [r7, #4]
    6d96:	2b00      	cmp	r3, #0
    6d98:	d003      	beq.n	6da2 <mpa_shift_right+0x2a>
/home/csx/share/gerrit/optee_os/lib/libmpa/mpa_shift.c:191 (discriminator 1)
    6d9a:	68fb      	ldr	r3, [r7, #12]
    6d9c:	685b      	ldr	r3, [r3, #4]
    6d9e:	2b00      	cmp	r3, #0
    6da0:	d100      	bne.n	6da4 <mpa_shift_right+0x2c>
/home/csx/share/gerrit/optee_os/lib/libmpa/mpa_shift.c:192
    6da2:	e0b5      	b.n	6f10 <mpa_shift_right+0x198>
/home/csx/share/gerrit/optee_os/lib/libmpa/mpa_shift.c:194
    6da4:	687b      	ldr	r3, [r7, #4]
    6da6:	f003 031f 	and.w	r3, r3, #31
    6daa:	61bb      	str	r3, [r7, #24]
/home/csx/share/gerrit/optee_os/lib/libmpa/mpa_shift.c:195
    6dac:	687b      	ldr	r3, [r7, #4]
    6dae:	095b      	lsrs	r3, r3, #5
    6db0:	617b      	str	r3, [r7, #20]
/home/csx/share/gerrit/optee_os/lib/libmpa/mpa_shift.c:197
    6db2:	68fb      	ldr	r3, [r7, #12]
    6db4:	685b      	ldr	r3, [r3, #4]
    6db6:	2b00      	cmp	r3, #0
    6db8:	bfb8      	it	lt
    6dba:	425b      	neglt	r3, r3
    6dbc:	461a      	mov	r2, r3
    6dbe:	697b      	ldr	r3, [r7, #20]
    6dc0:	429a      	cmp	r2, r3
    6dc2:	d804      	bhi.n	6dce <mpa_shift_right+0x56>
/home/csx/share/gerrit/optee_os/lib/libmpa/mpa_shift.c:198
    6dc4:	68f8      	ldr	r0, [r7, #12]
    6dc6:	2100      	movs	r1, #0
    6dc8:	f7fe f9b6 	bl	5138 <mpa_set_word>
/home/csx/share/gerrit/optee_os/lib/libmpa/mpa_shift.c:199
    6dcc:	e0a0      	b.n	6f10 <mpa_shift_right+0x198>
/home/csx/share/gerrit/optee_os/lib/libmpa/mpa_shift.c:207
    6dce:	69bb      	ldr	r3, [r7, #24]
    6dd0:	2b00      	cmp	r3, #0
    6dd2:	d11d      	bne.n	6e10 <mpa_shift_right+0x98>
/home/csx/share/gerrit/optee_os/lib/libmpa/mpa_shift.c:209
    6dd4:	2300      	movs	r3, #0
    6dd6:	61fb      	str	r3, [r7, #28]
    6dd8:	e00e      	b.n	6df8 <mpa_shift_right+0x80>
/home/csx/share/gerrit/optee_os/lib/libmpa/mpa_shift.c:210 (discriminator 3)
    6dda:	69fa      	ldr	r2, [r7, #28]
    6ddc:	697b      	ldr	r3, [r7, #20]
    6dde:	441a      	add	r2, r3
    6de0:	68fb      	ldr	r3, [r7, #12]
    6de2:	3202      	adds	r2, #2
    6de4:	f853 1022 	ldr.w	r1, [r3, r2, lsl #2]
    6de8:	68fb      	ldr	r3, [r7, #12]
    6dea:	69fa      	ldr	r2, [r7, #28]
    6dec:	3202      	adds	r2, #2
    6dee:	f843 1022 	str.w	r1, [r3, r2, lsl #2]
/home/csx/share/gerrit/optee_os/lib/libmpa/mpa_shift.c:209 (discriminator 3)
    6df2:	69fb      	ldr	r3, [r7, #28]
    6df4:	3301      	adds	r3, #1
    6df6:	61fb      	str	r3, [r7, #28]
/home/csx/share/gerrit/optee_os/lib/libmpa/mpa_shift.c:209 (discriminator 1)
    6df8:	68fb      	ldr	r3, [r7, #12]
    6dfa:	685b      	ldr	r3, [r3, #4]
    6dfc:	2b00      	cmp	r3, #0
    6dfe:	bfb8      	it	lt
    6e00:	425b      	neglt	r3, r3
    6e02:	461a      	mov	r2, r3
    6e04:	697b      	ldr	r3, [r7, #20]
    6e06:	1ad2      	subs	r2, r2, r3
    6e08:	69fb      	ldr	r3, [r7, #28]
    6e0a:	429a      	cmp	r2, r3
    6e0c:	d8e5      	bhi.n	6dda <mpa_shift_right+0x62>
    6e0e:	e04f      	b.n	6eb0 <mpa_shift_right+0x138>
/home/csx/share/gerrit/optee_os/lib/libmpa/mpa_shift.c:213
    6e10:	2300      	movs	r3, #0
    6e12:	61fb      	str	r3, [r7, #28]
    6e14:	e031      	b.n	6e7a <mpa_shift_right+0x102>
/home/csx/share/gerrit/optee_os/lib/libmpa/mpa_shift.c:214 (discriminator 3)
    6e16:	69fa      	ldr	r2, [r7, #28]
    6e18:	697b      	ldr	r3, [r7, #20]
    6e1a:	441a      	add	r2, r3
    6e1c:	68fb      	ldr	r3, [r7, #12]
    6e1e:	3202      	adds	r2, #2
    6e20:	f853 1022 	ldr.w	r1, [r3, r2, lsl #2]
    6e24:	68fb      	ldr	r3, [r7, #12]
    6e26:	69fa      	ldr	r2, [r7, #28]
    6e28:	3202      	adds	r2, #2
    6e2a:	f843 1022 	str.w	r1, [r3, r2, lsl #2]
/home/csx/share/gerrit/optee_os/lib/libmpa/mpa_shift.c:215 (discriminator 3)
    6e2e:	69fa      	ldr	r2, [r7, #28]
    6e30:	697b      	ldr	r3, [r7, #20]
    6e32:	4413      	add	r3, r2
    6e34:	1c5a      	adds	r2, r3, #1
    6e36:	68fb      	ldr	r3, [r7, #12]
    6e38:	3202      	adds	r2, #2
    6e3a:	f853 3022 	ldr.w	r3, [r3, r2, lsl #2]
    6e3e:	69ba      	ldr	r2, [r7, #24]
    6e40:	2101      	movs	r1, #1
    6e42:	fa01 f202 	lsl.w	r2, r1, r2
    6e46:	3a01      	subs	r2, #1
    6e48:	4013      	ands	r3, r2
    6e4a:	613b      	str	r3, [r7, #16]
/home/csx/share/gerrit/optee_os/lib/libmpa/mpa_shift.c:217 (discriminator 3)
    6e4c:	68fb      	ldr	r3, [r7, #12]
    6e4e:	69fa      	ldr	r2, [r7, #28]
    6e50:	3202      	adds	r2, #2
    6e52:	f853 2022 	ldr.w	r2, [r3, r2, lsl #2]
    6e56:	69bb      	ldr	r3, [r7, #24]
    6e58:	40da      	lsrs	r2, r3
    6e5a:	69bb      	ldr	r3, [r7, #24]
    6e5c:	f1c3 0320 	rsb	r3, r3, #32
    6e60:	4619      	mov	r1, r3
    6e62:	693b      	ldr	r3, [r7, #16]
    6e64:	408b      	lsls	r3, r1
    6e66:	ea82 0103 	eor.w	r1, r2, r3
/home/csx/share/gerrit/optee_os/lib/libmpa/mpa_shift.c:216 (discriminator 3)
    6e6a:	68fb      	ldr	r3, [r7, #12]
    6e6c:	69fa      	ldr	r2, [r7, #28]
    6e6e:	3202      	adds	r2, #2
    6e70:	f843 1022 	str.w	r1, [r3, r2, lsl #2]
/home/csx/share/gerrit/optee_os/lib/libmpa/mpa_shift.c:213 (discriminator 3)
    6e74:	69fb      	ldr	r3, [r7, #28]
    6e76:	3301      	adds	r3, #1
    6e78:	61fb      	str	r3, [r7, #28]
/home/csx/share/gerrit/optee_os/lib/libmpa/mpa_shift.c:213 (discriminator 1)
    6e7a:	68fb      	ldr	r3, [r7, #12]
    6e7c:	685b      	ldr	r3, [r3, #4]
    6e7e:	2b00      	cmp	r3, #0
    6e80:	bfb8      	it	lt
    6e82:	425b      	neglt	r3, r3
    6e84:	461a      	mov	r2, r3
    6e86:	697b      	ldr	r3, [r7, #20]
    6e88:	1ad3      	subs	r3, r2, r3
    6e8a:	1e5a      	subs	r2, r3, #1
    6e8c:	69fb      	ldr	r3, [r7, #28]
    6e8e:	429a      	cmp	r2, r3
    6e90:	d8c1      	bhi.n	6e16 <mpa_shift_right+0x9e>
/home/csx/share/gerrit/optee_os/lib/libmpa/mpa_shift.c:220
    6e92:	69fa      	ldr	r2, [r7, #28]
    6e94:	697b      	ldr	r3, [r7, #20]
    6e96:	441a      	add	r2, r3
    6e98:	68fb      	ldr	r3, [r7, #12]
    6e9a:	3202      	adds	r2, #2
    6e9c:	f853 2022 	ldr.w	r2, [r3, r2, lsl #2]
    6ea0:	69bb      	ldr	r3, [r7, #24]
    6ea2:	fa22 f103 	lsr.w	r1, r2, r3
    6ea6:	68fb      	ldr	r3, [r7, #12]
    6ea8:	69fa      	ldr	r2, [r7, #28]
    6eaa:	3202      	adds	r2, #2
    6eac:	f843 1022 	str.w	r1, [r3, r2, lsl #2]
/home/csx/share/gerrit/optee_os/lib/libmpa/mpa_shift.c:224
    6eb0:	68fb      	ldr	r3, [r7, #12]
    6eb2:	685b      	ldr	r3, [r3, #4]
    6eb4:	2b00      	cmp	r3, #0
    6eb6:	dd08      	ble.n	6eca <mpa_shift_right+0x152>
/home/csx/share/gerrit/optee_os/lib/libmpa/mpa_shift.c:225
    6eb8:	68fb      	ldr	r3, [r7, #12]
    6eba:	685b      	ldr	r3, [r3, #4]
    6ebc:	461a      	mov	r2, r3
    6ebe:	697b      	ldr	r3, [r7, #20]
    6ec0:	1ad3      	subs	r3, r2, r3
    6ec2:	461a      	mov	r2, r3
    6ec4:	68fb      	ldr	r3, [r7, #12]
    6ec6:	605a      	str	r2, [r3, #4]
    6ec8:	e007      	b.n	6eda <mpa_shift_right+0x162>
/home/csx/share/gerrit/optee_os/lib/libmpa/mpa_shift.c:227
    6eca:	68fb      	ldr	r3, [r7, #12]
    6ecc:	685b      	ldr	r3, [r3, #4]
    6ece:	461a      	mov	r2, r3
    6ed0:	697b      	ldr	r3, [r7, #20]
    6ed2:	4413      	add	r3, r2
    6ed4:	461a      	mov	r2, r3
    6ed6:	68fb      	ldr	r3, [r7, #12]
    6ed8:	605a      	str	r2, [r3, #4]
/home/csx/share/gerrit/optee_os/lib/libmpa/mpa_shift.c:230
    6eda:	68fb      	ldr	r3, [r7, #12]
    6edc:	685b      	ldr	r3, [r3, #4]
    6ede:	2b00      	cmp	r3, #0
    6ee0:	bfb8      	it	lt
    6ee2:	425b      	neglt	r3, r3
    6ee4:	1e5a      	subs	r2, r3, #1
    6ee6:	68fb      	ldr	r3, [r7, #12]
    6ee8:	3202      	adds	r2, #2
    6eea:	f853 3022 	ldr.w	r3, [r3, r2, lsl #2]
    6eee:	2b00      	cmp	r3, #0
    6ef0:	d10e      	bne.n	6f10 <mpa_shift_right+0x198>
/home/csx/share/gerrit/optee_os/lib/libmpa/mpa_shift.c:231
    6ef2:	68fb      	ldr	r3, [r7, #12]
    6ef4:	685b      	ldr	r3, [r3, #4]
    6ef6:	2b00      	cmp	r3, #0
    6ef8:	dd05      	ble.n	6f06 <mpa_shift_right+0x18e>
/home/csx/share/gerrit/optee_os/lib/libmpa/mpa_shift.c:232
    6efa:	68fb      	ldr	r3, [r7, #12]
    6efc:	685b      	ldr	r3, [r3, #4]
    6efe:	1e5a      	subs	r2, r3, #1
    6f00:	68fb      	ldr	r3, [r7, #12]
    6f02:	605a      	str	r2, [r3, #4]
    6f04:	e004      	b.n	6f10 <mpa_shift_right+0x198>
/home/csx/share/gerrit/optee_os/lib/libmpa/mpa_shift.c:234
    6f06:	68fb      	ldr	r3, [r7, #12]
    6f08:	685b      	ldr	r3, [r3, #4]
    6f0a:	1c5a      	adds	r2, r3, #1
    6f0c:	68fb      	ldr	r3, [r7, #12]
    6f0e:	605a      	str	r2, [r3, #4]
/home/csx/share/gerrit/optee_os/lib/libmpa/mpa_shift.c:236
    6f10:	3720      	adds	r7, #32
    6f12:	46bd      	mov	sp, r7
    6f14:	bd80      	pop	{r7, pc}
    6f16:	bf00      	nop

00006f18 <__mpa_full_adder>:
__mpa_full_adder():
/home/csx/share/gerrit/optee_os/lib/libmpa/mpa_addsub.c:51
    6f18:	f84d 4d0c 	str.w	r4, [sp, #-12]!
    6f1c:	e9cd 5701 	strd	r5, r7, [sp, #4]
    6f20:	b087      	sub	sp, #28
    6f22:	af00      	add	r7, sp, #0
    6f24:	60f8      	str	r0, [r7, #12]
    6f26:	60b9      	str	r1, [r7, #8]
    6f28:	607a      	str	r2, [r7, #4]
    6f2a:	603b      	str	r3, [r7, #0]
/home/csx/share/gerrit/optee_os/lib/libmpa/mpa_addsub.c:54
    6f2c:	68fb      	ldr	r3, [r7, #12]
    6f2e:	4618      	mov	r0, r3
    6f30:	f04f 0100 	mov.w	r1, #0
    6f34:	68bb      	ldr	r3, [r7, #8]
    6f36:	461a      	mov	r2, r3
    6f38:	f04f 0300 	mov.w	r3, #0
    6f3c:	1880      	adds	r0, r0, r2
    6f3e:	eb41 0103 	adc.w	r1, r1, r3
    6f42:	683b      	ldr	r3, [r7, #0]
    6f44:	681b      	ldr	r3, [r3, #0]
    6f46:	461a      	mov	r2, r3
    6f48:	f04f 0300 	mov.w	r3, #0
    6f4c:	1812      	adds	r2, r2, r0
    6f4e:	eb43 0301 	adc.w	r3, r3, r1
    6f52:	e9c7 2304 	strd	r2, r3, [r7, #16]
/home/csx/share/gerrit/optee_os/lib/libmpa/mpa_addsub.c:55
    6f56:	693a      	ldr	r2, [r7, #16]
    6f58:	687b      	ldr	r3, [r7, #4]
    6f5a:	601a      	str	r2, [r3, #0]
/home/csx/share/gerrit/optee_os/lib/libmpa/mpa_addsub.c:56
    6f5c:	e9d7 2304 	ldrd	r2, r3, [r7, #16]
    6f60:	001c      	movs	r4, r3
    6f62:	2500      	movs	r5, #0
    6f64:	4622      	mov	r2, r4
    6f66:	683b      	ldr	r3, [r7, #0]
    6f68:	601a      	str	r2, [r3, #0]
/home/csx/share/gerrit/optee_os/lib/libmpa/mpa_addsub.c:63
    6f6a:	371c      	adds	r7, #28
    6f6c:	46bd      	mov	sp, r7
    6f6e:	e9dd 4500 	ldrd	r4, r5, [sp]
    6f72:	b002      	add	sp, #8
    6f74:	f85d 7b04 	ldr.w	r7, [sp], #4
    6f78:	4770      	bx	lr
    6f7a:	bf00      	nop

00006f7c <__mpa_full_sub>:
__mpa_full_sub():
/home/csx/share/gerrit/optee_os/lib/libmpa/mpa_addsub.c:74
    6f7c:	f84d 4d0c 	str.w	r4, [sp, #-12]!
    6f80:	e9cd 5701 	strd	r5, r7, [sp, #4]
    6f84:	b087      	sub	sp, #28
    6f86:	af00      	add	r7, sp, #0
    6f88:	60f8      	str	r0, [r7, #12]
    6f8a:	60b9      	str	r1, [r7, #8]
    6f8c:	607a      	str	r2, [r7, #4]
    6f8e:	603b      	str	r3, [r7, #0]
/home/csx/share/gerrit/optee_os/lib/libmpa/mpa_addsub.c:77
    6f90:	68fb      	ldr	r3, [r7, #12]
    6f92:	4618      	mov	r0, r3
    6f94:	f04f 0100 	mov.w	r1, #0
    6f98:	68bb      	ldr	r3, [r7, #8]
    6f9a:	461a      	mov	r2, r3
    6f9c:	f04f 0300 	mov.w	r3, #0
    6fa0:	1a80      	subs	r0, r0, r2
    6fa2:	eb61 0103 	sbc.w	r1, r1, r3
    6fa6:	683b      	ldr	r3, [r7, #0]
    6fa8:	681b      	ldr	r3, [r3, #0]
    6faa:	461a      	mov	r2, r3
    6fac:	f04f 0300 	mov.w	r3, #0
    6fb0:	1a82      	subs	r2, r0, r2
    6fb2:	eb61 0303 	sbc.w	r3, r1, r3
    6fb6:	e9c7 2304 	strd	r2, r3, [r7, #16]
/home/csx/share/gerrit/optee_os/lib/libmpa/mpa_addsub.c:78
    6fba:	693a      	ldr	r2, [r7, #16]
    6fbc:	687b      	ldr	r3, [r7, #4]
    6fbe:	601a      	str	r2, [r3, #0]
/home/csx/share/gerrit/optee_os/lib/libmpa/mpa_addsub.c:79
    6fc0:	e9d7 2304 	ldrd	r2, r3, [r7, #16]
    6fc4:	001c      	movs	r4, r3
    6fc6:	2500      	movs	r5, #0
    6fc8:	4623      	mov	r3, r4
    6fca:	425a      	negs	r2, r3
    6fcc:	683b      	ldr	r3, [r7, #0]
    6fce:	601a      	str	r2, [r3, #0]
/home/csx/share/gerrit/optee_os/lib/libmpa/mpa_addsub.c:88
    6fd0:	371c      	adds	r7, #28
    6fd2:	46bd      	mov	sp, r7
    6fd4:	e9dd 4500 	ldrd	r4, r5, [sp]
    6fd8:	b002      	add	sp, #8
    6fda:	f85d 7b04 	ldr.w	r7, [sp], #4
    6fde:	4770      	bx	lr

00006fe0 <__mpa_full_adder_ackum>:
__mpa_full_adder_ackum():
/home/csx/share/gerrit/optee_os/lib/libmpa/mpa_addsub.c:98
    6fe0:	f84d 4d0c 	str.w	r4, [sp, #-12]!
    6fe4:	e9cd 5701 	strd	r5, r7, [sp, #4]
    6fe8:	b087      	sub	sp, #28
    6fea:	af00      	add	r7, sp, #0
    6fec:	60f8      	str	r0, [r7, #12]
    6fee:	60b9      	str	r1, [r7, #8]
    6ff0:	607a      	str	r2, [r7, #4]
/home/csx/share/gerrit/optee_os/lib/libmpa/mpa_addsub.c:101
    6ff2:	68fb      	ldr	r3, [r7, #12]
    6ff4:	681b      	ldr	r3, [r3, #0]
    6ff6:	4618      	mov	r0, r3
    6ff8:	f04f 0100 	mov.w	r1, #0
    6ffc:	68bb      	ldr	r3, [r7, #8]
    6ffe:	461a      	mov	r2, r3
    7000:	f04f 0300 	mov.w	r3, #0
    7004:	1880      	adds	r0, r0, r2
    7006:	eb41 0103 	adc.w	r1, r1, r3
    700a:	687b      	ldr	r3, [r7, #4]
    700c:	681b      	ldr	r3, [r3, #0]
    700e:	461a      	mov	r2, r3
    7010:	f04f 0300 	mov.w	r3, #0
    7014:	1812      	adds	r2, r2, r0
    7016:	eb43 0301 	adc.w	r3, r3, r1
    701a:	e9c7 2304 	strd	r2, r3, [r7, #16]
/home/csx/share/gerrit/optee_os/lib/libmpa/mpa_addsub.c:102
    701e:	693a      	ldr	r2, [r7, #16]
    7020:	68fb      	ldr	r3, [r7, #12]
    7022:	601a      	str	r2, [r3, #0]
/home/csx/share/gerrit/optee_os/lib/libmpa/mpa_addsub.c:103
    7024:	e9d7 2304 	ldrd	r2, r3, [r7, #16]
    7028:	001c      	movs	r4, r3
    702a:	2500      	movs	r5, #0
    702c:	4622      	mov	r2, r4
    702e:	687b      	ldr	r3, [r7, #4]
    7030:	601a      	str	r2, [r3, #0]
/home/csx/share/gerrit/optee_os/lib/libmpa/mpa_addsub.c:111
    7032:	371c      	adds	r7, #28
    7034:	46bd      	mov	sp, r7
    7036:	e9dd 4500 	ldrd	r4, r5, [sp]
    703a:	b002      	add	sp, #8
    703c:	f85d 7b04 	ldr.w	r7, [sp], #4
    7040:	4770      	bx	lr
    7042:	bf00      	nop

00007044 <__mpa_abs_add>:
__mpa_abs_add():
/home/csx/share/gerrit/optee_os/lib/libmpa/mpa_addsub.c:127
    7044:	f84d 4d0c 	str.w	r4, [sp, #-12]!
    7048:	e9cd 7e01 	strd	r7, lr, [sp, #4]
    704c:	b08d      	sub	sp, #52	; 0x34
    704e:	af00      	add	r7, sp, #0
    7050:	60f8      	str	r0, [r7, #12]
    7052:	60b9      	str	r1, [r7, #8]
    7054:	607a      	str	r2, [r7, #4]
    7056:	603b      	str	r3, [r7, #0]
/home/csx/share/gerrit/optee_os/lib/libmpa/mpa_addsub.c:137
    7058:	683a      	ldr	r2, [r7, #0]
    705a:	6c7b      	ldr	r3, [r7, #68]	; 0x44
    705c:	429a      	cmp	r2, r3
    705e:	dd08      	ble.n	7072 <__mpa_abs_add+0x2e>
/home/csx/share/gerrit/optee_os/lib/libmpa/mpa_addsub.c:138
    7060:	687b      	ldr	r3, [r7, #4]
    7062:	62bb      	str	r3, [r7, #40]	; 0x28
/home/csx/share/gerrit/optee_os/lib/libmpa/mpa_addsub.c:139
    7064:	6c3b      	ldr	r3, [r7, #64]	; 0x40
    7066:	62fb      	str	r3, [r7, #44]	; 0x2c
/home/csx/share/gerrit/optee_os/lib/libmpa/mpa_addsub.c:140
    7068:	683b      	ldr	r3, [r7, #0]
    706a:	623b      	str	r3, [r7, #32]
/home/csx/share/gerrit/optee_os/lib/libmpa/mpa_addsub.c:141
    706c:	6c7b      	ldr	r3, [r7, #68]	; 0x44
    706e:	627b      	str	r3, [r7, #36]	; 0x24
    7070:	e007      	b.n	7082 <__mpa_abs_add+0x3e>
/home/csx/share/gerrit/optee_os/lib/libmpa/mpa_addsub.c:143
    7072:	6c3b      	ldr	r3, [r7, #64]	; 0x40
    7074:	62bb      	str	r3, [r7, #40]	; 0x28
/home/csx/share/gerrit/optee_os/lib/libmpa/mpa_addsub.c:144
    7076:	687b      	ldr	r3, [r7, #4]
    7078:	62fb      	str	r3, [r7, #44]	; 0x2c
/home/csx/share/gerrit/optee_os/lib/libmpa/mpa_addsub.c:145
    707a:	6c7b      	ldr	r3, [r7, #68]	; 0x44
    707c:	623b      	str	r3, [r7, #32]
/home/csx/share/gerrit/optee_os/lib/libmpa/mpa_addsub.c:146
    707e:	683b      	ldr	r3, [r7, #0]
    7080:	627b      	str	r3, [r7, #36]	; 0x24
/home/csx/share/gerrit/optee_os/lib/libmpa/mpa_addsub.c:149
    7082:	68fb      	ldr	r3, [r7, #12]
    7084:	61bb      	str	r3, [r7, #24]
/home/csx/share/gerrit/optee_os/lib/libmpa/mpa_addsub.c:150
    7086:	2300      	movs	r3, #0
    7088:	617b      	str	r3, [r7, #20]
/home/csx/share/gerrit/optee_os/lib/libmpa/mpa_addsub.c:151
    708a:	2300      	movs	r3, #0
    708c:	61fb      	str	r3, [r7, #28]
/home/csx/share/gerrit/optee_os/lib/libmpa/mpa_addsub.c:152
    708e:	e013      	b.n	70b8 <__mpa_abs_add+0x74>
/home/csx/share/gerrit/optee_os/lib/libmpa/mpa_addsub.c:153
    7090:	6afb      	ldr	r3, [r7, #44]	; 0x2c
    7092:	1d1a      	adds	r2, r3, #4
    7094:	62fa      	str	r2, [r7, #44]	; 0x2c
    7096:	6818      	ldr	r0, [r3, #0]
    7098:	6abb      	ldr	r3, [r7, #40]	; 0x28
    709a:	1d1a      	adds	r2, r3, #4
    709c:	62ba      	str	r2, [r7, #40]	; 0x28
    709e:	6819      	ldr	r1, [r3, #0]
    70a0:	68fb      	ldr	r3, [r7, #12]
    70a2:	1d1a      	adds	r2, r3, #4
    70a4:	60fa      	str	r2, [r7, #12]
    70a6:	f107 0414 	add.w	r4, r7, #20
    70aa:	461a      	mov	r2, r3
    70ac:	4623      	mov	r3, r4
    70ae:	f7ff ff33 	bl	6f18 <__mpa_full_adder>
/home/csx/share/gerrit/optee_os/lib/libmpa/mpa_addsub.c:154
    70b2:	69fb      	ldr	r3, [r7, #28]
    70b4:	3301      	adds	r3, #1
    70b6:	61fb      	str	r3, [r7, #28]
/home/csx/share/gerrit/optee_os/lib/libmpa/mpa_addsub.c:152
    70b8:	69fa      	ldr	r2, [r7, #28]
    70ba:	6a7b      	ldr	r3, [r7, #36]	; 0x24
    70bc:	429a      	cmp	r2, r3
    70be:	dbe7      	blt.n	7090 <__mpa_abs_add+0x4c>
/home/csx/share/gerrit/optee_os/lib/libmpa/mpa_addsub.c:156
    70c0:	e010      	b.n	70e4 <__mpa_abs_add+0xa0>
/home/csx/share/gerrit/optee_os/lib/libmpa/mpa_addsub.c:157
    70c2:	6abb      	ldr	r3, [r7, #40]	; 0x28
    70c4:	1d1a      	adds	r2, r3, #4
    70c6:	62ba      	str	r2, [r7, #40]	; 0x28
    70c8:	6819      	ldr	r1, [r3, #0]
    70ca:	68fb      	ldr	r3, [r7, #12]
    70cc:	1d1a      	adds	r2, r3, #4
    70ce:	60fa      	str	r2, [r7, #12]
    70d0:	f107 0414 	add.w	r4, r7, #20
    70d4:	2000      	movs	r0, #0
    70d6:	461a      	mov	r2, r3
    70d8:	4623      	mov	r3, r4
    70da:	f7ff ff1d 	bl	6f18 <__mpa_full_adder>
/home/csx/share/gerrit/optee_os/lib/libmpa/mpa_addsub.c:158
    70de:	69fb      	ldr	r3, [r7, #28]
    70e0:	3301      	adds	r3, #1
    70e2:	61fb      	str	r3, [r7, #28]
/home/csx/share/gerrit/optee_os/lib/libmpa/mpa_addsub.c:156
    70e4:	697b      	ldr	r3, [r7, #20]
    70e6:	2b00      	cmp	r3, #0
    70e8:	d003      	beq.n	70f2 <__mpa_abs_add+0xae>
/home/csx/share/gerrit/optee_os/lib/libmpa/mpa_addsub.c:156 (discriminator 1)
    70ea:	69fa      	ldr	r2, [r7, #28]
    70ec:	6a3b      	ldr	r3, [r7, #32]
    70ee:	429a      	cmp	r2, r3
    70f0:	dbe7      	blt.n	70c2 <__mpa_abs_add+0x7e>
/home/csx/share/gerrit/optee_os/lib/libmpa/mpa_addsub.c:161
    70f2:	69fa      	ldr	r2, [r7, #28]
    70f4:	6a3b      	ldr	r3, [r7, #32]
    70f6:	429a      	cmp	r2, r3
    70f8:	da0f      	bge.n	711a <__mpa_abs_add+0xd6>
/home/csx/share/gerrit/optee_os/lib/libmpa/mpa_addsub.c:163
    70fa:	6a3a      	ldr	r2, [r7, #32]
    70fc:	69fb      	ldr	r3, [r7, #28]
    70fe:	1ad3      	subs	r3, r2, r3
    7100:	009b      	lsls	r3, r3, #2
    7102:	68f8      	ldr	r0, [r7, #12]
    7104:	6ab9      	ldr	r1, [r7, #40]	; 0x28
    7106:	461a      	mov	r2, r3
    7108:	f7fb fe46 	bl	2d98 <memcpy>
/home/csx/share/gerrit/optee_os/lib/libmpa/mpa_addsub.c:164
    710c:	6a3a      	ldr	r2, [r7, #32]
    710e:	69fb      	ldr	r3, [r7, #28]
    7110:	1ad3      	subs	r3, r2, r3
    7112:	009b      	lsls	r3, r3, #2
    7114:	68fa      	ldr	r2, [r7, #12]
    7116:	4413      	add	r3, r2
    7118:	60fb      	str	r3, [r7, #12]
/home/csx/share/gerrit/optee_os/lib/libmpa/mpa_addsub.c:167
    711a:	697b      	ldr	r3, [r7, #20]
    711c:	2b00      	cmp	r3, #0
    711e:	d004      	beq.n	712a <__mpa_abs_add+0xe6>
/home/csx/share/gerrit/optee_os/lib/libmpa/mpa_addsub.c:168
    7120:	68fb      	ldr	r3, [r7, #12]
    7122:	1d1a      	adds	r2, r3, #4
    7124:	60fa      	str	r2, [r7, #12]
    7126:	697a      	ldr	r2, [r7, #20]
    7128:	601a      	str	r2, [r3, #0]
/home/csx/share/gerrit/optee_os/lib/libmpa/mpa_addsub.c:169
    712a:	68fa      	ldr	r2, [r7, #12]
    712c:	69bb      	ldr	r3, [r7, #24]
    712e:	1ad3      	subs	r3, r2, r3
    7130:	109b      	asrs	r3, r3, #2
    7132:	461a      	mov	r2, r3
    7134:	68bb      	ldr	r3, [r7, #8]
    7136:	601a      	str	r2, [r3, #0]
/home/csx/share/gerrit/optee_os/lib/libmpa/mpa_addsub.c:170
    7138:	3734      	adds	r7, #52	; 0x34
    713a:	46bd      	mov	sp, r7
    713c:	e9dd 4700 	ldrd	r4, r7, [sp]
    7140:	b002      	add	sp, #8
    7142:	f85d fb04 	ldr.w	pc, [sp], #4
    7146:	bf00      	nop

00007148 <__mpa_abs_add_ackum>:
__mpa_abs_add_ackum():
/home/csx/share/gerrit/optee_os/lib/libmpa/mpa_addsub.c:179
    7148:	e96d 7e02 	strd	r7, lr, [sp, #-8]!
    714c:	b088      	sub	sp, #32
    714e:	af00      	add	r7, sp, #0
    7150:	6078      	str	r0, [r7, #4]
    7152:	6039      	str	r1, [r7, #0]
/home/csx/share/gerrit/optee_os/lib/libmpa/mpa_addsub.c:187
    7154:	683b      	ldr	r3, [r7, #0]
    7156:	685a      	ldr	r2, [r3, #4]
    7158:	687b      	ldr	r3, [r7, #4]
    715a:	685b      	ldr	r3, [r3, #4]
    715c:	1ad3      	subs	r3, r2, r3
    715e:	617b      	str	r3, [r7, #20]
/home/csx/share/gerrit/optee_os/lib/libmpa/mpa_addsub.c:188
    7160:	697b      	ldr	r3, [r7, #20]
    7162:	2b00      	cmp	r3, #0
    7164:	dc01      	bgt.n	716a <__mpa_abs_add_ackum+0x22>
/home/csx/share/gerrit/optee_os/lib/libmpa/mpa_addsub.c:189
    7166:	2300      	movs	r3, #0
    7168:	617b      	str	r3, [r7, #20]
/home/csx/share/gerrit/optee_os/lib/libmpa/mpa_addsub.c:190
    716a:	687b      	ldr	r3, [r7, #4]
    716c:	685b      	ldr	r3, [r3, #4]
    716e:	3302      	adds	r3, #2
    7170:	009b      	lsls	r3, r3, #2
    7172:	687a      	ldr	r2, [r7, #4]
    7174:	441a      	add	r2, r3
    7176:	697b      	ldr	r3, [r7, #20]
    7178:	3301      	adds	r3, #1
    717a:	009b      	lsls	r3, r3, #2
    717c:	4610      	mov	r0, r2
    717e:	2100      	movs	r1, #0
    7180:	461a      	mov	r2, r3
    7182:	f7fb fefd 	bl	2f80 <memset>
/home/csx/share/gerrit/optee_os/lib/libmpa/mpa_addsub.c:192
    7186:	687b      	ldr	r3, [r7, #4]
    7188:	3308      	adds	r3, #8
    718a:	613b      	str	r3, [r7, #16]
/home/csx/share/gerrit/optee_os/lib/libmpa/mpa_addsub.c:193
    718c:	683b      	ldr	r3, [r7, #0]
    718e:	3308      	adds	r3, #8
    7190:	61fb      	str	r3, [r7, #28]
/home/csx/share/gerrit/optee_os/lib/libmpa/mpa_addsub.c:194
    7192:	687b      	ldr	r3, [r7, #4]
    7194:	3308      	adds	r3, #8
    7196:	61bb      	str	r3, [r7, #24]
/home/csx/share/gerrit/optee_os/lib/libmpa/mpa_addsub.c:195
    7198:	2300      	movs	r3, #0
    719a:	617b      	str	r3, [r7, #20]
/home/csx/share/gerrit/optee_os/lib/libmpa/mpa_addsub.c:196
    719c:	2300      	movs	r3, #0
    719e:	60fb      	str	r3, [r7, #12]
/home/csx/share/gerrit/optee_os/lib/libmpa/mpa_addsub.c:197
    71a0:	e00f      	b.n	71c2 <__mpa_abs_add_ackum+0x7a>
/home/csx/share/gerrit/optee_os/lib/libmpa/mpa_addsub.c:198
    71a2:	69ba      	ldr	r2, [r7, #24]
    71a4:	1d13      	adds	r3, r2, #4
    71a6:	61bb      	str	r3, [r7, #24]
    71a8:	69fb      	ldr	r3, [r7, #28]
    71aa:	1d19      	adds	r1, r3, #4
    71ac:	61f9      	str	r1, [r7, #28]
    71ae:	6819      	ldr	r1, [r3, #0]
    71b0:	f107 030c 	add.w	r3, r7, #12
    71b4:	4610      	mov	r0, r2
    71b6:	461a      	mov	r2, r3
    71b8:	f7ff ff12 	bl	6fe0 <__mpa_full_adder_ackum>
/home/csx/share/gerrit/optee_os/lib/libmpa/mpa_addsub.c:205
    71bc:	697b      	ldr	r3, [r7, #20]
    71be:	3301      	adds	r3, #1
    71c0:	617b      	str	r3, [r7, #20]
/home/csx/share/gerrit/optee_os/lib/libmpa/mpa_addsub.c:197
    71c2:	683b      	ldr	r3, [r7, #0]
    71c4:	685a      	ldr	r2, [r3, #4]
    71c6:	697b      	ldr	r3, [r7, #20]
    71c8:	429a      	cmp	r2, r3
    71ca:	dcea      	bgt.n	71a2 <__mpa_abs_add_ackum+0x5a>
/home/csx/share/gerrit/optee_os/lib/libmpa/mpa_addsub.c:207
    71cc:	e008      	b.n	71e0 <__mpa_abs_add_ackum+0x98>
/home/csx/share/gerrit/optee_os/lib/libmpa/mpa_addsub.c:208
    71ce:	69bb      	ldr	r3, [r7, #24]
    71d0:	1d1a      	adds	r2, r3, #4
    71d2:	61ba      	str	r2, [r7, #24]
    71d4:	f107 020c 	add.w	r2, r7, #12
    71d8:	4618      	mov	r0, r3
    71da:	2100      	movs	r1, #0
    71dc:	f7ff ff00 	bl	6fe0 <__mpa_full_adder_ackum>
/home/csx/share/gerrit/optee_os/lib/libmpa/mpa_addsub.c:207
    71e0:	68fb      	ldr	r3, [r7, #12]
    71e2:	2b00      	cmp	r3, #0
    71e4:	d1f3      	bne.n	71ce <__mpa_abs_add_ackum+0x86>
/home/csx/share/gerrit/optee_os/lib/libmpa/mpa_addsub.c:215
    71e6:	69ba      	ldr	r2, [r7, #24]
    71e8:	693b      	ldr	r3, [r7, #16]
    71ea:	1ad3      	subs	r3, r2, r3
    71ec:	109b      	asrs	r3, r3, #2
    71ee:	617b      	str	r3, [r7, #20]
/home/csx/share/gerrit/optee_os/lib/libmpa/mpa_addsub.c:216
    71f0:	687b      	ldr	r3, [r7, #4]
    71f2:	685a      	ldr	r2, [r3, #4]
    71f4:	697b      	ldr	r3, [r7, #20]
    71f6:	429a      	cmp	r2, r3
    71f8:	da02      	bge.n	7200 <__mpa_abs_add_ackum+0xb8>
/home/csx/share/gerrit/optee_os/lib/libmpa/mpa_addsub.c:217
    71fa:	687b      	ldr	r3, [r7, #4]
    71fc:	697a      	ldr	r2, [r7, #20]
    71fe:	605a      	str	r2, [r3, #4]
/home/csx/share/gerrit/optee_os/lib/libmpa/mpa_addsub.c:218
    7200:	3720      	adds	r7, #32
    7202:	46bd      	mov	sp, r7
    7204:	bd80      	pop	{r7, pc}
    7206:	bf00      	nop

00007208 <__mpa_abs_sub>:
__mpa_abs_sub():
/home/csx/share/gerrit/optee_os/lib/libmpa/mpa_addsub.c:233
    7208:	f84d 4d0c 	str.w	r4, [sp, #-12]!
    720c:	e9cd 7e01 	strd	r7, lr, [sp, #4]
    7210:	b087      	sub	sp, #28
    7212:	af00      	add	r7, sp, #0
    7214:	60f8      	str	r0, [r7, #12]
    7216:	60b9      	str	r1, [r7, #8]
    7218:	607a      	str	r2, [r7, #4]
    721a:	603b      	str	r3, [r7, #0]
/home/csx/share/gerrit/optee_os/lib/libmpa/mpa_addsub.c:237
    721c:	2300      	movs	r3, #0
    721e:	613b      	str	r3, [r7, #16]
/home/csx/share/gerrit/optee_os/lib/libmpa/mpa_addsub.c:238
    7220:	2300      	movs	r3, #0
    7222:	617b      	str	r3, [r7, #20]
/home/csx/share/gerrit/optee_os/lib/libmpa/mpa_addsub.c:239
    7224:	e013      	b.n	724e <__mpa_abs_sub+0x46>
/home/csx/share/gerrit/optee_os/lib/libmpa/mpa_addsub.c:240
    7226:	687b      	ldr	r3, [r7, #4]
    7228:	1d1a      	adds	r2, r3, #4
    722a:	607a      	str	r2, [r7, #4]
    722c:	6818      	ldr	r0, [r3, #0]
    722e:	6abb      	ldr	r3, [r7, #40]	; 0x28
    7230:	1d1a      	adds	r2, r3, #4
    7232:	62ba      	str	r2, [r7, #40]	; 0x28
    7234:	6819      	ldr	r1, [r3, #0]
    7236:	68fb      	ldr	r3, [r7, #12]
    7238:	1d1a      	adds	r2, r3, #4
    723a:	60fa      	str	r2, [r7, #12]
    723c:	f107 0410 	add.w	r4, r7, #16
    7240:	461a      	mov	r2, r3
    7242:	4623      	mov	r3, r4
    7244:	f7ff fe9a 	bl	6f7c <__mpa_full_sub>
/home/csx/share/gerrit/optee_os/lib/libmpa/mpa_addsub.c:241
    7248:	697b      	ldr	r3, [r7, #20]
    724a:	3301      	adds	r3, #1
    724c:	617b      	str	r3, [r7, #20]
/home/csx/share/gerrit/optee_os/lib/libmpa/mpa_addsub.c:239
    724e:	697a      	ldr	r2, [r7, #20]
    7250:	6afb      	ldr	r3, [r7, #44]	; 0x2c
    7252:	429a      	cmp	r2, r3
    7254:	dbe7      	blt.n	7226 <__mpa_abs_sub+0x1e>
/home/csx/share/gerrit/optee_os/lib/libmpa/mpa_addsub.c:247
    7256:	e011      	b.n	727c <__mpa_abs_sub+0x74>
/home/csx/share/gerrit/optee_os/lib/libmpa/mpa_addsub.c:248
    7258:	687b      	ldr	r3, [r7, #4]
    725a:	1d1a      	adds	r2, r3, #4
    725c:	607a      	str	r2, [r7, #4]
    725e:	6819      	ldr	r1, [r3, #0]
    7260:	68fb      	ldr	r3, [r7, #12]
    7262:	1d1a      	adds	r2, r3, #4
    7264:	60fa      	str	r2, [r7, #12]
    7266:	f107 0410 	add.w	r4, r7, #16
    726a:	4608      	mov	r0, r1
    726c:	2100      	movs	r1, #0
    726e:	461a      	mov	r2, r3
    7270:	4623      	mov	r3, r4
    7272:	f7ff fe83 	bl	6f7c <__mpa_full_sub>
/home/csx/share/gerrit/optee_os/lib/libmpa/mpa_addsub.c:249
    7276:	697b      	ldr	r3, [r7, #20]
    7278:	3301      	adds	r3, #1
    727a:	617b      	str	r3, [r7, #20]
/home/csx/share/gerrit/optee_os/lib/libmpa/mpa_addsub.c:247
    727c:	693b      	ldr	r3, [r7, #16]
    727e:	2b00      	cmp	r3, #0
    7280:	d003      	beq.n	728a <__mpa_abs_sub+0x82>
/home/csx/share/gerrit/optee_os/lib/libmpa/mpa_addsub.c:247 (discriminator 1)
    7282:	697a      	ldr	r2, [r7, #20]
    7284:	683b      	ldr	r3, [r7, #0]
    7286:	429a      	cmp	r2, r3
    7288:	dbe6      	blt.n	7258 <__mpa_abs_sub+0x50>
/home/csx/share/gerrit/optee_os/lib/libmpa/mpa_addsub.c:252
    728a:	697a      	ldr	r2, [r7, #20]
    728c:	683b      	ldr	r3, [r7, #0]
    728e:	429a      	cmp	r2, r3
    7290:	da0f      	bge.n	72b2 <__mpa_abs_sub+0xaa>
/home/csx/share/gerrit/optee_os/lib/libmpa/mpa_addsub.c:257
    7292:	683a      	ldr	r2, [r7, #0]
    7294:	697b      	ldr	r3, [r7, #20]
    7296:	1ad3      	subs	r3, r2, r3
    7298:	009b      	lsls	r3, r3, #2
    729a:	68f8      	ldr	r0, [r7, #12]
    729c:	6879      	ldr	r1, [r7, #4]
    729e:	461a      	mov	r2, r3
    72a0:	f7fb fd7a 	bl	2d98 <memcpy>
/home/csx/share/gerrit/optee_os/lib/libmpa/mpa_addsub.c:258
    72a4:	683a      	ldr	r2, [r7, #0]
    72a6:	697b      	ldr	r3, [r7, #20]
    72a8:	1ad3      	subs	r3, r2, r3
    72aa:	009b      	lsls	r3, r3, #2
    72ac:	68fa      	ldr	r2, [r7, #12]
    72ae:	4413      	add	r3, r2
    72b0:	60fb      	str	r3, [r7, #12]
/home/csx/share/gerrit/optee_os/lib/libmpa/mpa_addsub.c:261
    72b2:	683b      	ldr	r3, [r7, #0]
    72b4:	617b      	str	r3, [r7, #20]
/home/csx/share/gerrit/optee_os/lib/libmpa/mpa_addsub.c:262
    72b6:	e002      	b.n	72be <__mpa_abs_sub+0xb6>
/home/csx/share/gerrit/optee_os/lib/libmpa/mpa_addsub.c:263
    72b8:	697b      	ldr	r3, [r7, #20]
    72ba:	3b01      	subs	r3, #1
    72bc:	617b      	str	r3, [r7, #20]
/home/csx/share/gerrit/optee_os/lib/libmpa/mpa_addsub.c:262
    72be:	697b      	ldr	r3, [r7, #20]
    72c0:	2b00      	cmp	r3, #0
    72c2:	dd06      	ble.n	72d2 <__mpa_abs_sub+0xca>
/home/csx/share/gerrit/optee_os/lib/libmpa/mpa_addsub.c:262 (discriminator 1)
    72c4:	68fb      	ldr	r3, [r7, #12]
    72c6:	3b04      	subs	r3, #4
    72c8:	60fb      	str	r3, [r7, #12]
    72ca:	68fb      	ldr	r3, [r7, #12]
    72cc:	681b      	ldr	r3, [r3, #0]
    72ce:	2b00      	cmp	r3, #0
    72d0:	d0f2      	beq.n	72b8 <__mpa_abs_sub+0xb0>
/home/csx/share/gerrit/optee_os/lib/libmpa/mpa_addsub.c:264
    72d2:	68bb      	ldr	r3, [r7, #8]
    72d4:	697a      	ldr	r2, [r7, #20]
    72d6:	601a      	str	r2, [r3, #0]
/home/csx/share/gerrit/optee_os/lib/libmpa/mpa_addsub.c:265
    72d8:	371c      	adds	r7, #28
    72da:	46bd      	mov	sp, r7
    72dc:	e9dd 4700 	ldrd	r4, r7, [sp]
    72e0:	b002      	add	sp, #8
    72e2:	f85d fb04 	ldr.w	pc, [sp], #4
    72e6:	bf00      	nop

000072e8 <mpa_add>:
mpa_add():
/home/csx/share/gerrit/optee_os/lib/libmpa/mpa_addsub.c:281
    72e8:	e96d 4504 	strd	r4, r5, [sp, #-16]!
    72ec:	e9cd 7e02 	strd	r7, lr, [sp, #8]
    72f0:	b08c      	sub	sp, #48	; 0x30
    72f2:	af02      	add	r7, sp, #8
    72f4:	60f8      	str	r0, [r7, #12]
    72f6:	60b9      	str	r1, [r7, #8]
    72f8:	607a      	str	r2, [r7, #4]
    72fa:	603b      	str	r3, [r7, #0]
/home/csx/share/gerrit/optee_os/lib/libmpa/mpa_addsub.c:289
    72fc:	68bb      	ldr	r3, [r7, #8]
    72fe:	685b      	ldr	r3, [r3, #4]
    7300:	2b00      	cmp	r3, #0
    7302:	bfb8      	it	lt
    7304:	425b      	neglt	r3, r3
    7306:	627b      	str	r3, [r7, #36]	; 0x24
/home/csx/share/gerrit/optee_os/lib/libmpa/mpa_addsub.c:290
    7308:	687b      	ldr	r3, [r7, #4]
    730a:	685b      	ldr	r3, [r3, #4]
    730c:	2b00      	cmp	r3, #0
    730e:	bfb8      	it	lt
    7310:	425b      	neglt	r3, r3
    7312:	623b      	str	r3, [r7, #32]
/home/csx/share/gerrit/optee_os/lib/libmpa/mpa_addsub.c:292
    7314:	68bb      	ldr	r3, [r7, #8]
    7316:	685b      	ldr	r3, [r3, #4]
    7318:	2b00      	cmp	r3, #0
    731a:	db01      	blt.n	7320 <mpa_add+0x38>
/home/csx/share/gerrit/optee_os/lib/libmpa/mpa_addsub.c:292 (discriminator 1)
    731c:	2301      	movs	r3, #1
    731e:	e001      	b.n	7324 <mpa_add+0x3c>
/home/csx/share/gerrit/optee_os/lib/libmpa/mpa_addsub.c:292 (discriminator 2)
    7320:	f04f 33ff 	mov.w	r3, #4294967295	; 0xffffffff
/home/csx/share/gerrit/optee_os/lib/libmpa/mpa_addsub.c:292 (discriminator 4)
    7324:	61fb      	str	r3, [r7, #28]
/home/csx/share/gerrit/optee_os/lib/libmpa/mpa_addsub.c:293 (discriminator 4)
    7326:	687b      	ldr	r3, [r7, #4]
    7328:	685b      	ldr	r3, [r3, #4]
    732a:	2b00      	cmp	r3, #0
    732c:	db01      	blt.n	7332 <mpa_add+0x4a>
/home/csx/share/gerrit/optee_os/lib/libmpa/mpa_addsub.c:293 (discriminator 1)
    732e:	2301      	movs	r3, #1
    7330:	e001      	b.n	7336 <mpa_add+0x4e>
/home/csx/share/gerrit/optee_os/lib/libmpa/mpa_addsub.c:293 (discriminator 2)
    7332:	f04f 33ff 	mov.w	r3, #4294967295	; 0xffffffff
/home/csx/share/gerrit/optee_os/lib/libmpa/mpa_addsub.c:293 (discriminator 4)
    7336:	61bb      	str	r3, [r7, #24]
/home/csx/share/gerrit/optee_os/lib/libmpa/mpa_addsub.c:296 (discriminator 4)
    7338:	68fa      	ldr	r2, [r7, #12]
    733a:	68bb      	ldr	r3, [r7, #8]
    733c:	429a      	cmp	r2, r3
    733e:	d003      	beq.n	7348 <mpa_add+0x60>
/home/csx/share/gerrit/optee_os/lib/libmpa/mpa_addsub.c:296 (discriminator 2)
    7340:	68fa      	ldr	r2, [r7, #12]
    7342:	687b      	ldr	r3, [r7, #4]
    7344:	429a      	cmp	r2, r3
    7346:	d101      	bne.n	734c <mpa_add+0x64>
/home/csx/share/gerrit/optee_os/lib/libmpa/mpa_addsub.c:296 (discriminator 3)
    7348:	2301      	movs	r3, #1
    734a:	e000      	b.n	734e <mpa_add+0x66>
/home/csx/share/gerrit/optee_os/lib/libmpa/mpa_addsub.c:296 (discriminator 4)
    734c:	2300      	movs	r3, #0
/home/csx/share/gerrit/optee_os/lib/libmpa/mpa_addsub.c:296 (discriminator 6)
    734e:	617b      	str	r3, [r7, #20]
/home/csx/share/gerrit/optee_os/lib/libmpa/mpa_addsub.c:297 (discriminator 6)
    7350:	697b      	ldr	r3, [r7, #20]
    7352:	2b00      	cmp	r3, #0
    7354:	d006      	beq.n	7364 <mpa_add+0x7c>
/home/csx/share/gerrit/optee_os/lib/libmpa/mpa_addsub.c:298
    7356:	f107 0310 	add.w	r3, r7, #16
    735a:	4618      	mov	r0, r3
    735c:	6839      	ldr	r1, [r7, #0]
    735e:	f7ff f88d 	bl	647c <mpa_alloc_static_temp_var>
    7362:	e001      	b.n	7368 <mpa_add+0x80>
/home/csx/share/gerrit/optee_os/lib/libmpa/mpa_addsub.c:300
    7364:	68fb      	ldr	r3, [r7, #12]
    7366:	613b      	str	r3, [r7, #16]
/home/csx/share/gerrit/optee_os/lib/libmpa/mpa_addsub.c:306
    7368:	69fa      	ldr	r2, [r7, #28]
    736a:	69bb      	ldr	r3, [r7, #24]
    736c:	429a      	cmp	r2, r3
    736e:	d11c      	bne.n	73aa <mpa_add+0xc2>
/home/csx/share/gerrit/optee_os/lib/libmpa/mpa_addsub.c:308
    7370:	693b      	ldr	r3, [r7, #16]
    7372:	f103 0008 	add.w	r0, r3, #8
    7376:	693b      	ldr	r3, [r7, #16]
    7378:	1d19      	adds	r1, r3, #4
    737a:	68bb      	ldr	r3, [r7, #8]
    737c:	f103 0508 	add.w	r5, r3, #8
    7380:	6a7c      	ldr	r4, [r7, #36]	; 0x24
/home/csx/share/gerrit/optee_os/lib/libmpa/mpa_addsub.c:309
    7382:	687b      	ldr	r3, [r7, #4]
    7384:	f103 0208 	add.w	r2, r3, #8
/home/csx/share/gerrit/optee_os/lib/libmpa/mpa_addsub.c:308
    7388:	6a3b      	ldr	r3, [r7, #32]
    738a:	9200      	str	r2, [sp, #0]
    738c:	9301      	str	r3, [sp, #4]
    738e:	462a      	mov	r2, r5
    7390:	4623      	mov	r3, r4
    7392:	f7ff fe57 	bl	7044 <__mpa_abs_add>
/home/csx/share/gerrit/optee_os/lib/libmpa/mpa_addsub.c:311
    7396:	69fb      	ldr	r3, [r7, #28]
    7398:	f1b3 3fff 	cmp.w	r3, #4294967295	; 0xffffffff
    739c:	d16f      	bne.n	747e <mpa_add+0x196>
/home/csx/share/gerrit/optee_os/lib/libmpa/mpa_addsub.c:312
    739e:	693b      	ldr	r3, [r7, #16]
    73a0:	693a      	ldr	r2, [r7, #16]
    73a2:	6852      	ldr	r2, [r2, #4]
    73a4:	4252      	negs	r2, r2
    73a6:	605a      	str	r2, [r3, #4]
    73a8:	e069      	b.n	747e <mpa_add+0x196>
/home/csx/share/gerrit/optee_os/lib/libmpa/mpa_addsub.c:315
    73aa:	69fb      	ldr	r3, [r7, #28]
    73ac:	2b01      	cmp	r3, #1
    73ae:	d133      	bne.n	7418 <mpa_add+0x130>
/home/csx/share/gerrit/optee_os/lib/libmpa/mpa_addsub.c:316
    73b0:	68b8      	ldr	r0, [r7, #8]
    73b2:	6879      	ldr	r1, [r7, #4]
    73b4:	f000 fb24 	bl	7a00 <__mpa_abs_greater_than>
    73b8:	4603      	mov	r3, r0
    73ba:	2b00      	cmp	r3, #0
    73bc:	d013      	beq.n	73e6 <mpa_add+0xfe>
/home/csx/share/gerrit/optee_os/lib/libmpa/mpa_addsub.c:320
    73be:	693b      	ldr	r3, [r7, #16]
    73c0:	f103 0008 	add.w	r0, r3, #8
    73c4:	693b      	ldr	r3, [r7, #16]
    73c6:	1d19      	adds	r1, r3, #4
/home/csx/share/gerrit/optee_os/lib/libmpa/mpa_addsub.c:321
    73c8:	68bb      	ldr	r3, [r7, #8]
    73ca:	f103 0508 	add.w	r5, r3, #8
/home/csx/share/gerrit/optee_os/lib/libmpa/mpa_addsub.c:320
    73ce:	6a7c      	ldr	r4, [r7, #36]	; 0x24
/home/csx/share/gerrit/optee_os/lib/libmpa/mpa_addsub.c:321
    73d0:	687b      	ldr	r3, [r7, #4]
    73d2:	f103 0208 	add.w	r2, r3, #8
/home/csx/share/gerrit/optee_os/lib/libmpa/mpa_addsub.c:320
    73d6:	6a3b      	ldr	r3, [r7, #32]
    73d8:	9200      	str	r2, [sp, #0]
    73da:	9301      	str	r3, [sp, #4]
    73dc:	462a      	mov	r2, r5
    73de:	4623      	mov	r3, r4
    73e0:	f7ff ff12 	bl	7208 <__mpa_abs_sub>
    73e4:	e04b      	b.n	747e <mpa_add+0x196>
/home/csx/share/gerrit/optee_os/lib/libmpa/mpa_addsub.c:325
    73e6:	693b      	ldr	r3, [r7, #16]
    73e8:	f103 0008 	add.w	r0, r3, #8
    73ec:	693b      	ldr	r3, [r7, #16]
    73ee:	1d19      	adds	r1, r3, #4
/home/csx/share/gerrit/optee_os/lib/libmpa/mpa_addsub.c:326
    73f0:	687b      	ldr	r3, [r7, #4]
    73f2:	f103 0508 	add.w	r5, r3, #8
/home/csx/share/gerrit/optee_os/lib/libmpa/mpa_addsub.c:325
    73f6:	6a3c      	ldr	r4, [r7, #32]
/home/csx/share/gerrit/optee_os/lib/libmpa/mpa_addsub.c:326
    73f8:	68bb      	ldr	r3, [r7, #8]
    73fa:	f103 0208 	add.w	r2, r3, #8
/home/csx/share/gerrit/optee_os/lib/libmpa/mpa_addsub.c:325
    73fe:	6a7b      	ldr	r3, [r7, #36]	; 0x24
    7400:	9200      	str	r2, [sp, #0]
    7402:	9301      	str	r3, [sp, #4]
    7404:	462a      	mov	r2, r5
    7406:	4623      	mov	r3, r4
    7408:	f7ff fefe 	bl	7208 <__mpa_abs_sub>
/home/csx/share/gerrit/optee_os/lib/libmpa/mpa_addsub.c:327
    740c:	693b      	ldr	r3, [r7, #16]
    740e:	693a      	ldr	r2, [r7, #16]
    7410:	6852      	ldr	r2, [r2, #4]
    7412:	4252      	negs	r2, r2
    7414:	605a      	str	r2, [r3, #4]
    7416:	e032      	b.n	747e <mpa_add+0x196>
/home/csx/share/gerrit/optee_os/lib/libmpa/mpa_addsub.c:331
    7418:	68b8      	ldr	r0, [r7, #8]
    741a:	6879      	ldr	r1, [r7, #4]
    741c:	f000 faf0 	bl	7a00 <__mpa_abs_greater_than>
    7420:	4603      	mov	r3, r0
    7422:	2b00      	cmp	r3, #0
    7424:	d018      	beq.n	7458 <mpa_add+0x170>
/home/csx/share/gerrit/optee_os/lib/libmpa/mpa_addsub.c:335
    7426:	693b      	ldr	r3, [r7, #16]
    7428:	f103 0008 	add.w	r0, r3, #8
    742c:	693b      	ldr	r3, [r7, #16]
    742e:	1d19      	adds	r1, r3, #4
/home/csx/share/gerrit/optee_os/lib/libmpa/mpa_addsub.c:336
    7430:	68bb      	ldr	r3, [r7, #8]
    7432:	f103 0508 	add.w	r5, r3, #8
/home/csx/share/gerrit/optee_os/lib/libmpa/mpa_addsub.c:335
    7436:	6a7c      	ldr	r4, [r7, #36]	; 0x24
/home/csx/share/gerrit/optee_os/lib/libmpa/mpa_addsub.c:336
    7438:	687b      	ldr	r3, [r7, #4]
    743a:	f103 0208 	add.w	r2, r3, #8
/home/csx/share/gerrit/optee_os/lib/libmpa/mpa_addsub.c:335
    743e:	6a3b      	ldr	r3, [r7, #32]
    7440:	9200      	str	r2, [sp, #0]
    7442:	9301      	str	r3, [sp, #4]
    7444:	462a      	mov	r2, r5
    7446:	4623      	mov	r3, r4
    7448:	f7ff fede 	bl	7208 <__mpa_abs_sub>
/home/csx/share/gerrit/optee_os/lib/libmpa/mpa_addsub.c:337
    744c:	693b      	ldr	r3, [r7, #16]
    744e:	693a      	ldr	r2, [r7, #16]
    7450:	6852      	ldr	r2, [r2, #4]
    7452:	4252      	negs	r2, r2
    7454:	605a      	str	r2, [r3, #4]
    7456:	e012      	b.n	747e <mpa_add+0x196>
/home/csx/share/gerrit/optee_os/lib/libmpa/mpa_addsub.c:340
    7458:	693b      	ldr	r3, [r7, #16]
    745a:	f103 0008 	add.w	r0, r3, #8
    745e:	693b      	ldr	r3, [r7, #16]
    7460:	1d19      	adds	r1, r3, #4
/home/csx/share/gerrit/optee_os/lib/libmpa/mpa_addsub.c:341
    7462:	687b      	ldr	r3, [r7, #4]
    7464:	f103 0508 	add.w	r5, r3, #8
/home/csx/share/gerrit/optee_os/lib/libmpa/mpa_addsub.c:340
    7468:	6a3c      	ldr	r4, [r7, #32]
/home/csx/share/gerrit/optee_os/lib/libmpa/mpa_addsub.c:341
    746a:	68bb      	ldr	r3, [r7, #8]
    746c:	f103 0208 	add.w	r2, r3, #8
/home/csx/share/gerrit/optee_os/lib/libmpa/mpa_addsub.c:340
    7470:	6a7b      	ldr	r3, [r7, #36]	; 0x24
    7472:	9200      	str	r2, [sp, #0]
    7474:	9301      	str	r3, [sp, #4]
    7476:	462a      	mov	r2, r5
    7478:	4623      	mov	r3, r4
    747a:	f7ff fec5 	bl	7208 <__mpa_abs_sub>
/home/csx/share/gerrit/optee_os/lib/libmpa/mpa_addsub.c:346
    747e:	693b      	ldr	r3, [r7, #16]
    7480:	68f8      	ldr	r0, [r7, #12]
    7482:	4619      	mov	r1, r3
    7484:	f7fd f8c8 	bl	4618 <mpa_copy>
/home/csx/share/gerrit/optee_os/lib/libmpa/mpa_addsub.c:347
    7488:	697b      	ldr	r3, [r7, #20]
    748a:	2b00      	cmp	r3, #0
    748c:	d005      	beq.n	749a <mpa_add+0x1b2>
/home/csx/share/gerrit/optee_os/lib/libmpa/mpa_addsub.c:348
    748e:	f107 0310 	add.w	r3, r7, #16
    7492:	4618      	mov	r0, r3
    7494:	6839      	ldr	r1, [r7, #0]
    7496:	f7ff f803 	bl	64a0 <mpa_free_static_temp_var>
/home/csx/share/gerrit/optee_os/lib/libmpa/mpa_addsub.c:349
    749a:	3728      	adds	r7, #40	; 0x28
    749c:	46bd      	mov	sp, r7
    749e:	e9dd 4500 	ldrd	r4, r5, [sp]
    74a2:	b002      	add	sp, #8
    74a4:	bd80      	pop	{r7, pc}
    74a6:	bf00      	nop

000074a8 <mpa_sub>:
mpa_sub():
/home/csx/share/gerrit/optee_os/lib/libmpa/mpa_addsub.c:359
    74a8:	e96d 4504 	strd	r4, r5, [sp, #-16]!
    74ac:	e9cd 7e02 	strd	r7, lr, [sp, #8]
    74b0:	b08c      	sub	sp, #48	; 0x30
    74b2:	af02      	add	r7, sp, #8
    74b4:	60f8      	str	r0, [r7, #12]
    74b6:	60b9      	str	r1, [r7, #8]
    74b8:	607a      	str	r2, [r7, #4]
    74ba:	603b      	str	r3, [r7, #0]
/home/csx/share/gerrit/optee_os/lib/libmpa/mpa_addsub.c:367
    74bc:	68bb      	ldr	r3, [r7, #8]
    74be:	685b      	ldr	r3, [r3, #4]
    74c0:	2b00      	cmp	r3, #0
    74c2:	bfb8      	it	lt
    74c4:	425b      	neglt	r3, r3
    74c6:	627b      	str	r3, [r7, #36]	; 0x24
/home/csx/share/gerrit/optee_os/lib/libmpa/mpa_addsub.c:368
    74c8:	687b      	ldr	r3, [r7, #4]
    74ca:	685b      	ldr	r3, [r3, #4]
    74cc:	2b00      	cmp	r3, #0
    74ce:	bfb8      	it	lt
    74d0:	425b      	neglt	r3, r3
    74d2:	623b      	str	r3, [r7, #32]
/home/csx/share/gerrit/optee_os/lib/libmpa/mpa_addsub.c:370
    74d4:	68bb      	ldr	r3, [r7, #8]
    74d6:	685b      	ldr	r3, [r3, #4]
    74d8:	2b00      	cmp	r3, #0
    74da:	db01      	blt.n	74e0 <mpa_sub+0x38>
/home/csx/share/gerrit/optee_os/lib/libmpa/mpa_addsub.c:370 (discriminator 1)
    74dc:	2301      	movs	r3, #1
    74de:	e001      	b.n	74e4 <mpa_sub+0x3c>
/home/csx/share/gerrit/optee_os/lib/libmpa/mpa_addsub.c:370 (discriminator 2)
    74e0:	f04f 33ff 	mov.w	r3, #4294967295	; 0xffffffff
/home/csx/share/gerrit/optee_os/lib/libmpa/mpa_addsub.c:370 (discriminator 4)
    74e4:	61fb      	str	r3, [r7, #28]
/home/csx/share/gerrit/optee_os/lib/libmpa/mpa_addsub.c:371 (discriminator 4)
    74e6:	687b      	ldr	r3, [r7, #4]
    74e8:	685b      	ldr	r3, [r3, #4]
    74ea:	2b00      	cmp	r3, #0
    74ec:	db01      	blt.n	74f2 <mpa_sub+0x4a>
/home/csx/share/gerrit/optee_os/lib/libmpa/mpa_addsub.c:371 (discriminator 1)
    74ee:	2301      	movs	r3, #1
    74f0:	e001      	b.n	74f6 <mpa_sub+0x4e>
/home/csx/share/gerrit/optee_os/lib/libmpa/mpa_addsub.c:371 (discriminator 2)
    74f2:	f04f 33ff 	mov.w	r3, #4294967295	; 0xffffffff
/home/csx/share/gerrit/optee_os/lib/libmpa/mpa_addsub.c:371 (discriminator 4)
    74f6:	61bb      	str	r3, [r7, #24]
/home/csx/share/gerrit/optee_os/lib/libmpa/mpa_addsub.c:374 (discriminator 4)
    74f8:	68fa      	ldr	r2, [r7, #12]
    74fa:	68bb      	ldr	r3, [r7, #8]
    74fc:	429a      	cmp	r2, r3
    74fe:	d003      	beq.n	7508 <mpa_sub+0x60>
/home/csx/share/gerrit/optee_os/lib/libmpa/mpa_addsub.c:374 (discriminator 2)
    7500:	68fa      	ldr	r2, [r7, #12]
    7502:	687b      	ldr	r3, [r7, #4]
    7504:	429a      	cmp	r2, r3
    7506:	d101      	bne.n	750c <mpa_sub+0x64>
/home/csx/share/gerrit/optee_os/lib/libmpa/mpa_addsub.c:374 (discriminator 3)
    7508:	2301      	movs	r3, #1
    750a:	e000      	b.n	750e <mpa_sub+0x66>
/home/csx/share/gerrit/optee_os/lib/libmpa/mpa_addsub.c:374 (discriminator 4)
    750c:	2300      	movs	r3, #0
/home/csx/share/gerrit/optee_os/lib/libmpa/mpa_addsub.c:374 (discriminator 6)
    750e:	617b      	str	r3, [r7, #20]
/home/csx/share/gerrit/optee_os/lib/libmpa/mpa_addsub.c:375 (discriminator 6)
    7510:	697b      	ldr	r3, [r7, #20]
    7512:	2b00      	cmp	r3, #0
    7514:	d006      	beq.n	7524 <mpa_sub+0x7c>
/home/csx/share/gerrit/optee_os/lib/libmpa/mpa_addsub.c:376
    7516:	f107 0310 	add.w	r3, r7, #16
    751a:	4618      	mov	r0, r3
    751c:	6839      	ldr	r1, [r7, #0]
    751e:	f7fe ffad 	bl	647c <mpa_alloc_static_temp_var>
    7522:	e001      	b.n	7528 <mpa_sub+0x80>
/home/csx/share/gerrit/optee_os/lib/libmpa/mpa_addsub.c:378
    7524:	68fb      	ldr	r3, [r7, #12]
    7526:	613b      	str	r3, [r7, #16]
/home/csx/share/gerrit/optee_os/lib/libmpa/mpa_addsub.c:384
    7528:	69fa      	ldr	r2, [r7, #28]
    752a:	69bb      	ldr	r3, [r7, #24]
    752c:	429a      	cmp	r2, r3
    752e:	d16a      	bne.n	7606 <mpa_sub+0x15e>
/home/csx/share/gerrit/optee_os/lib/libmpa/mpa_addsub.c:385
    7530:	69fb      	ldr	r3, [r7, #28]
    7532:	2b01      	cmp	r3, #1
    7534:	d133      	bne.n	759e <mpa_sub+0xf6>
/home/csx/share/gerrit/optee_os/lib/libmpa/mpa_addsub.c:386
    7536:	68b8      	ldr	r0, [r7, #8]
    7538:	6879      	ldr	r1, [r7, #4]
    753a:	f000 fa61 	bl	7a00 <__mpa_abs_greater_than>
    753e:	4603      	mov	r3, r0
    7540:	2b00      	cmp	r3, #0
    7542:	d013      	beq.n	756c <mpa_sub+0xc4>
/home/csx/share/gerrit/optee_os/lib/libmpa/mpa_addsub.c:389
    7544:	693b      	ldr	r3, [r7, #16]
    7546:	f103 0008 	add.w	r0, r3, #8
    754a:	693b      	ldr	r3, [r7, #16]
    754c:	1d19      	adds	r1, r3, #4
/home/csx/share/gerrit/optee_os/lib/libmpa/mpa_addsub.c:390
    754e:	68bb      	ldr	r3, [r7, #8]
    7550:	f103 0508 	add.w	r5, r3, #8
/home/csx/share/gerrit/optee_os/lib/libmpa/mpa_addsub.c:389
    7554:	6a7c      	ldr	r4, [r7, #36]	; 0x24
/home/csx/share/gerrit/optee_os/lib/libmpa/mpa_addsub.c:390
    7556:	687b      	ldr	r3, [r7, #4]
    7558:	f103 0208 	add.w	r2, r3, #8
/home/csx/share/gerrit/optee_os/lib/libmpa/mpa_addsub.c:389
    755c:	6a3b      	ldr	r3, [r7, #32]
    755e:	9200      	str	r2, [sp, #0]
    7560:	9301      	str	r3, [sp, #4]
    7562:	462a      	mov	r2, r5
    7564:	4623      	mov	r3, r4
    7566:	f7ff fe4f 	bl	7208 <__mpa_abs_sub>
    756a:	e07b      	b.n	7664 <mpa_sub+0x1bc>
/home/csx/share/gerrit/optee_os/lib/libmpa/mpa_addsub.c:393
    756c:	693b      	ldr	r3, [r7, #16]
    756e:	f103 0008 	add.w	r0, r3, #8
    7572:	693b      	ldr	r3, [r7, #16]
    7574:	1d19      	adds	r1, r3, #4
/home/csx/share/gerrit/optee_os/lib/libmpa/mpa_addsub.c:394
    7576:	687b      	ldr	r3, [r7, #4]
    7578:	f103 0508 	add.w	r5, r3, #8
/home/csx/share/gerrit/optee_os/lib/libmpa/mpa_addsub.c:393
    757c:	6a3c      	ldr	r4, [r7, #32]
/home/csx/share/gerrit/optee_os/lib/libmpa/mpa_addsub.c:394
    757e:	68bb      	ldr	r3, [r7, #8]
    7580:	f103 0208 	add.w	r2, r3, #8
/home/csx/share/gerrit/optee_os/lib/libmpa/mpa_addsub.c:393
    7584:	6a7b      	ldr	r3, [r7, #36]	; 0x24
    7586:	9200      	str	r2, [sp, #0]
    7588:	9301      	str	r3, [sp, #4]
    758a:	462a      	mov	r2, r5
    758c:	4623      	mov	r3, r4
    758e:	f7ff fe3b 	bl	7208 <__mpa_abs_sub>
/home/csx/share/gerrit/optee_os/lib/libmpa/mpa_addsub.c:395
    7592:	693b      	ldr	r3, [r7, #16]
    7594:	693a      	ldr	r2, [r7, #16]
    7596:	6852      	ldr	r2, [r2, #4]
    7598:	4252      	negs	r2, r2
    759a:	605a      	str	r2, [r3, #4]
    759c:	e062      	b.n	7664 <mpa_sub+0x1bc>
/home/csx/share/gerrit/optee_os/lib/libmpa/mpa_addsub.c:400
    759e:	68b8      	ldr	r0, [r7, #8]
    75a0:	6879      	ldr	r1, [r7, #4]
    75a2:	f000 fa2d 	bl	7a00 <__mpa_abs_greater_than>
    75a6:	4603      	mov	r3, r0
    75a8:	2b00      	cmp	r3, #0
    75aa:	d018      	beq.n	75de <mpa_sub+0x136>
/home/csx/share/gerrit/optee_os/lib/libmpa/mpa_addsub.c:404
    75ac:	693b      	ldr	r3, [r7, #16]
    75ae:	f103 0008 	add.w	r0, r3, #8
    75b2:	693b      	ldr	r3, [r7, #16]
    75b4:	1d19      	adds	r1, r3, #4
/home/csx/share/gerrit/optee_os/lib/libmpa/mpa_addsub.c:405
    75b6:	68bb      	ldr	r3, [r7, #8]
    75b8:	f103 0508 	add.w	r5, r3, #8
/home/csx/share/gerrit/optee_os/lib/libmpa/mpa_addsub.c:404
    75bc:	6a7c      	ldr	r4, [r7, #36]	; 0x24
/home/csx/share/gerrit/optee_os/lib/libmpa/mpa_addsub.c:405
    75be:	687b      	ldr	r3, [r7, #4]
    75c0:	f103 0208 	add.w	r2, r3, #8
/home/csx/share/gerrit/optee_os/lib/libmpa/mpa_addsub.c:404
    75c4:	6a3b      	ldr	r3, [r7, #32]
    75c6:	9200      	str	r2, [sp, #0]
    75c8:	9301      	str	r3, [sp, #4]
    75ca:	462a      	mov	r2, r5
    75cc:	4623      	mov	r3, r4
    75ce:	f7ff fe1b 	bl	7208 <__mpa_abs_sub>
/home/csx/share/gerrit/optee_os/lib/libmpa/mpa_addsub.c:406
    75d2:	693b      	ldr	r3, [r7, #16]
    75d4:	693a      	ldr	r2, [r7, #16]
    75d6:	6852      	ldr	r2, [r2, #4]
    75d8:	4252      	negs	r2, r2
    75da:	605a      	str	r2, [r3, #4]
    75dc:	e042      	b.n	7664 <mpa_sub+0x1bc>
/home/csx/share/gerrit/optee_os/lib/libmpa/mpa_addsub.c:409
    75de:	693b      	ldr	r3, [r7, #16]
    75e0:	f103 0008 	add.w	r0, r3, #8
    75e4:	693b      	ldr	r3, [r7, #16]
    75e6:	1d19      	adds	r1, r3, #4
/home/csx/share/gerrit/optee_os/lib/libmpa/mpa_addsub.c:410
    75e8:	687b      	ldr	r3, [r7, #4]
    75ea:	f103 0508 	add.w	r5, r3, #8
/home/csx/share/gerrit/optee_os/lib/libmpa/mpa_addsub.c:409
    75ee:	6a3c      	ldr	r4, [r7, #32]
/home/csx/share/gerrit/optee_os/lib/libmpa/mpa_addsub.c:410
    75f0:	68bb      	ldr	r3, [r7, #8]
    75f2:	f103 0208 	add.w	r2, r3, #8
/home/csx/share/gerrit/optee_os/lib/libmpa/mpa_addsub.c:409
    75f6:	6a7b      	ldr	r3, [r7, #36]	; 0x24
    75f8:	9200      	str	r2, [sp, #0]
    75fa:	9301      	str	r3, [sp, #4]
    75fc:	462a      	mov	r2, r5
    75fe:	4623      	mov	r3, r4
    7600:	f7ff fe02 	bl	7208 <__mpa_abs_sub>
    7604:	e02e      	b.n	7664 <mpa_sub+0x1bc>
/home/csx/share/gerrit/optee_os/lib/libmpa/mpa_addsub.c:414
    7606:	69fb      	ldr	r3, [r7, #28]
    7608:	2b01      	cmp	r3, #1
    760a:	d113      	bne.n	7634 <mpa_sub+0x18c>
/home/csx/share/gerrit/optee_os/lib/libmpa/mpa_addsub.c:416
    760c:	693b      	ldr	r3, [r7, #16]
    760e:	f103 0008 	add.w	r0, r3, #8
    7612:	693b      	ldr	r3, [r7, #16]
    7614:	1d19      	adds	r1, r3, #4
    7616:	68bb      	ldr	r3, [r7, #8]
    7618:	f103 0508 	add.w	r5, r3, #8
    761c:	6a7c      	ldr	r4, [r7, #36]	; 0x24
/home/csx/share/gerrit/optee_os/lib/libmpa/mpa_addsub.c:417
    761e:	687b      	ldr	r3, [r7, #4]
    7620:	f103 0208 	add.w	r2, r3, #8
/home/csx/share/gerrit/optee_os/lib/libmpa/mpa_addsub.c:416
    7624:	6a3b      	ldr	r3, [r7, #32]
    7626:	9200      	str	r2, [sp, #0]
    7628:	9301      	str	r3, [sp, #4]
    762a:	462a      	mov	r2, r5
    762c:	4623      	mov	r3, r4
    762e:	f7ff fd09 	bl	7044 <__mpa_abs_add>
    7632:	e017      	b.n	7664 <mpa_sub+0x1bc>
/home/csx/share/gerrit/optee_os/lib/libmpa/mpa_addsub.c:420
    7634:	693b      	ldr	r3, [r7, #16]
    7636:	f103 0008 	add.w	r0, r3, #8
    763a:	693b      	ldr	r3, [r7, #16]
    763c:	1d19      	adds	r1, r3, #4
    763e:	68bb      	ldr	r3, [r7, #8]
    7640:	f103 0508 	add.w	r5, r3, #8
    7644:	6a7c      	ldr	r4, [r7, #36]	; 0x24
/home/csx/share/gerrit/optee_os/lib/libmpa/mpa_addsub.c:421
    7646:	687b      	ldr	r3, [r7, #4]
    7648:	f103 0208 	add.w	r2, r3, #8
/home/csx/share/gerrit/optee_os/lib/libmpa/mpa_addsub.c:420
    764c:	6a3b      	ldr	r3, [r7, #32]
    764e:	9200      	str	r2, [sp, #0]
    7650:	9301      	str	r3, [sp, #4]
    7652:	462a      	mov	r2, r5
    7654:	4623      	mov	r3, r4
    7656:	f7ff fcf5 	bl	7044 <__mpa_abs_add>
/home/csx/share/gerrit/optee_os/lib/libmpa/mpa_addsub.c:422
    765a:	693b      	ldr	r3, [r7, #16]
    765c:	693a      	ldr	r2, [r7, #16]
    765e:	6852      	ldr	r2, [r2, #4]
    7660:	4252      	negs	r2, r2
    7662:	605a      	str	r2, [r3, #4]
/home/csx/share/gerrit/optee_os/lib/libmpa/mpa_addsub.c:426
    7664:	693b      	ldr	r3, [r7, #16]
    7666:	68f8      	ldr	r0, [r7, #12]
    7668:	4619      	mov	r1, r3
    766a:	f7fc ffd5 	bl	4618 <mpa_copy>
/home/csx/share/gerrit/optee_os/lib/libmpa/mpa_addsub.c:427
    766e:	697b      	ldr	r3, [r7, #20]
    7670:	2b00      	cmp	r3, #0
    7672:	d005      	beq.n	7680 <mpa_sub+0x1d8>
/home/csx/share/gerrit/optee_os/lib/libmpa/mpa_addsub.c:428
    7674:	f107 0310 	add.w	r3, r7, #16
    7678:	4618      	mov	r0, r3
    767a:	6839      	ldr	r1, [r7, #0]
    767c:	f7fe ff10 	bl	64a0 <mpa_free_static_temp_var>
/home/csx/share/gerrit/optee_os/lib/libmpa/mpa_addsub.c:429
    7680:	3728      	adds	r7, #40	; 0x28
    7682:	46bd      	mov	sp, r7
    7684:	e9dd 4500 	ldrd	r4, r5, [sp]
    7688:	b002      	add	sp, #8
    768a:	bd80      	pop	{r7, pc}

0000768c <mpa_neg>:
mpa_neg():
/home/csx/share/gerrit/optee_os/lib/libmpa/mpa_addsub.c:438
    768c:	e96d 7e02 	strd	r7, lr, [sp, #-8]!
    7690:	b082      	sub	sp, #8
    7692:	af00      	add	r7, sp, #0
    7694:	6078      	str	r0, [r7, #4]
    7696:	6039      	str	r1, [r7, #0]
/home/csx/share/gerrit/optee_os/lib/libmpa/mpa_addsub.c:439
    7698:	6878      	ldr	r0, [r7, #4]
    769a:	6839      	ldr	r1, [r7, #0]
    769c:	f7fc ffbc 	bl	4618 <mpa_copy>
/home/csx/share/gerrit/optee_os/lib/libmpa/mpa_addsub.c:440
    76a0:	687b      	ldr	r3, [r7, #4]
    76a2:	685b      	ldr	r3, [r3, #4]
    76a4:	425a      	negs	r2, r3
    76a6:	687b      	ldr	r3, [r7, #4]
    76a8:	605a      	str	r2, [r3, #4]
/home/csx/share/gerrit/optee_os/lib/libmpa/mpa_addsub.c:441
    76aa:	3708      	adds	r7, #8
    76ac:	46bd      	mov	sp, r7
    76ae:	bd80      	pop	{r7, pc}

000076b0 <mpa_add_word>:
mpa_add_word():
/home/csx/share/gerrit/optee_os/lib/libmpa/mpa_addsub.c:450
    76b0:	f84d 4d0c 	str.w	r4, [sp, #-12]!
    76b4:	e9cd 7e01 	strd	r7, lr, [sp, #4]
    76b8:	b08b      	sub	sp, #44	; 0x2c
    76ba:	af02      	add	r7, sp, #8
    76bc:	60f8      	str	r0, [r7, #12]
    76be:	60b9      	str	r1, [r7, #8]
    76c0:	607a      	str	r2, [r7, #4]
    76c2:	603b      	str	r3, [r7, #0]
/home/csx/share/gerrit/optee_os/lib/libmpa/mpa_addsub.c:456
    76c4:	687b      	ldr	r3, [r7, #4]
    76c6:	2b00      	cmp	r3, #0
    76c8:	d104      	bne.n	76d4 <mpa_add_word+0x24>
/home/csx/share/gerrit/optee_os/lib/libmpa/mpa_addsub.c:457
    76ca:	68f8      	ldr	r0, [r7, #12]
    76cc:	68b9      	ldr	r1, [r7, #8]
    76ce:	f7fc ffa3 	bl	4618 <mpa_copy>
/home/csx/share/gerrit/optee_os/lib/libmpa/mpa_addsub.c:458
    76d2:	e080      	b.n	77d6 <mpa_add_word+0x126>
/home/csx/share/gerrit/optee_os/lib/libmpa/mpa_addsub.c:461
    76d4:	68bb      	ldr	r3, [r7, #8]
    76d6:	685b      	ldr	r3, [r3, #4]
    76d8:	2b00      	cmp	r3, #0
    76da:	d106      	bne.n	76ea <mpa_add_word+0x3a>
/home/csx/share/gerrit/optee_os/lib/libmpa/mpa_addsub.c:462
    76dc:	68fb      	ldr	r3, [r7, #12]
    76de:	2201      	movs	r2, #1
    76e0:	605a      	str	r2, [r3, #4]
/home/csx/share/gerrit/optee_os/lib/libmpa/mpa_addsub.c:463
    76e2:	687a      	ldr	r2, [r7, #4]
    76e4:	68fb      	ldr	r3, [r7, #12]
    76e6:	609a      	str	r2, [r3, #8]
/home/csx/share/gerrit/optee_os/lib/libmpa/mpa_addsub.c:464
    76e8:	e075      	b.n	77d6 <mpa_add_word+0x126>
/home/csx/share/gerrit/optee_os/lib/libmpa/mpa_addsub.c:467
    76ea:	68bb      	ldr	r3, [r7, #8]
    76ec:	685b      	ldr	r3, [r3, #4]
    76ee:	2b00      	cmp	r3, #0
    76f0:	db01      	blt.n	76f6 <mpa_add_word+0x46>
/home/csx/share/gerrit/optee_os/lib/libmpa/mpa_addsub.c:467 (discriminator 1)
    76f2:	2301      	movs	r3, #1
    76f4:	e001      	b.n	76fa <mpa_add_word+0x4a>
/home/csx/share/gerrit/optee_os/lib/libmpa/mpa_addsub.c:467 (discriminator 2)
    76f6:	f04f 33ff 	mov.w	r3, #4294967295	; 0xffffffff
/home/csx/share/gerrit/optee_os/lib/libmpa/mpa_addsub.c:467 (discriminator 4)
    76fa:	61fb      	str	r3, [r7, #28]
/home/csx/share/gerrit/optee_os/lib/libmpa/mpa_addsub.c:468 (discriminator 4)
    76fc:	68bb      	ldr	r3, [r7, #8]
    76fe:	685b      	ldr	r3, [r3, #4]
    7700:	2b00      	cmp	r3, #0
    7702:	bfb8      	it	lt
    7704:	425b      	neglt	r3, r3
    7706:	61bb      	str	r3, [r7, #24]
/home/csx/share/gerrit/optee_os/lib/libmpa/mpa_addsub.c:471 (discriminator 4)
    7708:	68fa      	ldr	r2, [r7, #12]
    770a:	68bb      	ldr	r3, [r7, #8]
    770c:	429a      	cmp	r2, r3
    770e:	bf0c      	ite	eq
    7710:	2301      	moveq	r3, #1
    7712:	2300      	movne	r3, #0
    7714:	b2db      	uxtb	r3, r3
    7716:	617b      	str	r3, [r7, #20]
/home/csx/share/gerrit/optee_os/lib/libmpa/mpa_addsub.c:472 (discriminator 4)
    7718:	697b      	ldr	r3, [r7, #20]
    771a:	2b00      	cmp	r3, #0
    771c:	d006      	beq.n	772c <mpa_add_word+0x7c>
/home/csx/share/gerrit/optee_os/lib/libmpa/mpa_addsub.c:473
    771e:	f107 0310 	add.w	r3, r7, #16
    7722:	4618      	mov	r0, r3
    7724:	6839      	ldr	r1, [r7, #0]
    7726:	f7fe fea9 	bl	647c <mpa_alloc_static_temp_var>
    772a:	e001      	b.n	7730 <mpa_add_word+0x80>
/home/csx/share/gerrit/optee_os/lib/libmpa/mpa_addsub.c:475
    772c:	68fb      	ldr	r3, [r7, #12]
    772e:	613b      	str	r3, [r7, #16]
/home/csx/share/gerrit/optee_os/lib/libmpa/mpa_addsub.c:478
    7730:	69fb      	ldr	r3, [r7, #28]
    7732:	2b01      	cmp	r3, #1
    7734:	d110      	bne.n	7758 <mpa_add_word+0xa8>
/home/csx/share/gerrit/optee_os/lib/libmpa/mpa_addsub.c:480
    7736:	693b      	ldr	r3, [r7, #16]
    7738:	f103 0008 	add.w	r0, r3, #8
    773c:	693b      	ldr	r3, [r7, #16]
    773e:	1d19      	adds	r1, r3, #4
    7740:	68bb      	ldr	r3, [r7, #8]
    7742:	f103 0208 	add.w	r2, r3, #8
    7746:	69bc      	ldr	r4, [r7, #24]
    7748:	1d3b      	adds	r3, r7, #4
    774a:	9300      	str	r3, [sp, #0]
    774c:	2301      	movs	r3, #1
    774e:	9301      	str	r3, [sp, #4]
    7750:	4623      	mov	r3, r4
    7752:	f7ff fc77 	bl	7044 <__mpa_abs_add>
    7756:	e030      	b.n	77ba <mpa_add_word+0x10a>
/home/csx/share/gerrit/optee_os/lib/libmpa/mpa_addsub.c:483
    7758:	68bb      	ldr	r3, [r7, #8]
    775a:	685b      	ldr	r3, [r3, #4]
    775c:	2b00      	cmp	r3, #0
    775e:	bfb8      	it	lt
    7760:	425b      	neglt	r3, r3
    7762:	2b01      	cmp	r3, #1
    7764:	dc04      	bgt.n	7770 <mpa_add_word+0xc0>
/home/csx/share/gerrit/optee_os/lib/libmpa/mpa_addsub.c:483 (discriminator 1)
    7766:	68bb      	ldr	r3, [r7, #8]
    7768:	689a      	ldr	r2, [r3, #8]
    776a:	687b      	ldr	r3, [r7, #4]
    776c:	429a      	cmp	r2, r3
    776e:	d915      	bls.n	779c <mpa_add_word+0xec>
/home/csx/share/gerrit/optee_os/lib/libmpa/mpa_addsub.c:487
    7770:	693b      	ldr	r3, [r7, #16]
    7772:	f103 0008 	add.w	r0, r3, #8
    7776:	693b      	ldr	r3, [r7, #16]
    7778:	1d19      	adds	r1, r3, #4
    777a:	68bb      	ldr	r3, [r7, #8]
    777c:	f103 0208 	add.w	r2, r3, #8
    7780:	69bc      	ldr	r4, [r7, #24]
    7782:	1d3b      	adds	r3, r7, #4
    7784:	9300      	str	r3, [sp, #0]
    7786:	2301      	movs	r3, #1
    7788:	9301      	str	r3, [sp, #4]
    778a:	4623      	mov	r3, r4
    778c:	f7ff fd3c 	bl	7208 <__mpa_abs_sub>
/home/csx/share/gerrit/optee_os/lib/libmpa/mpa_addsub.c:489
    7790:	693b      	ldr	r3, [r7, #16]
    7792:	693a      	ldr	r2, [r7, #16]
    7794:	6852      	ldr	r2, [r2, #4]
    7796:	4252      	negs	r2, r2
    7798:	605a      	str	r2, [r3, #4]
    779a:	e00e      	b.n	77ba <mpa_add_word+0x10a>
/home/csx/share/gerrit/optee_os/lib/libmpa/mpa_addsub.c:492
    779c:	693b      	ldr	r3, [r7, #16]
    779e:	6879      	ldr	r1, [r7, #4]
    77a0:	68ba      	ldr	r2, [r7, #8]
    77a2:	6892      	ldr	r2, [r2, #8]
    77a4:	1a8a      	subs	r2, r1, r2
    77a6:	609a      	str	r2, [r3, #8]
/home/csx/share/gerrit/optee_os/lib/libmpa/mpa_addsub.c:493
    77a8:	693b      	ldr	r3, [r7, #16]
    77aa:	693a      	ldr	r2, [r7, #16]
    77ac:	6892      	ldr	r2, [r2, #8]
    77ae:	2a00      	cmp	r2, #0
    77b0:	bf14      	ite	ne
    77b2:	2201      	movne	r2, #1
    77b4:	2200      	moveq	r2, #0
    77b6:	b2d2      	uxtb	r2, r2
    77b8:	605a      	str	r2, [r3, #4]
/home/csx/share/gerrit/optee_os/lib/libmpa/mpa_addsub.c:497
    77ba:	693b      	ldr	r3, [r7, #16]
    77bc:	68f8      	ldr	r0, [r7, #12]
    77be:	4619      	mov	r1, r3
    77c0:	f7fc ff2a 	bl	4618 <mpa_copy>
/home/csx/share/gerrit/optee_os/lib/libmpa/mpa_addsub.c:498
    77c4:	697b      	ldr	r3, [r7, #20]
    77c6:	2b00      	cmp	r3, #0
    77c8:	d005      	beq.n	77d6 <mpa_add_word+0x126>
/home/csx/share/gerrit/optee_os/lib/libmpa/mpa_addsub.c:499
    77ca:	f107 0310 	add.w	r3, r7, #16
    77ce:	4618      	mov	r0, r3
    77d0:	6839      	ldr	r1, [r7, #0]
    77d2:	f7fe fe65 	bl	64a0 <mpa_free_static_temp_var>
/home/csx/share/gerrit/optee_os/lib/libmpa/mpa_addsub.c:500
    77d6:	3724      	adds	r7, #36	; 0x24
    77d8:	46bd      	mov	sp, r7
    77da:	e9dd 4700 	ldrd	r4, r7, [sp]
    77de:	b002      	add	sp, #8
    77e0:	f85d fb04 	ldr.w	pc, [sp], #4

000077e4 <mpa_sub_word>:
mpa_sub_word():
/home/csx/share/gerrit/optee_os/lib/libmpa/mpa_addsub.c:509
    77e4:	f84d 4d0c 	str.w	r4, [sp, #-12]!
    77e8:	e9cd 7e01 	strd	r7, lr, [sp, #4]
    77ec:	b08b      	sub	sp, #44	; 0x2c
    77ee:	af02      	add	r7, sp, #8
    77f0:	60f8      	str	r0, [r7, #12]
    77f2:	60b9      	str	r1, [r7, #8]
    77f4:	607a      	str	r2, [r7, #4]
    77f6:	603b      	str	r3, [r7, #0]
/home/csx/share/gerrit/optee_os/lib/libmpa/mpa_addsub.c:515
    77f8:	687b      	ldr	r3, [r7, #4]
    77fa:	2b00      	cmp	r3, #0
    77fc:	d104      	bne.n	7808 <mpa_sub_word+0x24>
/home/csx/share/gerrit/optee_os/lib/libmpa/mpa_addsub.c:516
    77fe:	68f8      	ldr	r0, [r7, #12]
    7800:	68b9      	ldr	r1, [r7, #8]
    7802:	f7fc ff09 	bl	4618 <mpa_copy>
/home/csx/share/gerrit/optee_os/lib/libmpa/mpa_addsub.c:517
    7806:	e082      	b.n	790e <mpa_sub_word+0x12a>
/home/csx/share/gerrit/optee_os/lib/libmpa/mpa_addsub.c:520
    7808:	68bb      	ldr	r3, [r7, #8]
    780a:	685b      	ldr	r3, [r3, #4]
    780c:	2b00      	cmp	r3, #0
    780e:	d107      	bne.n	7820 <mpa_sub_word+0x3c>
/home/csx/share/gerrit/optee_os/lib/libmpa/mpa_addsub.c:521
    7810:	68fb      	ldr	r3, [r7, #12]
    7812:	f04f 32ff 	mov.w	r2, #4294967295	; 0xffffffff
    7816:	605a      	str	r2, [r3, #4]
/home/csx/share/gerrit/optee_os/lib/libmpa/mpa_addsub.c:522
    7818:	687a      	ldr	r2, [r7, #4]
    781a:	68fb      	ldr	r3, [r7, #12]
    781c:	609a      	str	r2, [r3, #8]
/home/csx/share/gerrit/optee_os/lib/libmpa/mpa_addsub.c:523
    781e:	e076      	b.n	790e <mpa_sub_word+0x12a>
/home/csx/share/gerrit/optee_os/lib/libmpa/mpa_addsub.c:526
    7820:	68bb      	ldr	r3, [r7, #8]
    7822:	685b      	ldr	r3, [r3, #4]
    7824:	2b00      	cmp	r3, #0
    7826:	db01      	blt.n	782c <mpa_sub_word+0x48>
/home/csx/share/gerrit/optee_os/lib/libmpa/mpa_addsub.c:526 (discriminator 1)
    7828:	2301      	movs	r3, #1
    782a:	e001      	b.n	7830 <mpa_sub_word+0x4c>
/home/csx/share/gerrit/optee_os/lib/libmpa/mpa_addsub.c:526 (discriminator 2)
    782c:	f04f 33ff 	mov.w	r3, #4294967295	; 0xffffffff
/home/csx/share/gerrit/optee_os/lib/libmpa/mpa_addsub.c:526 (discriminator 4)
    7830:	61fb      	str	r3, [r7, #28]
/home/csx/share/gerrit/optee_os/lib/libmpa/mpa_addsub.c:527 (discriminator 4)
    7832:	68bb      	ldr	r3, [r7, #8]
    7834:	685b      	ldr	r3, [r3, #4]
    7836:	2b00      	cmp	r3, #0
    7838:	bfb8      	it	lt
    783a:	425b      	neglt	r3, r3
    783c:	61bb      	str	r3, [r7, #24]
/home/csx/share/gerrit/optee_os/lib/libmpa/mpa_addsub.c:530 (discriminator 4)
    783e:	68fa      	ldr	r2, [r7, #12]
    7840:	68bb      	ldr	r3, [r7, #8]
    7842:	429a      	cmp	r2, r3
    7844:	bf0c      	ite	eq
    7846:	2301      	moveq	r3, #1
    7848:	2300      	movne	r3, #0
    784a:	b2db      	uxtb	r3, r3
    784c:	75fb      	strb	r3, [r7, #23]
/home/csx/share/gerrit/optee_os/lib/libmpa/mpa_addsub.c:531 (discriminator 4)
    784e:	7dfb      	ldrb	r3, [r7, #23]
    7850:	2b00      	cmp	r3, #0
    7852:	d006      	beq.n	7862 <mpa_sub_word+0x7e>
/home/csx/share/gerrit/optee_os/lib/libmpa/mpa_addsub.c:532
    7854:	f107 0310 	add.w	r3, r7, #16
    7858:	4618      	mov	r0, r3
    785a:	6839      	ldr	r1, [r7, #0]
    785c:	f7fe fe0e 	bl	647c <mpa_alloc_static_temp_var>
    7860:	e001      	b.n	7866 <mpa_sub_word+0x82>
/home/csx/share/gerrit/optee_os/lib/libmpa/mpa_addsub.c:534
    7862:	68fb      	ldr	r3, [r7, #12]
    7864:	613b      	str	r3, [r7, #16]
/home/csx/share/gerrit/optee_os/lib/libmpa/mpa_addsub.c:544
    7866:	69fb      	ldr	r3, [r7, #28]
    7868:	2b01      	cmp	r3, #1
    786a:	d12d      	bne.n	78c8 <mpa_sub_word+0xe4>
/home/csx/share/gerrit/optee_os/lib/libmpa/mpa_addsub.c:545
    786c:	68bb      	ldr	r3, [r7, #8]
    786e:	685b      	ldr	r3, [r3, #4]
    7870:	2b00      	cmp	r3, #0
    7872:	bfb8      	it	lt
    7874:	425b      	neglt	r3, r3
    7876:	2b01      	cmp	r3, #1
    7878:	dc04      	bgt.n	7884 <mpa_sub_word+0xa0>
/home/csx/share/gerrit/optee_os/lib/libmpa/mpa_addsub.c:545 (discriminator 1)
    787a:	68bb      	ldr	r3, [r7, #8]
    787c:	689a      	ldr	r2, [r3, #8]
    787e:	687b      	ldr	r3, [r7, #4]
    7880:	429a      	cmp	r2, r3
    7882:	d910      	bls.n	78a6 <mpa_sub_word+0xc2>
/home/csx/share/gerrit/optee_os/lib/libmpa/mpa_addsub.c:546
    7884:	693b      	ldr	r3, [r7, #16]
    7886:	f103 0008 	add.w	r0, r3, #8
    788a:	693b      	ldr	r3, [r7, #16]
    788c:	1d19      	adds	r1, r3, #4
    788e:	68bb      	ldr	r3, [r7, #8]
    7890:	f103 0208 	add.w	r2, r3, #8
    7894:	69bc      	ldr	r4, [r7, #24]
    7896:	1d3b      	adds	r3, r7, #4
    7898:	9300      	str	r3, [sp, #0]
    789a:	2301      	movs	r3, #1
    789c:	9301      	str	r3, [sp, #4]
    789e:	4623      	mov	r3, r4
    78a0:	f7ff fcb2 	bl	7208 <__mpa_abs_sub>
    78a4:	e025      	b.n	78f2 <mpa_sub_word+0x10e>
/home/csx/share/gerrit/optee_os/lib/libmpa/mpa_addsub.c:549
    78a6:	693b      	ldr	r3, [r7, #16]
    78a8:	6879      	ldr	r1, [r7, #4]
    78aa:	68ba      	ldr	r2, [r7, #8]
    78ac:	6892      	ldr	r2, [r2, #8]
    78ae:	1a8a      	subs	r2, r1, r2
    78b0:	609a      	str	r2, [r3, #8]
/home/csx/share/gerrit/optee_os/lib/libmpa/mpa_addsub.c:550
    78b2:	693b      	ldr	r3, [r7, #16]
    78b4:	693a      	ldr	r2, [r7, #16]
    78b6:	6892      	ldr	r2, [r2, #8]
    78b8:	2a00      	cmp	r2, #0
    78ba:	d101      	bne.n	78c0 <mpa_sub_word+0xdc>
/home/csx/share/gerrit/optee_os/lib/libmpa/mpa_addsub.c:550 (discriminator 1)
    78bc:	2200      	movs	r2, #0
    78be:	e001      	b.n	78c4 <mpa_sub_word+0xe0>
/home/csx/share/gerrit/optee_os/lib/libmpa/mpa_addsub.c:550 (discriminator 2)
    78c0:	f04f 32ff 	mov.w	r2, #4294967295	; 0xffffffff
/home/csx/share/gerrit/optee_os/lib/libmpa/mpa_addsub.c:550 (discriminator 4)
    78c4:	605a      	str	r2, [r3, #4]
    78c6:	e014      	b.n	78f2 <mpa_sub_word+0x10e>
/home/csx/share/gerrit/optee_os/lib/libmpa/mpa_addsub.c:553
    78c8:	693b      	ldr	r3, [r7, #16]
    78ca:	f103 0008 	add.w	r0, r3, #8
    78ce:	693b      	ldr	r3, [r7, #16]
    78d0:	1d19      	adds	r1, r3, #4
    78d2:	68bb      	ldr	r3, [r7, #8]
    78d4:	f103 0208 	add.w	r2, r3, #8
    78d8:	69bc      	ldr	r4, [r7, #24]
    78da:	1d3b      	adds	r3, r7, #4
    78dc:	9300      	str	r3, [sp, #0]
    78de:	2301      	movs	r3, #1
    78e0:	9301      	str	r3, [sp, #4]
    78e2:	4623      	mov	r3, r4
    78e4:	f7ff fbae 	bl	7044 <__mpa_abs_add>
/home/csx/share/gerrit/optee_os/lib/libmpa/mpa_addsub.c:555
    78e8:	693b      	ldr	r3, [r7, #16]
    78ea:	693a      	ldr	r2, [r7, #16]
    78ec:	6852      	ldr	r2, [r2, #4]
    78ee:	4252      	negs	r2, r2
    78f0:	605a      	str	r2, [r3, #4]
/home/csx/share/gerrit/optee_os/lib/libmpa/mpa_addsub.c:558
    78f2:	693b      	ldr	r3, [r7, #16]
    78f4:	68f8      	ldr	r0, [r7, #12]
    78f6:	4619      	mov	r1, r3
    78f8:	f7fc fe8e 	bl	4618 <mpa_copy>
/home/csx/share/gerrit/optee_os/lib/libmpa/mpa_addsub.c:559
    78fc:	7dfb      	ldrb	r3, [r7, #23]
    78fe:	2b00      	cmp	r3, #0
    7900:	d005      	beq.n	790e <mpa_sub_word+0x12a>
/home/csx/share/gerrit/optee_os/lib/libmpa/mpa_addsub.c:560
    7902:	f107 0310 	add.w	r3, r7, #16
    7906:	4618      	mov	r0, r3
    7908:	6839      	ldr	r1, [r7, #0]
    790a:	f7fe fdc9 	bl	64a0 <mpa_free_static_temp_var>
/home/csx/share/gerrit/optee_os/lib/libmpa/mpa_addsub.c:561
    790e:	3724      	adds	r7, #36	; 0x24
    7910:	46bd      	mov	sp, r7
    7912:	e9dd 4700 	ldrd	r4, r7, [sp]
    7916:	b002      	add	sp, #8
    7918:	f85d fb04 	ldr.w	pc, [sp], #4

0000791c <__mpa_abs_cmp>:
__mpa_abs_cmp():
/home/csx/share/gerrit/optee_os/lib/libmpa/mpa_cmp.c:43
    791c:	f84d 7d04 	str.w	r7, [sp, #-4]!
    7920:	b085      	sub	sp, #20
    7922:	af00      	add	r7, sp, #0
    7924:	6078      	str	r0, [r7, #4]
    7926:	6039      	str	r1, [r7, #0]
/home/csx/share/gerrit/optee_os/lib/libmpa/mpa_cmp.c:48
    7928:	687a      	ldr	r2, [r7, #4]
    792a:	683b      	ldr	r3, [r7, #0]
    792c:	429a      	cmp	r2, r3
    792e:	d101      	bne.n	7934 <__mpa_abs_cmp+0x18>
/home/csx/share/gerrit/optee_os/lib/libmpa/mpa_cmp.c:49
    7930:	2300      	movs	r3, #0
    7932:	e05f      	b.n	79f4 <__mpa_abs_cmp+0xd8>
/home/csx/share/gerrit/optee_os/lib/libmpa/mpa_cmp.c:52
    7934:	687b      	ldr	r3, [r7, #4]
    7936:	685b      	ldr	r3, [r3, #4]
    7938:	ea83 72e3 	eor.w	r2, r3, r3, asr #31
    793c:	eba2 72e3 	sub.w	r2, r2, r3, asr #31
    7940:	683b      	ldr	r3, [r7, #0]
    7942:	685b      	ldr	r3, [r3, #4]
    7944:	2b00      	cmp	r3, #0
    7946:	bfb8      	it	lt
    7948:	425b      	neglt	r3, r3
    794a:	429a      	cmp	r2, r3
    794c:	d00c      	beq.n	7968 <__mpa_abs_cmp+0x4c>
/home/csx/share/gerrit/optee_os/lib/libmpa/mpa_cmp.c:53
    794e:	687b      	ldr	r3, [r7, #4]
    7950:	685b      	ldr	r3, [r3, #4]
    7952:	ea83 72e3 	eor.w	r2, r3, r3, asr #31
    7956:	eba2 72e3 	sub.w	r2, r2, r3, asr #31
    795a:	683b      	ldr	r3, [r7, #0]
    795c:	685b      	ldr	r3, [r3, #4]
    795e:	2b00      	cmp	r3, #0
    7960:	bfb8      	it	lt
    7962:	425b      	neglt	r3, r3
    7964:	1ad3      	subs	r3, r2, r3
    7966:	e045      	b.n	79f4 <__mpa_abs_cmp+0xd8>
/home/csx/share/gerrit/optee_os/lib/libmpa/mpa_cmp.c:55
    7968:	687b      	ldr	r3, [r7, #4]
    796a:	685b      	ldr	r3, [r3, #4]
    796c:	2b00      	cmp	r3, #0
    796e:	d105      	bne.n	797c <__mpa_abs_cmp+0x60>
/home/csx/share/gerrit/optee_os/lib/libmpa/mpa_cmp.c:55 (discriminator 1)
    7970:	683b      	ldr	r3, [r7, #0]
    7972:	685b      	ldr	r3, [r3, #4]
    7974:	2b00      	cmp	r3, #0
    7976:	d101      	bne.n	797c <__mpa_abs_cmp+0x60>
/home/csx/share/gerrit/optee_os/lib/libmpa/mpa_cmp.c:56
    7978:	2300      	movs	r3, #0
    797a:	e03b      	b.n	79f4 <__mpa_abs_cmp+0xd8>
/home/csx/share/gerrit/optee_os/lib/libmpa/mpa_cmp.c:59
    797c:	687b      	ldr	r3, [r7, #4]
    797e:	685b      	ldr	r3, [r3, #4]
    7980:	2b00      	cmp	r3, #0
    7982:	bfb8      	it	lt
    7984:	425b      	neglt	r3, r3
    7986:	3b01      	subs	r3, #1
    7988:	60fb      	str	r3, [r7, #12]
/home/csx/share/gerrit/optee_os/lib/libmpa/mpa_cmp.c:60
    798a:	2301      	movs	r3, #1
    798c:	72fb      	strb	r3, [r7, #11]
/home/csx/share/gerrit/optee_os/lib/libmpa/mpa_cmp.c:61
    798e:	e012      	b.n	79b6 <__mpa_abs_cmp+0x9a>
/home/csx/share/gerrit/optee_os/lib/libmpa/mpa_cmp.c:62
    7990:	687b      	ldr	r3, [r7, #4]
    7992:	68fa      	ldr	r2, [r7, #12]
    7994:	3202      	adds	r2, #2
    7996:	f853 2022 	ldr.w	r2, [r3, r2, lsl #2]
    799a:	683b      	ldr	r3, [r7, #0]
    799c:	68f9      	ldr	r1, [r7, #12]
    799e:	3102      	adds	r1, #2
    79a0:	f853 3021 	ldr.w	r3, [r3, r1, lsl #2]
    79a4:	429a      	cmp	r2, r3
    79a6:	bf0c      	ite	eq
    79a8:	2301      	moveq	r3, #1
    79aa:	2300      	movne	r3, #0
    79ac:	b2db      	uxtb	r3, r3
    79ae:	72fb      	strb	r3, [r7, #11]
/home/csx/share/gerrit/optee_os/lib/libmpa/mpa_cmp.c:63
    79b0:	68fb      	ldr	r3, [r7, #12]
    79b2:	3b01      	subs	r3, #1
    79b4:	60fb      	str	r3, [r7, #12]
/home/csx/share/gerrit/optee_os/lib/libmpa/mpa_cmp.c:61
    79b6:	7afb      	ldrb	r3, [r7, #11]
    79b8:	2b00      	cmp	r3, #0
    79ba:	d002      	beq.n	79c2 <__mpa_abs_cmp+0xa6>
/home/csx/share/gerrit/optee_os/lib/libmpa/mpa_cmp.c:61 (discriminator 1)
    79bc:	68fb      	ldr	r3, [r7, #12]
    79be:	2b00      	cmp	r3, #0
    79c0:	dae6      	bge.n	7990 <__mpa_abs_cmp+0x74>
/home/csx/share/gerrit/optee_os/lib/libmpa/mpa_cmp.c:65
    79c2:	7afb      	ldrb	r3, [r7, #11]
    79c4:	2b00      	cmp	r3, #0
    79c6:	d001      	beq.n	79cc <__mpa_abs_cmp+0xb0>
/home/csx/share/gerrit/optee_os/lib/libmpa/mpa_cmp.c:66
    79c8:	2300      	movs	r3, #0
    79ca:	e013      	b.n	79f4 <__mpa_abs_cmp+0xd8>
/home/csx/share/gerrit/optee_os/lib/libmpa/mpa_cmp.c:67
    79cc:	68fb      	ldr	r3, [r7, #12]
    79ce:	3301      	adds	r3, #1
    79d0:	60fb      	str	r3, [r7, #12]
/home/csx/share/gerrit/optee_os/lib/libmpa/mpa_cmp.c:68
    79d2:	687b      	ldr	r3, [r7, #4]
    79d4:	68fa      	ldr	r2, [r7, #12]
    79d6:	3202      	adds	r2, #2
    79d8:	f853 2022 	ldr.w	r2, [r3, r2, lsl #2]
    79dc:	683b      	ldr	r3, [r7, #0]
    79de:	68f9      	ldr	r1, [r7, #12]
    79e0:	3102      	adds	r1, #2
    79e2:	f853 3021 	ldr.w	r3, [r3, r1, lsl #2]
    79e6:	429a      	cmp	r2, r3
    79e8:	d901      	bls.n	79ee <__mpa_abs_cmp+0xd2>
/home/csx/share/gerrit/optee_os/lib/libmpa/mpa_cmp.c:68 (discriminator 1)
    79ea:	2301      	movs	r3, #1
    79ec:	e001      	b.n	79f2 <__mpa_abs_cmp+0xd6>
/home/csx/share/gerrit/optee_os/lib/libmpa/mpa_cmp.c:68 (discriminator 2)
    79ee:	f04f 33ff 	mov.w	r3, #4294967295	; 0xffffffff
/home/csx/share/gerrit/optee_os/lib/libmpa/mpa_cmp.c:68
    79f2:	bf00      	nop
/home/csx/share/gerrit/optee_os/lib/libmpa/mpa_cmp.c:69
    79f4:	4618      	mov	r0, r3
    79f6:	3714      	adds	r7, #20
    79f8:	46bd      	mov	sp, r7
    79fa:	f85d 7b04 	ldr.w	r7, [sp], #4
    79fe:	4770      	bx	lr

00007a00 <__mpa_abs_greater_than>:
__mpa_abs_greater_than():
/home/csx/share/gerrit/optee_os/lib/libmpa/mpa_cmp.c:77
    7a00:	e96d 7e02 	strd	r7, lr, [sp, #-8]!
    7a04:	b082      	sub	sp, #8
    7a06:	af00      	add	r7, sp, #0
    7a08:	6078      	str	r0, [r7, #4]
    7a0a:	6039      	str	r1, [r7, #0]
/home/csx/share/gerrit/optee_os/lib/libmpa/mpa_cmp.c:78
    7a0c:	6878      	ldr	r0, [r7, #4]
    7a0e:	6839      	ldr	r1, [r7, #0]
    7a10:	f7ff ff84 	bl	791c <__mpa_abs_cmp>
    7a14:	4603      	mov	r3, r0
    7a16:	2b00      	cmp	r3, #0
    7a18:	bfcc      	ite	gt
    7a1a:	2301      	movgt	r3, #1
    7a1c:	2300      	movle	r3, #0
    7a1e:	b2db      	uxtb	r3, r3
/home/csx/share/gerrit/optee_os/lib/libmpa/mpa_cmp.c:79
    7a20:	4618      	mov	r0, r3
    7a22:	3708      	adds	r7, #8
    7a24:	46bd      	mov	sp, r7
    7a26:	bd80      	pop	{r7, pc}

00007a28 <__mpa_abs_less_than>:
__mpa_abs_less_than():
/home/csx/share/gerrit/optee_os/lib/libmpa/mpa_cmp.c:87
    7a28:	e96d 7e02 	strd	r7, lr, [sp, #-8]!
    7a2c:	b082      	sub	sp, #8
    7a2e:	af00      	add	r7, sp, #0
    7a30:	6078      	str	r0, [r7, #4]
    7a32:	6039      	str	r1, [r7, #0]
/home/csx/share/gerrit/optee_os/lib/libmpa/mpa_cmp.c:88
    7a34:	6878      	ldr	r0, [r7, #4]
    7a36:	6839      	ldr	r1, [r7, #0]
    7a38:	f7ff ff70 	bl	791c <__mpa_abs_cmp>
    7a3c:	4603      	mov	r3, r0
    7a3e:	0fdb      	lsrs	r3, r3, #31
    7a40:	b2db      	uxtb	r3, r3
/home/csx/share/gerrit/optee_os/lib/libmpa/mpa_cmp.c:89
    7a42:	4618      	mov	r0, r3
    7a44:	3708      	adds	r7, #8
    7a46:	46bd      	mov	sp, r7
    7a48:	bd80      	pop	{r7, pc}
    7a4a:	bf00      	nop

00007a4c <mpa_cmp>:
mpa_cmp():
/home/csx/share/gerrit/optee_os/lib/libmpa/mpa_cmp.c:105
    7a4c:	e96d 7e02 	strd	r7, lr, [sp, #-8]!
    7a50:	b084      	sub	sp, #16
    7a52:	af00      	add	r7, sp, #0
    7a54:	6078      	str	r0, [r7, #4]
    7a56:	6039      	str	r1, [r7, #0]
/home/csx/share/gerrit/optee_os/lib/libmpa/mpa_cmp.c:110
    7a58:	687b      	ldr	r3, [r7, #4]
    7a5a:	685b      	ldr	r3, [r3, #4]
    7a5c:	2b00      	cmp	r3, #0
    7a5e:	db01      	blt.n	7a64 <mpa_cmp+0x18>
/home/csx/share/gerrit/optee_os/lib/libmpa/mpa_cmp.c:110 (discriminator 1)
    7a60:	2301      	movs	r3, #1
    7a62:	e001      	b.n	7a68 <mpa_cmp+0x1c>
/home/csx/share/gerrit/optee_os/lib/libmpa/mpa_cmp.c:110 (discriminator 2)
    7a64:	f04f 33ff 	mov.w	r3, #4294967295	; 0xffffffff
/home/csx/share/gerrit/optee_os/lib/libmpa/mpa_cmp.c:110 (discriminator 4)
    7a68:	60fb      	str	r3, [r7, #12]
/home/csx/share/gerrit/optee_os/lib/libmpa/mpa_cmp.c:111 (discriminator 4)
    7a6a:	683b      	ldr	r3, [r7, #0]
    7a6c:	685b      	ldr	r3, [r3, #4]
    7a6e:	2b00      	cmp	r3, #0
    7a70:	db01      	blt.n	7a76 <mpa_cmp+0x2a>
/home/csx/share/gerrit/optee_os/lib/libmpa/mpa_cmp.c:111 (discriminator 1)
    7a72:	2201      	movs	r2, #1
    7a74:	e001      	b.n	7a7a <mpa_cmp+0x2e>
/home/csx/share/gerrit/optee_os/lib/libmpa/mpa_cmp.c:111 (discriminator 2)
    7a76:	f04f 32ff 	mov.w	r2, #4294967295	; 0xffffffff
/home/csx/share/gerrit/optee_os/lib/libmpa/mpa_cmp.c:111 (discriminator 4)
    7a7a:	68fb      	ldr	r3, [r7, #12]
    7a7c:	429a      	cmp	r2, r3
    7a7e:	d001      	beq.n	7a84 <mpa_cmp+0x38>
/home/csx/share/gerrit/optee_os/lib/libmpa/mpa_cmp.c:112
    7a80:	68fb      	ldr	r3, [r7, #12]
    7a82:	e01e      	b.n	7ac2 <mpa_cmp+0x76>
/home/csx/share/gerrit/optee_os/lib/libmpa/mpa_cmp.c:115
    7a84:	687b      	ldr	r3, [r7, #4]
    7a86:	685b      	ldr	r3, [r3, #4]
    7a88:	2b00      	cmp	r3, #0
    7a8a:	d10e      	bne.n	7aaa <mpa_cmp+0x5e>
/home/csx/share/gerrit/optee_os/lib/libmpa/mpa_cmp.c:116
    7a8c:	683b      	ldr	r3, [r7, #0]
    7a8e:	685b      	ldr	r3, [r3, #4]
    7a90:	2b00      	cmp	r3, #0
    7a92:	d008      	beq.n	7aa6 <mpa_cmp+0x5a>
/home/csx/share/gerrit/optee_os/lib/libmpa/mpa_cmp.c:116 (discriminator 1)
    7a94:	683b      	ldr	r3, [r7, #0]
    7a96:	685b      	ldr	r3, [r3, #4]
    7a98:	2b00      	cmp	r3, #0
    7a9a:	db02      	blt.n	7aa2 <mpa_cmp+0x56>
/home/csx/share/gerrit/optee_os/lib/libmpa/mpa_cmp.c:116 (discriminator 3)
    7a9c:	f04f 33ff 	mov.w	r3, #4294967295	; 0xffffffff
    7aa0:	e00f      	b.n	7ac2 <mpa_cmp+0x76>
/home/csx/share/gerrit/optee_os/lib/libmpa/mpa_cmp.c:116 (discriminator 4)
    7aa2:	2301      	movs	r3, #1
    7aa4:	e00d      	b.n	7ac2 <mpa_cmp+0x76>
/home/csx/share/gerrit/optee_os/lib/libmpa/mpa_cmp.c:116 (discriminator 2)
    7aa6:	2300      	movs	r3, #0
    7aa8:	e00b      	b.n	7ac2 <mpa_cmp+0x76>
/home/csx/share/gerrit/optee_os/lib/libmpa/mpa_cmp.c:122
    7aaa:	6878      	ldr	r0, [r7, #4]
    7aac:	6839      	ldr	r1, [r7, #0]
    7aae:	f7ff ff35 	bl	791c <__mpa_abs_cmp>
    7ab2:	60b8      	str	r0, [r7, #8]
/home/csx/share/gerrit/optee_os/lib/libmpa/mpa_cmp.c:123
    7ab4:	68fb      	ldr	r3, [r7, #12]
    7ab6:	2b01      	cmp	r3, #1
    7ab8:	d002      	beq.n	7ac0 <mpa_cmp+0x74>
/home/csx/share/gerrit/optee_os/lib/libmpa/mpa_cmp.c:124
    7aba:	68bb      	ldr	r3, [r7, #8]
    7abc:	425b      	negs	r3, r3
    7abe:	e000      	b.n	7ac2 <mpa_cmp+0x76>
/home/csx/share/gerrit/optee_os/lib/libmpa/mpa_cmp.c:125
    7ac0:	68bb      	ldr	r3, [r7, #8]
/home/csx/share/gerrit/optee_os/lib/libmpa/mpa_cmp.c:126
    7ac2:	4618      	mov	r0, r3
    7ac4:	3710      	adds	r7, #16
    7ac6:	46bd      	mov	sp, r7
    7ac8:	bd80      	pop	{r7, pc}
    7aca:	bf00      	nop

00007acc <mpa_cmp_short>:
mpa_cmp_short():
/home/csx/share/gerrit/optee_os/lib/libmpa/mpa_cmp.c:137
    7acc:	f84d 7d04 	str.w	r7, [sp, #-4]!
    7ad0:	b087      	sub	sp, #28
    7ad2:	af00      	add	r7, sp, #0
    7ad4:	6078      	str	r0, [r7, #4]
    7ad6:	6039      	str	r1, [r7, #0]
/home/csx/share/gerrit/optee_os/lib/libmpa/mpa_cmp.c:144
    7ad8:	687b      	ldr	r3, [r7, #4]
    7ada:	685b      	ldr	r3, [r3, #4]
    7adc:	2b00      	cmp	r3, #0
    7ade:	db01      	blt.n	7ae4 <mpa_cmp_short+0x18>
/home/csx/share/gerrit/optee_os/lib/libmpa/mpa_cmp.c:144 (discriminator 1)
    7ae0:	2301      	movs	r3, #1
    7ae2:	e001      	b.n	7ae8 <mpa_cmp_short+0x1c>
/home/csx/share/gerrit/optee_os/lib/libmpa/mpa_cmp.c:144 (discriminator 2)
    7ae4:	f04f 33ff 	mov.w	r3, #4294967295	; 0xffffffff
/home/csx/share/gerrit/optee_os/lib/libmpa/mpa_cmp.c:144 (discriminator 4)
    7ae8:	617b      	str	r3, [r7, #20]
/home/csx/share/gerrit/optee_os/lib/libmpa/mpa_cmp.c:145 (discriminator 4)
    7aea:	683b      	ldr	r3, [r7, #0]
    7aec:	2b00      	cmp	r3, #0
    7aee:	da02      	bge.n	7af6 <mpa_cmp_short+0x2a>
/home/csx/share/gerrit/optee_os/lib/libmpa/mpa_cmp.c:145 (discriminator 1)
    7af0:	f04f 33ff 	mov.w	r3, #4294967295	; 0xffffffff
    7af4:	e000      	b.n	7af8 <mpa_cmp_short+0x2c>
/home/csx/share/gerrit/optee_os/lib/libmpa/mpa_cmp.c:145 (discriminator 2)
    7af6:	2301      	movs	r3, #1
/home/csx/share/gerrit/optee_os/lib/libmpa/mpa_cmp.c:145 (discriminator 4)
    7af8:	613b      	str	r3, [r7, #16]
/home/csx/share/gerrit/optee_os/lib/libmpa/mpa_cmp.c:148 (discriminator 4)
    7afa:	687b      	ldr	r3, [r7, #4]
    7afc:	685b      	ldr	r3, [r3, #4]
    7afe:	2b00      	cmp	r3, #0
    7b00:	d107      	bne.n	7b12 <mpa_cmp_short+0x46>
/home/csx/share/gerrit/optee_os/lib/libmpa/mpa_cmp.c:149
    7b02:	683b      	ldr	r3, [r7, #0]
    7b04:	2b00      	cmp	r3, #0
    7b06:	d002      	beq.n	7b0e <mpa_cmp_short+0x42>
/home/csx/share/gerrit/optee_os/lib/libmpa/mpa_cmp.c:149 (discriminator 1)
    7b08:	693b      	ldr	r3, [r7, #16]
    7b0a:	425b      	negs	r3, r3
    7b0c:	e026      	b.n	7b5c <mpa_cmp_short+0x90>
/home/csx/share/gerrit/optee_os/lib/libmpa/mpa_cmp.c:149 (discriminator 2)
    7b0e:	2300      	movs	r3, #0
    7b10:	e024      	b.n	7b5c <mpa_cmp_short+0x90>
/home/csx/share/gerrit/optee_os/lib/libmpa/mpa_cmp.c:152
    7b12:	687b      	ldr	r3, [r7, #4]
    7b14:	685b      	ldr	r3, [r3, #4]
    7b16:	2b00      	cmp	r3, #0
    7b18:	bfb8      	it	lt
    7b1a:	425b      	neglt	r3, r3
    7b1c:	2b01      	cmp	r3, #1
    7b1e:	dd01      	ble.n	7b24 <mpa_cmp_short+0x58>
/home/csx/share/gerrit/optee_os/lib/libmpa/mpa_cmp.c:153
    7b20:	697b      	ldr	r3, [r7, #20]
    7b22:	e01b      	b.n	7b5c <mpa_cmp_short+0x90>
/home/csx/share/gerrit/optee_os/lib/libmpa/mpa_cmp.c:156
    7b24:	697a      	ldr	r2, [r7, #20]
    7b26:	693b      	ldr	r3, [r7, #16]
    7b28:	429a      	cmp	r2, r3
    7b2a:	d001      	beq.n	7b30 <mpa_cmp_short+0x64>
/home/csx/share/gerrit/optee_os/lib/libmpa/mpa_cmp.c:157
    7b2c:	697b      	ldr	r3, [r7, #20]
    7b2e:	e015      	b.n	7b5c <mpa_cmp_short+0x90>
/home/csx/share/gerrit/optee_os/lib/libmpa/mpa_cmp.c:161
    7b30:	683b      	ldr	r3, [r7, #0]
    7b32:	2b00      	cmp	r3, #0
    7b34:	bfb8      	it	lt
    7b36:	425b      	neglt	r3, r3
    7b38:	60fb      	str	r3, [r7, #12]
/home/csx/share/gerrit/optee_os/lib/libmpa/mpa_cmp.c:163
    7b3a:	687b      	ldr	r3, [r7, #4]
    7b3c:	689a      	ldr	r2, [r3, #8]
    7b3e:	68fb      	ldr	r3, [r7, #12]
    7b40:	429a      	cmp	r2, r3
    7b42:	d101      	bne.n	7b48 <mpa_cmp_short+0x7c>
/home/csx/share/gerrit/optee_os/lib/libmpa/mpa_cmp.c:164
    7b44:	2300      	movs	r3, #0
    7b46:	e009      	b.n	7b5c <mpa_cmp_short+0x90>
/home/csx/share/gerrit/optee_os/lib/libmpa/mpa_cmp.c:166
    7b48:	687b      	ldr	r3, [r7, #4]
    7b4a:	689a      	ldr	r2, [r3, #8]
    7b4c:	68fb      	ldr	r3, [r7, #12]
    7b4e:	429a      	cmp	r2, r3
    7b50:	d802      	bhi.n	7b58 <mpa_cmp_short+0x8c>
/home/csx/share/gerrit/optee_os/lib/libmpa/mpa_cmp.c:166 (discriminator 1)
    7b52:	697b      	ldr	r3, [r7, #20]
    7b54:	425b      	negs	r3, r3
    7b56:	e000      	b.n	7b5a <mpa_cmp_short+0x8e>
/home/csx/share/gerrit/optee_os/lib/libmpa/mpa_cmp.c:166 (discriminator 2)
    7b58:	697b      	ldr	r3, [r7, #20]
/home/csx/share/gerrit/optee_os/lib/libmpa/mpa_cmp.c:166
    7b5a:	bf00      	nop
/home/csx/share/gerrit/optee_os/lib/libmpa/mpa_cmp.c:171
    7b5c:	4618      	mov	r0, r3
    7b5e:	371c      	adds	r7, #28
    7b60:	46bd      	mov	sp, r7
    7b62:	f85d 7b04 	ldr.w	r7, [sp], #4
    7b66:	4770      	bx	lr

00007b68 <mpa_exp_mod>:
mpa_exp_mod():
/home/csx/share/gerrit/optee_os/lib/libmpa/mpa_expmod.c:43
    7b68:	f84d 4d0c 	str.w	r4, [sp, #-12]!
    7b6c:	e9cd 7e01 	strd	r7, lr, [sp, #4]
    7b70:	b08f      	sub	sp, #60	; 0x3c
    7b72:	af02      	add	r7, sp, #8
    7b74:	60f8      	str	r0, [r7, #12]
    7b76:	60b9      	str	r1, [r7, #8]
    7b78:	607a      	str	r2, [r7, #4]
    7b7a:	603b      	str	r3, [r7, #0]
    7b7c:	4c45      	ldr	r4, [pc, #276]	; (7c94 <mpa_exp_mod+0x12c>)
    7b7e:	447c      	add	r4, pc
/home/csx/share/gerrit/optee_os/lib/libmpa/mpa_expmod.c:52
    7b80:	f107 031c 	add.w	r3, r7, #28
    7b84:	4618      	mov	r0, r3
    7b86:	6cf9      	ldr	r1, [r7, #76]	; 0x4c
    7b88:	f7fe fc78 	bl	647c <mpa_alloc_static_temp_var>
/home/csx/share/gerrit/optee_os/lib/libmpa/mpa_expmod.c:53
    7b8c:	f107 0318 	add.w	r3, r7, #24
    7b90:	4618      	mov	r0, r3
    7b92:	6cf9      	ldr	r1, [r7, #76]	; 0x4c
    7b94:	f7fe fc72 	bl	647c <mpa_alloc_static_temp_var>
/home/csx/share/gerrit/optee_os/lib/libmpa/mpa_expmod.c:54
    7b98:	f107 0314 	add.w	r3, r7, #20
    7b9c:	4618      	mov	r0, r3
    7b9e:	6cf9      	ldr	r1, [r7, #76]	; 0x4c
    7ba0:	f7fe fc6c 	bl	647c <mpa_alloc_static_temp_var>
/home/csx/share/gerrit/optee_os/lib/libmpa/mpa_expmod.c:58
    7ba4:	697a      	ldr	r2, [r7, #20]
    7ba6:	6cbb      	ldr	r3, [r7, #72]	; 0x48
    7ba8:	9300      	str	r3, [sp, #0]
    7baa:	4610      	mov	r0, r2
    7bac:	68b9      	ldr	r1, [r7, #8]
    7bae:	6c7a      	ldr	r2, [r7, #68]	; 0x44
    7bb0:	683b      	ldr	r3, [r7, #0]
    7bb2:	f7fc ff1d 	bl	49f0 <__mpa_montgomery_mul>
/home/csx/share/gerrit/optee_os/lib/libmpa/mpa_expmod.c:60
    7bb6:	69fb      	ldr	r3, [r7, #28]
    7bb8:	4618      	mov	r0, r3
    7bba:	6c39      	ldr	r1, [r7, #64]	; 0x40
    7bbc:	f7fc fd2c 	bl	4618 <mpa_copy>
/home/csx/share/gerrit/optee_os/lib/libmpa/mpa_expmod.c:61
    7bc0:	f107 031c 	add.w	r3, r7, #28
    7bc4:	62fb      	str	r3, [r7, #44]	; 0x2c
/home/csx/share/gerrit/optee_os/lib/libmpa/mpa_expmod.c:62
    7bc6:	f107 0318 	add.w	r3, r7, #24
    7bca:	62bb      	str	r3, [r7, #40]	; 0x28
/home/csx/share/gerrit/optee_os/lib/libmpa/mpa_expmod.c:63
    7bcc:	69fb      	ldr	r3, [r7, #28]
    7bce:	4618      	mov	r0, r3
    7bd0:	f7fc fcee 	bl	45b0 <__mpa_set_unused_digits_to_zero>
/home/csx/share/gerrit/optee_os/lib/libmpa/mpa_expmod.c:64
    7bd4:	69bb      	ldr	r3, [r7, #24]
    7bd6:	4618      	mov	r0, r3
    7bd8:	f7fc fcea 	bl	45b0 <__mpa_set_unused_digits_to_zero>
/home/csx/share/gerrit/optee_os/lib/libmpa/mpa_expmod.c:65
    7bdc:	6878      	ldr	r0, [r7, #4]
    7bde:	f7fc fd55 	bl	468c <mpa_highest_bit_index>
    7be2:	6278      	str	r0, [r7, #36]	; 0x24
    7be4:	e026      	b.n	7c34 <mpa_exp_mod+0xcc>
/home/csx/share/gerrit/optee_os/lib/libmpa/mpa_expmod.c:66
    7be6:	6abb      	ldr	r3, [r7, #40]	; 0x28
    7be8:	6818      	ldr	r0, [r3, #0]
    7bea:	6afb      	ldr	r3, [r7, #44]	; 0x2c
    7bec:	6819      	ldr	r1, [r3, #0]
    7bee:	6afb      	ldr	r3, [r7, #44]	; 0x2c
    7bf0:	681a      	ldr	r2, [r3, #0]
    7bf2:	6cbb      	ldr	r3, [r7, #72]	; 0x48
    7bf4:	9300      	str	r3, [sp, #0]
    7bf6:	683b      	ldr	r3, [r7, #0]
    7bf8:	f7fc fefa 	bl	49f0 <__mpa_montgomery_mul>
/home/csx/share/gerrit/optee_os/lib/libmpa/mpa_expmod.c:67
    7bfc:	6a7b      	ldr	r3, [r7, #36]	; 0x24
    7bfe:	6878      	ldr	r0, [r7, #4]
    7c00:	4619      	mov	r1, r3
    7c02:	f7fc fd7b 	bl	46fc <mpa_get_bit>
    7c06:	4603      	mov	r3, r0
    7c08:	2b01      	cmp	r3, #1
    7c0a:	d10a      	bne.n	7c22 <mpa_exp_mod+0xba>
/home/csx/share/gerrit/optee_os/lib/libmpa/mpa_expmod.c:68
    7c0c:	6afb      	ldr	r3, [r7, #44]	; 0x2c
    7c0e:	6818      	ldr	r0, [r3, #0]
    7c10:	6abb      	ldr	r3, [r7, #40]	; 0x28
    7c12:	6819      	ldr	r1, [r3, #0]
    7c14:	697a      	ldr	r2, [r7, #20]
    7c16:	6cbb      	ldr	r3, [r7, #72]	; 0x48
    7c18:	9300      	str	r3, [sp, #0]
    7c1a:	683b      	ldr	r3, [r7, #0]
    7c1c:	f7fc fee8 	bl	49f0 <__mpa_montgomery_mul>
    7c20:	e005      	b.n	7c2e <mpa_exp_mod+0xc6>
/home/csx/share/gerrit/optee_os/lib/libmpa/mpa_expmod.c:70
    7c22:	6afb      	ldr	r3, [r7, #44]	; 0x2c
    7c24:	623b      	str	r3, [r7, #32]
/home/csx/share/gerrit/optee_os/lib/libmpa/mpa_expmod.c:71
    7c26:	6abb      	ldr	r3, [r7, #40]	; 0x28
    7c28:	62fb      	str	r3, [r7, #44]	; 0x2c
/home/csx/share/gerrit/optee_os/lib/libmpa/mpa_expmod.c:72
    7c2a:	6a3b      	ldr	r3, [r7, #32]
    7c2c:	62bb      	str	r3, [r7, #40]	; 0x28
/home/csx/share/gerrit/optee_os/lib/libmpa/mpa_expmod.c:65 (discriminator 2)
    7c2e:	6a7b      	ldr	r3, [r7, #36]	; 0x24
    7c30:	3b01      	subs	r3, #1
    7c32:	627b      	str	r3, [r7, #36]	; 0x24
/home/csx/share/gerrit/optee_os/lib/libmpa/mpa_expmod.c:65 (discriminator 1)
    7c34:	6a7b      	ldr	r3, [r7, #36]	; 0x24
    7c36:	2b00      	cmp	r3, #0
    7c38:	dad5      	bge.n	7be6 <mpa_exp_mod+0x7e>
/home/csx/share/gerrit/optee_os/lib/libmpa/mpa_expmod.c:77
    7c3a:	6abb      	ldr	r3, [r7, #40]	; 0x28
    7c3c:	6819      	ldr	r1, [r3, #0]
    7c3e:	6afb      	ldr	r3, [r7, #44]	; 0x2c
    7c40:	681a      	ldr	r2, [r3, #0]
    7c42:	6cbb      	ldr	r3, [r7, #72]	; 0x48
    7c44:	9300      	str	r3, [sp, #0]
    7c46:	4608      	mov	r0, r1
    7c48:	4b13      	ldr	r3, [pc, #76]	; (7c98 <mpa_exp_mod+0x130>)
    7c4a:	58e3      	ldr	r3, [r4, r3]
    7c4c:	4619      	mov	r1, r3
    7c4e:	683b      	ldr	r3, [r7, #0]
    7c50:	f7fc fece 	bl	49f0 <__mpa_montgomery_mul>
/home/csx/share/gerrit/optee_os/lib/libmpa/mpa_expmod.c:80
    7c54:	6abb      	ldr	r3, [r7, #40]	; 0x28
    7c56:	681b      	ldr	r3, [r3, #0]
    7c58:	68f8      	ldr	r0, [r7, #12]
    7c5a:	4619      	mov	r1, r3
    7c5c:	f7fc fcdc 	bl	4618 <mpa_copy>
/home/csx/share/gerrit/optee_os/lib/libmpa/mpa_expmod.c:82
    7c60:	f107 031c 	add.w	r3, r7, #28
    7c64:	4618      	mov	r0, r3
    7c66:	6cf9      	ldr	r1, [r7, #76]	; 0x4c
    7c68:	f7fe fc1a 	bl	64a0 <mpa_free_static_temp_var>
/home/csx/share/gerrit/optee_os/lib/libmpa/mpa_expmod.c:83
    7c6c:	f107 0318 	add.w	r3, r7, #24
    7c70:	4618      	mov	r0, r3
    7c72:	6cf9      	ldr	r1, [r7, #76]	; 0x4c
    7c74:	f7fe fc14 	bl	64a0 <mpa_free_static_temp_var>
/home/csx/share/gerrit/optee_os/lib/libmpa/mpa_expmod.c:84
    7c78:	f107 0314 	add.w	r3, r7, #20
    7c7c:	4618      	mov	r0, r3
    7c7e:	6cf9      	ldr	r1, [r7, #76]	; 0x4c
    7c80:	f7fe fc0e 	bl	64a0 <mpa_free_static_temp_var>
/home/csx/share/gerrit/optee_os/lib/libmpa/mpa_expmod.c:85
    7c84:	3734      	adds	r7, #52	; 0x34
    7c86:	46bd      	mov	sp, r7
    7c88:	e9dd 4700 	ldrd	r4, r7, [sp]
    7c8c:	b002      	add	sp, #8
    7c8e:	f85d fb04 	ldr.w	pc, [sp], #4
    7c92:	bf00      	nop
    7c94:	0000245e 	.word	0x0000245e
    7c98:	00000010 	.word	0x00000010

00007c9c <mpa_init_static>:
mpa_init_static():
/home/csx/share/gerrit/optee_os/lib/libmpa/mpa_init.c:34
    7c9c:	f84d 7d04 	str.w	r7, [sp, #-4]!
    7ca0:	b083      	sub	sp, #12
    7ca2:	af00      	add	r7, sp, #0
    7ca4:	6078      	str	r0, [r7, #4]
    7ca6:	6039      	str	r1, [r7, #0]
/home/csx/share/gerrit/optee_os/lib/libmpa/mpa_init.c:35
    7ca8:	683b      	ldr	r3, [r7, #0]
    7caa:	f103 4380 	add.w	r3, r3, #1073741824	; 0x40000000
    7cae:	3b02      	subs	r3, #2
    7cb0:	009b      	lsls	r3, r3, #2
    7cb2:	3303      	adds	r3, #3
    7cb4:	089a      	lsrs	r2, r3, #2
    7cb6:	687b      	ldr	r3, [r7, #4]
    7cb8:	601a      	str	r2, [r3, #0]
/home/csx/share/gerrit/optee_os/lib/libmpa/mpa_init.c:36
    7cba:	687b      	ldr	r3, [r7, #4]
    7cbc:	2200      	movs	r2, #0
    7cbe:	605a      	str	r2, [r3, #4]
/home/csx/share/gerrit/optee_os/lib/libmpa/mpa_init.c:37
    7cc0:	687b      	ldr	r3, [r7, #4]
    7cc2:	681b      	ldr	r3, [r3, #0]
    7cc4:	2b00      	cmp	r3, #0
    7cc6:	d002      	beq.n	7cce <mpa_init_static+0x32>
/home/csx/share/gerrit/optee_os/lib/libmpa/mpa_init.c:38
    7cc8:	687b      	ldr	r3, [r7, #4]
    7cca:	2200      	movs	r2, #0
    7ccc:	609a      	str	r2, [r3, #8]
/home/csx/share/gerrit/optee_os/lib/libmpa/mpa_init.c:39
    7cce:	370c      	adds	r7, #12
    7cd0:	46bd      	mov	sp, r7
    7cd2:	f85d 7b04 	ldr.w	r7, [sp], #4
    7cd6:	4770      	bx	lr

00007cd8 <mpa_init_static_fmm_context>:
mpa_init_static_fmm_context():
/home/csx/share/gerrit/optee_os/lib/libmpa/mpa_init.c:47
    7cd8:	e96d 7e02 	strd	r7, lr, [sp, #-8]!
    7cdc:	b084      	sub	sp, #16
    7cde:	af00      	add	r7, sp, #0
    7ce0:	6078      	str	r0, [r7, #4]
    7ce2:	6039      	str	r1, [r7, #0]
/home/csx/share/gerrit/optee_os/lib/libmpa/mpa_init.c:51
    7ce4:	683b      	ldr	r3, [r7, #0]
    7ce6:	f103 4380 	add.w	r3, r3, #1073741824	; 0x40000000
    7cea:	3b03      	subs	r3, #3
    7cec:	009b      	lsls	r3, r3, #2
    7cee:	3303      	adds	r3, #3
/home/csx/share/gerrit/optee_os/lib/libmpa/mpa_init.c:50
    7cf0:	089b      	lsrs	r3, r3, #2
    7cf2:	60fb      	str	r3, [r7, #12]
/home/csx/share/gerrit/optee_os/lib/libmpa/mpa_init.c:54
    7cf4:	687b      	ldr	r3, [r7, #4]
    7cf6:	f103 020c 	add.w	r2, r3, #12
    7cfa:	68fb      	ldr	r3, [r7, #12]
    7cfc:	009b      	lsls	r3, r3, #2
    7cfe:	4610      	mov	r0, r2
    7d00:	2100      	movs	r1, #0
    7d02:	461a      	mov	r2, r3
    7d04:	f7fb f93c 	bl	2f80 <memset>
/home/csx/share/gerrit/optee_os/lib/libmpa/mpa_init.c:55
    7d08:	68fb      	ldr	r3, [r7, #12]
    7d0a:	085b      	lsrs	r3, r3, #1
    7d0c:	60fb      	str	r3, [r7, #12]
/home/csx/share/gerrit/optee_os/lib/libmpa/mpa_init.c:58
    7d0e:	687b      	ldr	r3, [r7, #4]
    7d10:	2200      	movs	r2, #0
    7d12:	609a      	str	r2, [r3, #8]
/home/csx/share/gerrit/optee_os/lib/libmpa/mpa_init.c:60
    7d14:	687b      	ldr	r3, [r7, #4]
    7d16:	f103 020c 	add.w	r2, r3, #12
    7d1a:	687b      	ldr	r3, [r7, #4]
    7d1c:	601a      	str	r2, [r3, #0]
/home/csx/share/gerrit/optee_os/lib/libmpa/mpa_init.c:61
    7d1e:	687b      	ldr	r3, [r7, #4]
    7d20:	681b      	ldr	r3, [r3, #0]
/home/csx/share/gerrit/optee_os/lib/libmpa/mpa_init.c:62
    7d22:	68fa      	ldr	r2, [r7, #12]
    7d24:	3a02      	subs	r2, #2
/home/csx/share/gerrit/optee_os/lib/libmpa/mpa_init.c:61
    7d26:	601a      	str	r2, [r3, #0]
/home/csx/share/gerrit/optee_os/lib/libmpa/mpa_init.c:63
    7d28:	687b      	ldr	r3, [r7, #4]
    7d2a:	681b      	ldr	r3, [r3, #0]
    7d2c:	2200      	movs	r2, #0
    7d2e:	605a      	str	r2, [r3, #4]
/home/csx/share/gerrit/optee_os/lib/libmpa/mpa_init.c:65
    7d30:	68fb      	ldr	r3, [r7, #12]
    7d32:	3302      	adds	r3, #2
    7d34:	009b      	lsls	r3, r3, #2
    7d36:	687a      	ldr	r2, [r7, #4]
    7d38:	4413      	add	r3, r2
    7d3a:	1d1a      	adds	r2, r3, #4
    7d3c:	687b      	ldr	r3, [r7, #4]
    7d3e:	605a      	str	r2, [r3, #4]
/home/csx/share/gerrit/optee_os/lib/libmpa/mpa_init.c:66
    7d40:	687b      	ldr	r3, [r7, #4]
    7d42:	685b      	ldr	r3, [r3, #4]
/home/csx/share/gerrit/optee_os/lib/libmpa/mpa_init.c:67
    7d44:	68fa      	ldr	r2, [r7, #12]
    7d46:	3a02      	subs	r2, #2
/home/csx/share/gerrit/optee_os/lib/libmpa/mpa_init.c:66
    7d48:	601a      	str	r2, [r3, #0]
/home/csx/share/gerrit/optee_os/lib/libmpa/mpa_init.c:68
    7d4a:	687b      	ldr	r3, [r7, #4]
    7d4c:	685b      	ldr	r3, [r3, #4]
    7d4e:	2200      	movs	r2, #0
    7d50:	605a      	str	r2, [r3, #4]
/home/csx/share/gerrit/optee_os/lib/libmpa/mpa_init.c:69
    7d52:	3710      	adds	r7, #16
    7d54:	46bd      	mov	sp, r7
    7d56:	bd80      	pop	{r7, pc}

00007d58 <__mpa_isspace>:
__mpa_isspace():
/home/csx/share/gerrit/optee_os/lib/libmpa/mpa_io.c:47
    7d58:	f84d 7d04 	str.w	r7, [sp, #-4]!
    7d5c:	b083      	sub	sp, #12
    7d5e:	af00      	add	r7, sp, #0
    7d60:	4603      	mov	r3, r0
    7d62:	71fb      	strb	r3, [r7, #7]
/home/csx/share/gerrit/optee_os/lib/libmpa/mpa_io.c:52
    7d64:	79fb      	ldrb	r3, [r7, #7]
    7d66:	2b5f      	cmp	r3, #95	; 0x5f
    7d68:	d00b      	beq.n	7d82 <__mpa_isspace+0x2a>
/home/csx/share/gerrit/optee_os/lib/libmpa/mpa_io.c:48
    7d6a:	79fb      	ldrb	r3, [r7, #7]
    7d6c:	2b20      	cmp	r3, #32
    7d6e:	d008      	beq.n	7d82 <__mpa_isspace+0x2a>
/home/csx/share/gerrit/optee_os/lib/libmpa/mpa_io.c:50
    7d70:	79fb      	ldrb	r3, [r7, #7]
    7d72:	2b0a      	cmp	r3, #10
    7d74:	d005      	beq.n	7d82 <__mpa_isspace+0x2a>
/home/csx/share/gerrit/optee_os/lib/libmpa/mpa_io.c:51
    7d76:	79fb      	ldrb	r3, [r7, #7]
    7d78:	2b0d      	cmp	r3, #13
    7d7a:	d002      	beq.n	7d82 <__mpa_isspace+0x2a>
/home/csx/share/gerrit/optee_os/lib/libmpa/mpa_io.c:52 (discriminator 2)
    7d7c:	79fb      	ldrb	r3, [r7, #7]
    7d7e:	2b09      	cmp	r3, #9
    7d80:	d101      	bne.n	7d86 <__mpa_isspace+0x2e>
/home/csx/share/gerrit/optee_os/lib/libmpa/mpa_io.c:52 (discriminator 1)
    7d82:	2301      	movs	r3, #1
    7d84:	e000      	b.n	7d88 <__mpa_isspace+0x30>
/home/csx/share/gerrit/optee_os/lib/libmpa/mpa_io.c:52 (discriminator 3)
    7d86:	2300      	movs	r3, #0
/home/csx/share/gerrit/optee_os/lib/libmpa/mpa_io.c:54
    7d88:	4618      	mov	r0, r3
    7d8a:	370c      	adds	r7, #12
    7d8c:	46bd      	mov	sp, r7
    7d8e:	f85d 7b04 	ldr.w	r7, [sp], #4
    7d92:	4770      	bx	lr

00007d94 <__mpa_is_char_in_base>:
__mpa_is_char_in_base():
/home/csx/share/gerrit/optee_os/lib/libmpa/mpa_io.c:63
    7d94:	e96d 7e02 	strd	r7, lr, [sp, #-8]!
    7d98:	b082      	sub	sp, #8
    7d9a:	af00      	add	r7, sp, #0
    7d9c:	6078      	str	r0, [r7, #4]
    7d9e:	6039      	str	r1, [r7, #0]
/home/csx/share/gerrit/optee_os/lib/libmpa/mpa_io.c:64
    7da0:	683b      	ldr	r3, [r7, #0]
    7da2:	b2db      	uxtb	r3, r3
    7da4:	4618      	mov	r0, r3
    7da6:	f7ff ffd7 	bl	7d58 <__mpa_isspace>
    7daa:	4603      	mov	r3, r0
    7dac:	2b00      	cmp	r3, #0
    7dae:	d001      	beq.n	7db4 <__mpa_is_char_in_base+0x20>
/home/csx/share/gerrit/optee_os/lib/libmpa/mpa_io.c:65
    7db0:	2301      	movs	r3, #1
    7db2:	e026      	b.n	7e02 <__mpa_is_char_in_base+0x6e>
/home/csx/share/gerrit/optee_os/lib/libmpa/mpa_io.c:67
    7db4:	687b      	ldr	r3, [r7, #4]
    7db6:	2b0a      	cmp	r3, #10
    7db8:	d002      	beq.n	7dc0 <__mpa_is_char_in_base+0x2c>
    7dba:	2b10      	cmp	r3, #16
    7dbc:	d00a      	beq.n	7dd4 <__mpa_is_char_in_base+0x40>
    7dbe:	e01f      	b.n	7e00 <__mpa_is_char_in_base+0x6c>
/home/csx/share/gerrit/optee_os/lib/libmpa/mpa_io.c:69
    7dc0:	683b      	ldr	r3, [r7, #0]
    7dc2:	2b2f      	cmp	r3, #47	; 0x2f
    7dc4:	dd04      	ble.n	7dd0 <__mpa_is_char_in_base+0x3c>
/home/csx/share/gerrit/optee_os/lib/libmpa/mpa_io.c:69 (discriminator 1)
    7dc6:	683b      	ldr	r3, [r7, #0]
    7dc8:	2b39      	cmp	r3, #57	; 0x39
    7dca:	dc01      	bgt.n	7dd0 <__mpa_is_char_in_base+0x3c>
/home/csx/share/gerrit/optee_os/lib/libmpa/mpa_io.c:69 (discriminator 3)
    7dcc:	2301      	movs	r3, #1
    7dce:	e018      	b.n	7e02 <__mpa_is_char_in_base+0x6e>
/home/csx/share/gerrit/optee_os/lib/libmpa/mpa_io.c:69 (discriminator 4)
    7dd0:	2300      	movs	r3, #0
    7dd2:	e016      	b.n	7e02 <__mpa_is_char_in_base+0x6e>
/home/csx/share/gerrit/optee_os/lib/libmpa/mpa_io.c:72
    7dd4:	683b      	ldr	r3, [r7, #0]
    7dd6:	2b2f      	cmp	r3, #47	; 0x2f
    7dd8:	dd02      	ble.n	7de0 <__mpa_is_char_in_base+0x4c>
/home/csx/share/gerrit/optee_os/lib/libmpa/mpa_io.c:71
    7dda:	683b      	ldr	r3, [r7, #0]
    7ddc:	2b39      	cmp	r3, #57	; 0x39
    7dde:	dd0b      	ble.n	7df8 <__mpa_is_char_in_base+0x64>
/home/csx/share/gerrit/optee_os/lib/libmpa/mpa_io.c:71 (discriminator 1)
    7de0:	683b      	ldr	r3, [r7, #0]
    7de2:	2b40      	cmp	r3, #64	; 0x40
    7de4:	dd02      	ble.n	7dec <__mpa_is_char_in_base+0x58>
/home/csx/share/gerrit/optee_os/lib/libmpa/mpa_io.c:72
    7de6:	683b      	ldr	r3, [r7, #0]
    7de8:	2b46      	cmp	r3, #70	; 0x46
    7dea:	dd05      	ble.n	7df8 <__mpa_is_char_in_base+0x64>
/home/csx/share/gerrit/optee_os/lib/libmpa/mpa_io.c:72 (discriminator 2)
    7dec:	683b      	ldr	r3, [r7, #0]
    7dee:	2b60      	cmp	r3, #96	; 0x60
    7df0:	dd04      	ble.n	7dfc <__mpa_is_char_in_base+0x68>
/home/csx/share/gerrit/optee_os/lib/libmpa/mpa_io.c:73
    7df2:	683b      	ldr	r3, [r7, #0]
    7df4:	2b66      	cmp	r3, #102	; 0x66
    7df6:	dc01      	bgt.n	7dfc <__mpa_is_char_in_base+0x68>
/home/csx/share/gerrit/optee_os/lib/libmpa/mpa_io.c:72 (discriminator 1)
    7df8:	2301      	movs	r3, #1
/home/csx/share/gerrit/optee_os/lib/libmpa/mpa_io.c:71 (discriminator 1)
    7dfa:	e002      	b.n	7e02 <__mpa_is_char_in_base+0x6e>
/home/csx/share/gerrit/optee_os/lib/libmpa/mpa_io.c:72 (discriminator 3)
    7dfc:	2300      	movs	r3, #0
/home/csx/share/gerrit/optee_os/lib/libmpa/mpa_io.c:71 (discriminator 3)
    7dfe:	e000      	b.n	7e02 <__mpa_is_char_in_base+0x6e>
/home/csx/share/gerrit/optee_os/lib/libmpa/mpa_io.c:75
    7e00:	2300      	movs	r3, #0
/home/csx/share/gerrit/optee_os/lib/libmpa/mpa_io.c:77
    7e02:	4618      	mov	r0, r3
    7e04:	3708      	adds	r7, #8
    7e06:	46bd      	mov	sp, r7
    7e08:	bd80      	pop	{r7, pc}
    7e0a:	bf00      	nop

00007e0c <__mpa_digit_value>:
__mpa_digit_value():
/home/csx/share/gerrit/optee_os/lib/libmpa/mpa_io.c:85
    7e0c:	f84d 7d04 	str.w	r7, [sp, #-4]!
    7e10:	b083      	sub	sp, #12
    7e12:	af00      	add	r7, sp, #0
    7e14:	6078      	str	r0, [r7, #4]
/home/csx/share/gerrit/optee_os/lib/libmpa/mpa_io.c:86
    7e16:	687b      	ldr	r3, [r7, #4]
    7e18:	2b2f      	cmp	r3, #47	; 0x2f
    7e1a:	dd05      	ble.n	7e28 <__mpa_digit_value+0x1c>
/home/csx/share/gerrit/optee_os/lib/libmpa/mpa_io.c:86 (discriminator 1)
    7e1c:	687b      	ldr	r3, [r7, #4]
    7e1e:	2b39      	cmp	r3, #57	; 0x39
    7e20:	dc02      	bgt.n	7e28 <__mpa_digit_value+0x1c>
/home/csx/share/gerrit/optee_os/lib/libmpa/mpa_io.c:87
    7e22:	687b      	ldr	r3, [r7, #4]
    7e24:	3b30      	subs	r3, #48	; 0x30
    7e26:	e012      	b.n	7e4e <__mpa_digit_value+0x42>
/home/csx/share/gerrit/optee_os/lib/libmpa/mpa_io.c:88
    7e28:	687b      	ldr	r3, [r7, #4]
    7e2a:	2b40      	cmp	r3, #64	; 0x40
    7e2c:	dd05      	ble.n	7e3a <__mpa_digit_value+0x2e>
/home/csx/share/gerrit/optee_os/lib/libmpa/mpa_io.c:88 (discriminator 1)
    7e2e:	687b      	ldr	r3, [r7, #4]
    7e30:	2b46      	cmp	r3, #70	; 0x46
    7e32:	dc02      	bgt.n	7e3a <__mpa_digit_value+0x2e>
/home/csx/share/gerrit/optee_os/lib/libmpa/mpa_io.c:89
    7e34:	687b      	ldr	r3, [r7, #4]
    7e36:	3b37      	subs	r3, #55	; 0x37
    7e38:	e009      	b.n	7e4e <__mpa_digit_value+0x42>
/home/csx/share/gerrit/optee_os/lib/libmpa/mpa_io.c:90
    7e3a:	687b      	ldr	r3, [r7, #4]
    7e3c:	2b60      	cmp	r3, #96	; 0x60
    7e3e:	dd05      	ble.n	7e4c <__mpa_digit_value+0x40>
/home/csx/share/gerrit/optee_os/lib/libmpa/mpa_io.c:90 (discriminator 1)
    7e40:	687b      	ldr	r3, [r7, #4]
    7e42:	2b66      	cmp	r3, #102	; 0x66
    7e44:	dc02      	bgt.n	7e4c <__mpa_digit_value+0x40>
/home/csx/share/gerrit/optee_os/lib/libmpa/mpa_io.c:91
    7e46:	687b      	ldr	r3, [r7, #4]
    7e48:	3b57      	subs	r3, #87	; 0x57
    7e4a:	e000      	b.n	7e4e <__mpa_digit_value+0x42>
/home/csx/share/gerrit/optee_os/lib/libmpa/mpa_io.c:94
    7e4c:	2300      	movs	r3, #0
/home/csx/share/gerrit/optee_os/lib/libmpa/mpa_io.c:95
    7e4e:	4618      	mov	r0, r3
    7e50:	370c      	adds	r7, #12
    7e52:	46bd      	mov	sp, r7
    7e54:	f85d 7b04 	ldr.w	r7, [sp], #4
    7e58:	4770      	bx	lr
    7e5a:	bf00      	nop

00007e5c <__mpa_digitstr_to_binary_wsize_base_16>:
__mpa_digitstr_to_binary_wsize_base_16():
/home/csx/share/gerrit/optee_os/lib/libmpa/mpa_io.c:104
    7e5c:	f84d 7d04 	str.w	r7, [sp, #-4]!
    7e60:	b083      	sub	sp, #12
    7e62:	af00      	add	r7, sp, #0
    7e64:	6078      	str	r0, [r7, #4]
/home/csx/share/gerrit/optee_os/lib/libmpa/mpa_io.c:105
    7e66:	687b      	ldr	r3, [r7, #4]
    7e68:	3307      	adds	r3, #7
    7e6a:	10db      	asrs	r3, r3, #3
/home/csx/share/gerrit/optee_os/lib/libmpa/mpa_io.c:106
    7e6c:	4618      	mov	r0, r3
    7e6e:	370c      	adds	r7, #12
    7e70:	46bd      	mov	sp, r7
    7e72:	f85d 7b04 	ldr.w	r7, [sp], #4
    7e76:	4770      	bx	lr

00007e78 <__mpa_nibble_to_char>:
__mpa_nibble_to_char():
/home/csx/share/gerrit/optee_os/lib/libmpa/mpa_io.c:114
    7e78:	f84d 7d04 	str.w	r7, [sp, #-4]!
    7e7c:	b083      	sub	sp, #12
    7e7e:	af00      	add	r7, sp, #0
    7e80:	6078      	str	r0, [r7, #4]
    7e82:	6039      	str	r1, [r7, #0]
/home/csx/share/gerrit/optee_os/lib/libmpa/mpa_io.c:115
    7e84:	687b      	ldr	r3, [r7, #4]
    7e86:	f003 030f 	and.w	r3, r3, #15
    7e8a:	607b      	str	r3, [r7, #4]
/home/csx/share/gerrit/optee_os/lib/libmpa/mpa_io.c:116
    7e8c:	687b      	ldr	r3, [r7, #4]
    7e8e:	2b09      	cmp	r3, #9
    7e90:	d804      	bhi.n	7e9c <__mpa_nibble_to_char+0x24>
/home/csx/share/gerrit/optee_os/lib/libmpa/mpa_io.c:117
    7e92:	687b      	ldr	r3, [r7, #4]
    7e94:	b2db      	uxtb	r3, r3
    7e96:	3330      	adds	r3, #48	; 0x30
    7e98:	b2db      	uxtb	r3, r3
    7e9a:	e00b      	b.n	7eb4 <__mpa_nibble_to_char+0x3c>
/home/csx/share/gerrit/optee_os/lib/libmpa/mpa_io.c:118
    7e9c:	683b      	ldr	r3, [r7, #0]
    7e9e:	2b00      	cmp	r3, #0
    7ea0:	d104      	bne.n	7eac <__mpa_nibble_to_char+0x34>
/home/csx/share/gerrit/optee_os/lib/libmpa/mpa_io.c:118 (discriminator 1)
    7ea2:	687b      	ldr	r3, [r7, #4]
    7ea4:	b2db      	uxtb	r3, r3
    7ea6:	3337      	adds	r3, #55	; 0x37
    7ea8:	b2db      	uxtb	r3, r3
    7eaa:	e003      	b.n	7eb4 <__mpa_nibble_to_char+0x3c>
/home/csx/share/gerrit/optee_os/lib/libmpa/mpa_io.c:118 (discriminator 2)
    7eac:	687b      	ldr	r3, [r7, #4]
    7eae:	b2db      	uxtb	r3, r3
    7eb0:	3357      	adds	r3, #87	; 0x57
    7eb2:	b2db      	uxtb	r3, r3
/home/csx/share/gerrit/optee_os/lib/libmpa/mpa_io.c:119
    7eb4:	4618      	mov	r0, r3
    7eb6:	370c      	adds	r7, #12
    7eb8:	46bd      	mov	sp, r7
    7eba:	f85d 7b04 	ldr.w	r7, [sp], #4
    7ebe:	4770      	bx	lr

00007ec0 <__mpa_word_to_hexstr>:
__mpa_word_to_hexstr():
/home/csx/share/gerrit/optee_os/lib/libmpa/mpa_io.c:127
    7ec0:	f84d 4d0c 	str.w	r4, [sp, #-12]!
    7ec4:	e9cd 7e01 	strd	r7, lr, [sp, #4]
    7ec8:	b087      	sub	sp, #28
    7eca:	af00      	add	r7, sp, #0
    7ecc:	60f8      	str	r0, [r7, #12]
    7ece:	60b9      	str	r1, [r7, #8]
    7ed0:	607a      	str	r2, [r7, #4]
/home/csx/share/gerrit/optee_os/lib/libmpa/mpa_io.c:129
    7ed2:	2308      	movs	r3, #8
    7ed4:	617b      	str	r3, [r7, #20]
    7ed6:	e014      	b.n	7f02 <__mpa_word_to_hexstr+0x42>
/home/csx/share/gerrit/optee_os/lib/libmpa/mpa_io.c:130 (discriminator 3)
    7ed8:	697b      	ldr	r3, [r7, #20]
    7eda:	3b01      	subs	r3, #1
    7edc:	68fa      	ldr	r2, [r7, #12]
    7ede:	18d4      	adds	r4, r2, r3
/home/csx/share/gerrit/optee_os/lib/libmpa/mpa_io.c:131 (discriminator 3)
    7ee0:	697b      	ldr	r3, [r7, #20]
    7ee2:	3b01      	subs	r3, #1
    7ee4:	009b      	lsls	r3, r3, #2
    7ee6:	68ba      	ldr	r2, [r7, #8]
    7ee8:	fa22 f303 	lsr.w	r3, r2, r3
    7eec:	f003 030f 	and.w	r3, r3, #15
    7ef0:	4618      	mov	r0, r3
    7ef2:	6879      	ldr	r1, [r7, #4]
    7ef4:	f7ff ffc0 	bl	7e78 <__mpa_nibble_to_char>
    7ef8:	4603      	mov	r3, r0
/home/csx/share/gerrit/optee_os/lib/libmpa/mpa_io.c:130 (discriminator 3)
    7efa:	7023      	strb	r3, [r4, #0]
/home/csx/share/gerrit/optee_os/lib/libmpa/mpa_io.c:129 (discriminator 3)
    7efc:	697b      	ldr	r3, [r7, #20]
    7efe:	3b01      	subs	r3, #1
    7f00:	617b      	str	r3, [r7, #20]
/home/csx/share/gerrit/optee_os/lib/libmpa/mpa_io.c:129 (discriminator 1)
    7f02:	697b      	ldr	r3, [r7, #20]
    7f04:	2b00      	cmp	r3, #0
    7f06:	dce7      	bgt.n	7ed8 <__mpa_word_to_hexstr+0x18>
/home/csx/share/gerrit/optee_os/lib/libmpa/mpa_io.c:133
    7f08:	371c      	adds	r7, #28
    7f0a:	46bd      	mov	sp, r7
    7f0c:	e9dd 4700 	ldrd	r4, r7, [sp]
    7f10:	b002      	add	sp, #8
    7f12:	f85d fb04 	ldr.w	pc, [sp], #4
    7f16:	bf00      	nop

00007f18 <__mpa_mpanum_to_hexstr>:
__mpa_mpanum_to_hexstr():
/home/csx/share/gerrit/optee_os/lib/libmpa/mpa_io.c:141
    7f18:	e96d 7e02 	strd	r7, lr, [sp, #-8]!
    7f1c:	b08a      	sub	sp, #40	; 0x28
    7f1e:	af00      	add	r7, sp, #0
    7f20:	60f8      	str	r0, [r7, #12]
    7f22:	60b9      	str	r1, [r7, #8]
    7f24:	607a      	str	r2, [r7, #4]
/home/csx/share/gerrit/optee_os/lib/libmpa/mpa_io.c:149
    7f26:	687b      	ldr	r3, [r7, #4]
    7f28:	685b      	ldr	r3, [r3, #4]
    7f2a:	2b00      	cmp	r3, #0
    7f2c:	bfb8      	it	lt
    7f2e:	425b      	neglt	r3, r3
    7f30:	627b      	str	r3, [r7, #36]	; 0x24
/home/csx/share/gerrit/optee_os/lib/libmpa/mpa_io.c:150
    7f32:	6a7b      	ldr	r3, [r7, #36]	; 0x24
    7f34:	2b00      	cmp	r3, #0
    7f36:	d109      	bne.n	7f4c <__mpa_mpanum_to_hexstr+0x34>
/home/csx/share/gerrit/optee_os/lib/libmpa/mpa_io.c:151
    7f38:	68fb      	ldr	r3, [r7, #12]
    7f3a:	1c5a      	adds	r2, r3, #1
    7f3c:	60fa      	str	r2, [r7, #12]
    7f3e:	2230      	movs	r2, #48	; 0x30
    7f40:	701a      	strb	r2, [r3, #0]
/home/csx/share/gerrit/optee_os/lib/libmpa/mpa_io.c:152
    7f42:	68fb      	ldr	r3, [r7, #12]
    7f44:	2200      	movs	r2, #0
    7f46:	701a      	strb	r2, [r3, #0]
/home/csx/share/gerrit/optee_os/lib/libmpa/mpa_io.c:153
    7f48:	2301      	movs	r3, #1
    7f4a:	e062      	b.n	8012 <__mpa_mpanum_to_hexstr+0xfa>
/home/csx/share/gerrit/optee_os/lib/libmpa/mpa_io.c:155
    7f4c:	6a7b      	ldr	r3, [r7, #36]	; 0x24
    7f4e:	3b01      	subs	r3, #1
    7f50:	627b      	str	r3, [r7, #36]	; 0x24
/home/csx/share/gerrit/optee_os/lib/libmpa/mpa_io.c:157
    7f52:	68fb      	ldr	r3, [r7, #12]
    7f54:	61fb      	str	r3, [r7, #28]
/home/csx/share/gerrit/optee_os/lib/libmpa/mpa_io.c:161
    7f56:	687b      	ldr	r3, [r7, #4]
    7f58:	6a7a      	ldr	r2, [r7, #36]	; 0x24
    7f5a:	3202      	adds	r2, #2
    7f5c:	f853 3022 	ldr.w	r3, [r3, r2, lsl #2]
    7f60:	f107 0210 	add.w	r2, r7, #16
    7f64:	4610      	mov	r0, r2
    7f66:	4619      	mov	r1, r3
    7f68:	68ba      	ldr	r2, [r7, #8]
    7f6a:	f7ff ffa9 	bl	7ec0 <__mpa_word_to_hexstr>
/home/csx/share/gerrit/optee_os/lib/libmpa/mpa_io.c:164
    7f6e:	2308      	movs	r3, #8
    7f70:	623b      	str	r3, [r7, #32]
/home/csx/share/gerrit/optee_os/lib/libmpa/mpa_io.c:165
    7f72:	e007      	b.n	7f84 <__mpa_mpanum_to_hexstr+0x6c>
/home/csx/share/gerrit/optee_os/lib/libmpa/mpa_io.c:166
    7f74:	f107 0210 	add.w	r2, r7, #16
    7f78:	6a3b      	ldr	r3, [r7, #32]
    7f7a:	4413      	add	r3, r2
    7f7c:	781b      	ldrb	r3, [r3, #0]
    7f7e:	2b30      	cmp	r3, #48	; 0x30
    7f80:	d000      	beq.n	7f84 <__mpa_mpanum_to_hexstr+0x6c>
/home/csx/share/gerrit/optee_os/lib/libmpa/mpa_io.c:167
    7f82:	e004      	b.n	7f8e <__mpa_mpanum_to_hexstr+0x76>
/home/csx/share/gerrit/optee_os/lib/libmpa/mpa_io.c:165
    7f84:	6a3b      	ldr	r3, [r7, #32]
    7f86:	1e5a      	subs	r2, r3, #1
    7f88:	623a      	str	r2, [r7, #32]
    7f8a:	2b00      	cmp	r3, #0
    7f8c:	dcf2      	bgt.n	7f74 <__mpa_mpanum_to_hexstr+0x5c>
/home/csx/share/gerrit/optee_os/lib/libmpa/mpa_io.c:168 (discriminator 1)
    7f8e:	e00b      	b.n	7fa8 <__mpa_mpanum_to_hexstr+0x90>
/home/csx/share/gerrit/optee_os/lib/libmpa/mpa_io.c:169
    7f90:	68fb      	ldr	r3, [r7, #12]
    7f92:	1c5a      	adds	r2, r3, #1
    7f94:	60fa      	str	r2, [r7, #12]
    7f96:	6a3a      	ldr	r2, [r7, #32]
    7f98:	1e51      	subs	r1, r2, #1
    7f9a:	6239      	str	r1, [r7, #32]
    7f9c:	f107 0128 	add.w	r1, r7, #40	; 0x28
    7fa0:	440a      	add	r2, r1
    7fa2:	f812 2c18 	ldrb.w	r2, [r2, #-24]
    7fa6:	701a      	strb	r2, [r3, #0]
/home/csx/share/gerrit/optee_os/lib/libmpa/mpa_io.c:168
    7fa8:	6a3b      	ldr	r3, [r7, #32]
    7faa:	2b00      	cmp	r3, #0
    7fac:	daf0      	bge.n	7f90 <__mpa_mpanum_to_hexstr+0x78>
/home/csx/share/gerrit/optee_os/lib/libmpa/mpa_io.c:172
    7fae:	6a7b      	ldr	r3, [r7, #36]	; 0x24
    7fb0:	3b01      	subs	r3, #1
    7fb2:	627b      	str	r3, [r7, #36]	; 0x24
/home/csx/share/gerrit/optee_os/lib/libmpa/mpa_io.c:173
    7fb4:	e020      	b.n	7ff8 <__mpa_mpanum_to_hexstr+0xe0>
/home/csx/share/gerrit/optee_os/lib/libmpa/mpa_io.c:174
    7fb6:	687b      	ldr	r3, [r7, #4]
    7fb8:	6a7a      	ldr	r2, [r7, #36]	; 0x24
    7fba:	3202      	adds	r2, #2
    7fbc:	f853 3022 	ldr.w	r3, [r3, r2, lsl #2]
    7fc0:	f107 0210 	add.w	r2, r7, #16
    7fc4:	4610      	mov	r0, r2
    7fc6:	4619      	mov	r1, r3
    7fc8:	68ba      	ldr	r2, [r7, #8]
    7fca:	f7ff ff79 	bl	7ec0 <__mpa_word_to_hexstr>
/home/csx/share/gerrit/optee_os/lib/libmpa/mpa_io.c:175
    7fce:	2307      	movs	r3, #7
    7fd0:	623b      	str	r3, [r7, #32]
/home/csx/share/gerrit/optee_os/lib/libmpa/mpa_io.c:176
    7fd2:	e00b      	b.n	7fec <__mpa_mpanum_to_hexstr+0xd4>
/home/csx/share/gerrit/optee_os/lib/libmpa/mpa_io.c:177
    7fd4:	68fb      	ldr	r3, [r7, #12]
    7fd6:	1c5a      	adds	r2, r3, #1
    7fd8:	60fa      	str	r2, [r7, #12]
    7fda:	6a3a      	ldr	r2, [r7, #32]
    7fdc:	1e51      	subs	r1, r2, #1
    7fde:	6239      	str	r1, [r7, #32]
    7fe0:	f107 0128 	add.w	r1, r7, #40	; 0x28
    7fe4:	440a      	add	r2, r1
    7fe6:	f812 2c18 	ldrb.w	r2, [r2, #-24]
    7fea:	701a      	strb	r2, [r3, #0]
/home/csx/share/gerrit/optee_os/lib/libmpa/mpa_io.c:176
    7fec:	6a3b      	ldr	r3, [r7, #32]
    7fee:	2b00      	cmp	r3, #0
    7ff0:	daf0      	bge.n	7fd4 <__mpa_mpanum_to_hexstr+0xbc>
/home/csx/share/gerrit/optee_os/lib/libmpa/mpa_io.c:178
    7ff2:	6a7b      	ldr	r3, [r7, #36]	; 0x24
    7ff4:	3b01      	subs	r3, #1
    7ff6:	627b      	str	r3, [r7, #36]	; 0x24
/home/csx/share/gerrit/optee_os/lib/libmpa/mpa_io.c:173
    7ff8:	6a7b      	ldr	r3, [r7, #36]	; 0x24
    7ffa:	2b00      	cmp	r3, #0
    7ffc:	dadb      	bge.n	7fb6 <__mpa_mpanum_to_hexstr+0x9e>
/home/csx/share/gerrit/optee_os/lib/libmpa/mpa_io.c:180
    7ffe:	68fa      	ldr	r2, [r7, #12]
    8000:	69fb      	ldr	r3, [r7, #28]
    8002:	1ad3      	subs	r3, r2, r3
    8004:	61bb      	str	r3, [r7, #24]
/home/csx/share/gerrit/optee_os/lib/libmpa/mpa_io.c:181
    8006:	68fb      	ldr	r3, [r7, #12]
    8008:	1c5a      	adds	r2, r3, #1
    800a:	60fa      	str	r2, [r7, #12]
    800c:	2200      	movs	r2, #0
    800e:	701a      	strb	r2, [r3, #0]
/home/csx/share/gerrit/optee_os/lib/libmpa/mpa_io.c:182
    8010:	69bb      	ldr	r3, [r7, #24]
/home/csx/share/gerrit/optee_os/lib/libmpa/mpa_io.c:183 (discriminator 2)
    8012:	4618      	mov	r0, r3
    8014:	3728      	adds	r7, #40	; 0x28
    8016:	46bd      	mov	sp, r7
    8018:	bd80      	pop	{r7, pc}
    801a:	bf00      	nop

0000801c <__mpa_count_leading_zero_bits>:
__mpa_count_leading_zero_bits():
/home/csx/share/gerrit/optee_os/lib/libmpa/mpa_io.c:191
    801c:	f84d 7d04 	str.w	r7, [sp, #-4]!
    8020:	b085      	sub	sp, #20
    8022:	af00      	add	r7, sp, #0
    8024:	6078      	str	r0, [r7, #4]
/home/csx/share/gerrit/optee_os/lib/libmpa/mpa_io.c:195
    8026:	687b      	ldr	r3, [r7, #4]
    8028:	2b00      	cmp	r3, #0
    802a:	d101      	bne.n	8030 <__mpa_count_leading_zero_bits+0x14>
/home/csx/share/gerrit/optee_os/lib/libmpa/mpa_io.c:196
    802c:	2320      	movs	r3, #32
    802e:	e011      	b.n	8054 <__mpa_count_leading_zero_bits+0x38>
/home/csx/share/gerrit/optee_os/lib/libmpa/mpa_io.c:197
    8030:	f04f 4300 	mov.w	r3, #2147483648	; 0x80000000
    8034:	60fb      	str	r3, [r7, #12]
/home/csx/share/gerrit/optee_os/lib/libmpa/mpa_io.c:198
    8036:	2300      	movs	r3, #0
    8038:	60bb      	str	r3, [r7, #8]
/home/csx/share/gerrit/optee_os/lib/libmpa/mpa_io.c:199
    803a:	e005      	b.n	8048 <__mpa_count_leading_zero_bits+0x2c>
/home/csx/share/gerrit/optee_os/lib/libmpa/mpa_io.c:200
    803c:	68bb      	ldr	r3, [r7, #8]
    803e:	3301      	adds	r3, #1
    8040:	60bb      	str	r3, [r7, #8]
/home/csx/share/gerrit/optee_os/lib/libmpa/mpa_io.c:201
    8042:	68fb      	ldr	r3, [r7, #12]
    8044:	085b      	lsrs	r3, r3, #1
    8046:	60fb      	str	r3, [r7, #12]
/home/csx/share/gerrit/optee_os/lib/libmpa/mpa_io.c:199
    8048:	687a      	ldr	r2, [r7, #4]
    804a:	68fb      	ldr	r3, [r7, #12]
    804c:	4013      	ands	r3, r2
    804e:	2b00      	cmp	r3, #0
    8050:	d0f4      	beq.n	803c <__mpa_count_leading_zero_bits+0x20>
/home/csx/share/gerrit/optee_os/lib/libmpa/mpa_io.c:203
    8052:	68bb      	ldr	r3, [r7, #8]
/home/csx/share/gerrit/optee_os/lib/libmpa/mpa_io.c:204
    8054:	4618      	mov	r0, r3
    8056:	3714      	adds	r7, #20
    8058:	46bd      	mov	sp, r7
    805a:	f85d 7b04 	ldr.w	r7, [sp], #4
    805e:	4770      	bx	lr

00008060 <__mpa_size_in_base_255>:
__mpa_size_in_base_255():
/home/csx/share/gerrit/optee_os/lib/libmpa/mpa_io.c:212
    8060:	e96d 7e02 	strd	r7, lr, [sp, #-8]!
    8064:	b084      	sub	sp, #16
    8066:	af00      	add	r7, sp, #0
    8068:	6078      	str	r0, [r7, #4]
/home/csx/share/gerrit/optee_os/lib/libmpa/mpa_io.c:217
    806a:	687b      	ldr	r3, [r7, #4]
    806c:	685b      	ldr	r3, [r3, #4]
    806e:	2b00      	cmp	r3, #0
    8070:	d101      	bne.n	8076 <__mpa_size_in_base_255+0x16>
/home/csx/share/gerrit/optee_os/lib/libmpa/mpa_io.c:218
    8072:	2301      	movs	r3, #1
    8074:	e01a      	b.n	80ac <__mpa_size_in_base_255+0x4c>
/home/csx/share/gerrit/optee_os/lib/libmpa/mpa_io.c:221
    8076:	687b      	ldr	r3, [r7, #4]
    8078:	685b      	ldr	r3, [r3, #4]
    807a:	2b00      	cmp	r3, #0
    807c:	bfb8      	it	lt
    807e:	425b      	neglt	r3, r3
    8080:	1e5a      	subs	r2, r3, #1
/home/csx/share/gerrit/optee_os/lib/libmpa/mpa_io.c:220
    8082:	687b      	ldr	r3, [r7, #4]
    8084:	3202      	adds	r2, #2
    8086:	f853 3022 	ldr.w	r3, [r3, r2, lsl #2]
    808a:	4618      	mov	r0, r3
    808c:	f7ff ffc6 	bl	801c <__mpa_count_leading_zero_bits>
    8090:	60f8      	str	r0, [r7, #12]
/home/csx/share/gerrit/optee_os/lib/libmpa/mpa_io.c:222
    8092:	687b      	ldr	r3, [r7, #4]
    8094:	685b      	ldr	r3, [r3, #4]
    8096:	2b00      	cmp	r3, #0
    8098:	bfb8      	it	lt
    809a:	425b      	neglt	r3, r3
    809c:	015b      	lsls	r3, r3, #5
    809e:	461a      	mov	r2, r3
    80a0:	68fb      	ldr	r3, [r7, #12]
    80a2:	1ad3      	subs	r3, r2, r3
    80a4:	60bb      	str	r3, [r7, #8]
/home/csx/share/gerrit/optee_os/lib/libmpa/mpa_io.c:224
    80a6:	68bb      	ldr	r3, [r7, #8]
    80a8:	3307      	adds	r3, #7
    80aa:	08db      	lsrs	r3, r3, #3
/home/csx/share/gerrit/optee_os/lib/libmpa/mpa_io.c:225
    80ac:	4618      	mov	r0, r3
    80ae:	3710      	adds	r7, #16
    80b0:	46bd      	mov	sp, r7
    80b2:	bd80      	pop	{r7, pc}

000080b4 <mpa_get_str_size>:
mpa_get_str_size():
/home/csx/share/gerrit/optee_os/lib/libmpa/mpa_io.c:233
    80b4:	f84d 7d04 	str.w	r7, [sp, #-4]!
    80b8:	af00      	add	r7, sp, #0
/home/csx/share/gerrit/optee_os/lib/libmpa/mpa_io.c:234
    80ba:	f241 0302 	movw	r3, #4098	; 0x1002
/home/csx/share/gerrit/optee_os/lib/libmpa/mpa_io.c:235
    80be:	4618      	mov	r0, r3
    80c0:	46bd      	mov	sp, r7
    80c2:	f85d 7b04 	ldr.w	r7, [sp], #4
    80c6:	4770      	bx	lr

000080c8 <mpa_set_str>:
mpa_set_str():
/home/csx/share/gerrit/optee_os/lib/libmpa/mpa_io.c:259
    80c8:	f84d 4d0c 	str.w	r4, [sp, #-12]!
    80cc:	e9cd 7e01 	strd	r7, lr, [sp, #4]
    80d0:	b08b      	sub	sp, #44	; 0x2c
    80d2:	af00      	add	r7, sp, #0
    80d4:	6078      	str	r0, [r7, #4]
    80d6:	6039      	str	r1, [r7, #0]
/home/csx/share/gerrit/optee_os/lib/libmpa/mpa_io.c:278
    80d8:	683b      	ldr	r3, [r7, #0]
    80da:	781b      	ldrb	r3, [r3, #0]
    80dc:	2b00      	cmp	r3, #0
    80de:	d101      	bne.n	80e4 <mpa_set_str+0x1c>
/home/csx/share/gerrit/optee_os/lib/libmpa/mpa_io.c:279
    80e0:	2300      	movs	r3, #0
    80e2:	e12a      	b.n	833a <mpa_set_str+0x272>
/home/csx/share/gerrit/optee_os/lib/libmpa/mpa_io.c:283 (discriminator 1)
    80e4:	683b      	ldr	r3, [r7, #0]
    80e6:	1c5a      	adds	r2, r3, #1
    80e8:	603a      	str	r2, [r7, #0]
    80ea:	781b      	ldrb	r3, [r3, #0]
    80ec:	623b      	str	r3, [r7, #32]
/home/csx/share/gerrit/optee_os/lib/libmpa/mpa_io.c:284 (discriminator 1)
    80ee:	6a3b      	ldr	r3, [r7, #32]
    80f0:	b2db      	uxtb	r3, r3
    80f2:	4618      	mov	r0, r3
    80f4:	f7ff fe30 	bl	7d58 <__mpa_isspace>
    80f8:	4603      	mov	r3, r0
    80fa:	2b00      	cmp	r3, #0
    80fc:	d1f2      	bne.n	80e4 <mpa_set_str+0x1c>
/home/csx/share/gerrit/optee_os/lib/libmpa/mpa_io.c:287
    80fe:	2300      	movs	r3, #0
    8100:	627b      	str	r3, [r7, #36]	; 0x24
/home/csx/share/gerrit/optee_os/lib/libmpa/mpa_io.c:288
    8102:	6a3b      	ldr	r3, [r7, #32]
    8104:	2b2d      	cmp	r3, #45	; 0x2d
    8106:	d106      	bne.n	8116 <mpa_set_str+0x4e>
/home/csx/share/gerrit/optee_os/lib/libmpa/mpa_io.c:289
    8108:	2301      	movs	r3, #1
    810a:	627b      	str	r3, [r7, #36]	; 0x24
/home/csx/share/gerrit/optee_os/lib/libmpa/mpa_io.c:290
    810c:	683b      	ldr	r3, [r7, #0]
    810e:	1c5a      	adds	r2, r3, #1
    8110:	603a      	str	r2, [r7, #0]
    8112:	781b      	ldrb	r3, [r3, #0]
    8114:	623b      	str	r3, [r7, #32]
/home/csx/share/gerrit/optee_os/lib/libmpa/mpa_io.c:292
    8116:	6a3b      	ldr	r3, [r7, #32]
    8118:	2b00      	cmp	r3, #0
    811a:	d105      	bne.n	8128 <mpa_set_str+0x60>
/home/csx/share/gerrit/optee_os/lib/libmpa/mpa_io.c:293
    811c:	6878      	ldr	r0, [r7, #4]
    811e:	2100      	movs	r1, #0
    8120:	f7fd f80a 	bl	5138 <mpa_set_word>
/home/csx/share/gerrit/optee_os/lib/libmpa/mpa_io.c:294
    8124:	2300      	movs	r3, #0
    8126:	e108      	b.n	833a <mpa_set_str+0x272>
/home/csx/share/gerrit/optee_os/lib/libmpa/mpa_io.c:298
    8128:	6a3b      	ldr	r3, [r7, #32]
    812a:	2b30      	cmp	r3, #48	; 0x30
    812c:	d10f      	bne.n	814e <mpa_set_str+0x86>
/home/csx/share/gerrit/optee_os/lib/libmpa/mpa_io.c:299
    812e:	683b      	ldr	r3, [r7, #0]
    8130:	1c5a      	adds	r2, r3, #1
    8132:	603a      	str	r2, [r7, #0]
    8134:	781b      	ldrb	r3, [r3, #0]
    8136:	623b      	str	r3, [r7, #32]
/home/csx/share/gerrit/optee_os/lib/libmpa/mpa_io.c:300
    8138:	6a3b      	ldr	r3, [r7, #32]
    813a:	2b78      	cmp	r3, #120	; 0x78
    813c:	d002      	beq.n	8144 <mpa_set_str+0x7c>
/home/csx/share/gerrit/optee_os/lib/libmpa/mpa_io.c:300 (discriminator 1)
    813e:	6a3b      	ldr	r3, [r7, #32]
    8140:	2b58      	cmp	r3, #88	; 0x58
    8142:	d104      	bne.n	814e <mpa_set_str+0x86>
/home/csx/share/gerrit/optee_os/lib/libmpa/mpa_io.c:301
    8144:	683b      	ldr	r3, [r7, #0]
    8146:	1c5a      	adds	r2, r3, #1
    8148:	603a      	str	r2, [r7, #0]
    814a:	781b      	ldrb	r3, [r3, #0]
    814c:	623b      	str	r3, [r7, #32]
/home/csx/share/gerrit/optee_os/lib/libmpa/mpa_io.c:305
    814e:	e004      	b.n	815a <mpa_set_str+0x92>
/home/csx/share/gerrit/optee_os/lib/libmpa/mpa_io.c:306
    8150:	683b      	ldr	r3, [r7, #0]
    8152:	1c5a      	adds	r2, r3, #1
    8154:	603a      	str	r2, [r7, #0]
    8156:	781b      	ldrb	r3, [r3, #0]
    8158:	623b      	str	r3, [r7, #32]
/home/csx/share/gerrit/optee_os/lib/libmpa/mpa_io.c:305
    815a:	6a3b      	ldr	r3, [r7, #32]
    815c:	2b30      	cmp	r3, #48	; 0x30
    815e:	d0f7      	beq.n	8150 <mpa_set_str+0x88>
/home/csx/share/gerrit/optee_os/lib/libmpa/mpa_io.c:305 (discriminator 1)
    8160:	6a3b      	ldr	r3, [r7, #32]
    8162:	b2db      	uxtb	r3, r3
    8164:	4618      	mov	r0, r3
    8166:	f7ff fdf7 	bl	7d58 <__mpa_isspace>
    816a:	4603      	mov	r3, r0
    816c:	2b00      	cmp	r3, #0
    816e:	d1ef      	bne.n	8150 <mpa_set_str+0x88>
/home/csx/share/gerrit/optee_os/lib/libmpa/mpa_io.c:309
    8170:	6a3b      	ldr	r3, [r7, #32]
    8172:	2b00      	cmp	r3, #0
    8174:	d105      	bne.n	8182 <mpa_set_str+0xba>
/home/csx/share/gerrit/optee_os/lib/libmpa/mpa_io.c:310
    8176:	6878      	ldr	r0, [r7, #4]
    8178:	2100      	movs	r1, #0
    817a:	f7fc ffdd 	bl	5138 <mpa_set_word>
/home/csx/share/gerrit/optee_os/lib/libmpa/mpa_io.c:311
    817e:	2300      	movs	r3, #0
    8180:	e0db      	b.n	833a <mpa_set_str+0x272>
/home/csx/share/gerrit/optee_os/lib/libmpa/mpa_io.c:315
    8182:	683b      	ldr	r3, [r7, #0]
    8184:	61bb      	str	r3, [r7, #24]
/home/csx/share/gerrit/optee_os/lib/libmpa/mpa_io.c:316
    8186:	e002      	b.n	818e <mpa_set_str+0xc6>
/home/csx/share/gerrit/optee_os/lib/libmpa/mpa_io.c:317
    8188:	69bb      	ldr	r3, [r7, #24]
    818a:	3301      	adds	r3, #1
    818c:	61bb      	str	r3, [r7, #24]
/home/csx/share/gerrit/optee_os/lib/libmpa/mpa_io.c:316
    818e:	69bb      	ldr	r3, [r7, #24]
    8190:	781b      	ldrb	r3, [r3, #0]
    8192:	2b00      	cmp	r3, #0
    8194:	d1f8      	bne.n	8188 <mpa_set_str+0xc0>
/home/csx/share/gerrit/optee_os/lib/libmpa/mpa_io.c:320
    8196:	69ba      	ldr	r2, [r7, #24]
    8198:	683b      	ldr	r3, [r7, #0]
    819a:	1ad3      	subs	r3, r2, r3
    819c:	3301      	adds	r3, #1
    819e:	60bb      	str	r3, [r7, #8]
/home/csx/share/gerrit/optee_os/lib/libmpa/mpa_io.c:321
    81a0:	68bb      	ldr	r3, [r7, #8]
    81a2:	f241 0202 	movw	r2, #4098	; 0x1002
    81a6:	4293      	cmp	r3, r2
    81a8:	dd0b      	ble.n	81c2 <mpa_set_str+0xfa>
/home/csx/share/gerrit/optee_os/lib/libmpa/mpa_io.c:321 (discriminator 1)
    81aa:	4b68      	ldr	r3, [pc, #416]	; (834c <mpa_set_str+0x284>)
    81ac:	447b      	add	r3, pc
    81ae:	4618      	mov	r0, r3
    81b0:	4b67      	ldr	r3, [pc, #412]	; (8350 <mpa_set_str+0x288>)
    81b2:	447b      	add	r3, pc
    81b4:	4619      	mov	r1, r3
    81b6:	f240 1241 	movw	r2, #321	; 0x141
    81ba:	f7f9 f81d 	bl	11f8 <_assert_log>
    81be:	f7f9 f831 	bl	1224 <_assert_break>
/home/csx/share/gerrit/optee_os/lib/libmpa/mpa_io.c:323
    81c2:	2300      	movs	r3, #0
    81c4:	61fb      	str	r3, [r7, #28]
/home/csx/share/gerrit/optee_os/lib/libmpa/mpa_io.c:324
    81c6:	e017      	b.n	81f8 <mpa_set_str+0x130>
/home/csx/share/gerrit/optee_os/lib/libmpa/mpa_io.c:325
    81c8:	6a3b      	ldr	r3, [r7, #32]
    81ca:	b2db      	uxtb	r3, r3
    81cc:	4618      	mov	r0, r3
    81ce:	f7ff fdc3 	bl	7d58 <__mpa_isspace>
    81d2:	4603      	mov	r3, r0
    81d4:	2b00      	cmp	r3, #0
    81d6:	d10a      	bne.n	81ee <mpa_set_str+0x126>
/home/csx/share/gerrit/optee_os/lib/libmpa/mpa_io.c:326
    81d8:	69fc      	ldr	r4, [r7, #28]
    81da:	1c63      	adds	r3, r4, #1
    81dc:	61fb      	str	r3, [r7, #28]
    81de:	6a38      	ldr	r0, [r7, #32]
    81e0:	f7ff fe14 	bl	7e0c <__mpa_digit_value>
    81e4:	4603      	mov	r3, r0
    81e6:	b2da      	uxtb	r2, r3
    81e8:	4b5a      	ldr	r3, [pc, #360]	; (8354 <mpa_set_str+0x28c>)
    81ea:	447b      	add	r3, pc
    81ec:	551a      	strb	r2, [r3, r4]
/home/csx/share/gerrit/optee_os/lib/libmpa/mpa_io.c:327
    81ee:	683b      	ldr	r3, [r7, #0]
    81f0:	1c5a      	adds	r2, r3, #1
    81f2:	603a      	str	r2, [r7, #0]
    81f4:	781b      	ldrb	r3, [r3, #0]
    81f6:	623b      	str	r3, [r7, #32]
/home/csx/share/gerrit/optee_os/lib/libmpa/mpa_io.c:324
    81f8:	2010      	movs	r0, #16
    81fa:	6a39      	ldr	r1, [r7, #32]
    81fc:	f7ff fdca 	bl	7d94 <__mpa_is_char_in_base>
    8200:	4603      	mov	r3, r0
    8202:	2b00      	cmp	r3, #0
    8204:	d1e0      	bne.n	81c8 <mpa_set_str+0x100>
/home/csx/share/gerrit/optee_os/lib/libmpa/mpa_io.c:330
    8206:	69fb      	ldr	r3, [r7, #28]
    8208:	2b00      	cmp	r3, #0
    820a:	d103      	bne.n	8214 <mpa_set_str+0x14c>
/home/csx/share/gerrit/optee_os/lib/libmpa/mpa_io.c:331
    820c:	f04f 33ff 	mov.w	r3, #4294967295	; 0xffffffff
    8210:	617b      	str	r3, [r7, #20]
/home/csx/share/gerrit/optee_os/lib/libmpa/mpa_io.c:332
    8212:	e091      	b.n	8338 <mpa_set_str+0x270>
/home/csx/share/gerrit/optee_os/lib/libmpa/mpa_io.c:335
    8214:	69f8      	ldr	r0, [r7, #28]
    8216:	f7ff fe21 	bl	7e5c <__mpa_digitstr_to_binary_wsize_base_16>
    821a:	4602      	mov	r2, r0
    821c:	687b      	ldr	r3, [r7, #4]
    821e:	681b      	ldr	r3, [r3, #0]
    8220:	429a      	cmp	r2, r3
    8222:	d90b      	bls.n	823c <mpa_set_str+0x174>
/home/csx/share/gerrit/optee_os/lib/libmpa/mpa_io.c:335 (discriminator 1)
    8224:	4b4c      	ldr	r3, [pc, #304]	; (8358 <mpa_set_str+0x290>)
    8226:	447b      	add	r3, pc
    8228:	4618      	mov	r0, r3
    822a:	4b4c      	ldr	r3, [pc, #304]	; (835c <mpa_set_str+0x294>)
    822c:	447b      	add	r3, pc
    822e:	4619      	mov	r1, r3
    8230:	f44f 72a8 	mov.w	r2, #336	; 0x150
    8234:	f7f8 ffe0 	bl	11f8 <_assert_log>
    8238:	f7f8 fff4 	bl	1224 <_assert_break>
/home/csx/share/gerrit/optee_os/lib/libmpa/mpa_io.c:338
    823c:	69fb      	ldr	r3, [r7, #28]
    823e:	617b      	str	r3, [r7, #20]
/home/csx/share/gerrit/optee_os/lib/libmpa/mpa_io.c:339
    8240:	687b      	ldr	r3, [r7, #4]
    8242:	3308      	adds	r3, #8
    8244:	613b      	str	r3, [r7, #16]
/home/csx/share/gerrit/optee_os/lib/libmpa/mpa_io.c:340
    8246:	6878      	ldr	r0, [r7, #4]
    8248:	2100      	movs	r1, #0
    824a:	f7fc ff75 	bl	5138 <mpa_set_word>
/home/csx/share/gerrit/optee_os/lib/libmpa/mpa_io.c:342
    824e:	693b      	ldr	r3, [r7, #16]
    8250:	2200      	movs	r2, #0
    8252:	601a      	str	r2, [r3, #0]
/home/csx/share/gerrit/optee_os/lib/libmpa/mpa_io.c:343
    8254:	2304      	movs	r3, #4
    8256:	60fb      	str	r3, [r7, #12]
/home/csx/share/gerrit/optee_os/lib/libmpa/mpa_io.c:344
    8258:	687b      	ldr	r3, [r7, #4]
    825a:	2201      	movs	r2, #1
    825c:	605a      	str	r2, [r3, #4]
/home/csx/share/gerrit/optee_os/lib/libmpa/mpa_io.c:345
    825e:	69fb      	ldr	r3, [r7, #28]
    8260:	3b01      	subs	r3, #1
    8262:	61fb      	str	r3, [r7, #28]
/home/csx/share/gerrit/optee_os/lib/libmpa/mpa_io.c:346
    8264:	e02d      	b.n	82c2 <mpa_set_str+0x1fa>
/home/csx/share/gerrit/optee_os/lib/libmpa/mpa_io.c:347
    8266:	693b      	ldr	r3, [r7, #16]
    8268:	681b      	ldr	r3, [r3, #0]
/home/csx/share/gerrit/optee_os/lib/libmpa/mpa_io.c:348
    826a:	69fa      	ldr	r2, [r7, #28]
    826c:	3a01      	subs	r2, #1
    826e:	493c      	ldr	r1, [pc, #240]	; (8360 <mpa_set_str+0x298>)
    8270:	4479      	add	r1, pc
    8272:	5c8a      	ldrb	r2, [r1, r2]
    8274:	0112      	lsls	r2, r2, #4
    8276:	493b      	ldr	r1, [pc, #236]	; (8364 <mpa_set_str+0x29c>)
    8278:	4479      	add	r1, pc
    827a:	4608      	mov	r0, r1
    827c:	69f9      	ldr	r1, [r7, #28]
    827e:	4401      	add	r1, r0
    8280:	7809      	ldrb	r1, [r1, #0]
    8282:	4051      	eors	r1, r2
/home/csx/share/gerrit/optee_os/lib/libmpa/mpa_io.c:349
    8284:	68fa      	ldr	r2, [r7, #12]
    8286:	f1c2 0204 	rsb	r2, r2, #4
    828a:	00d2      	lsls	r2, r2, #3
/home/csx/share/gerrit/optee_os/lib/libmpa/mpa_io.c:348
    828c:	fa01 f202 	lsl.w	r2, r1, r2
/home/csx/share/gerrit/optee_os/lib/libmpa/mpa_io.c:347
    8290:	405a      	eors	r2, r3
    8292:	693b      	ldr	r3, [r7, #16]
    8294:	601a      	str	r2, [r3, #0]
/home/csx/share/gerrit/optee_os/lib/libmpa/mpa_io.c:350
    8296:	68fb      	ldr	r3, [r7, #12]
    8298:	3b01      	subs	r3, #1
    829a:	60fb      	str	r3, [r7, #12]
/home/csx/share/gerrit/optee_os/lib/libmpa/mpa_io.c:351
    829c:	69fb      	ldr	r3, [r7, #28]
    829e:	3b02      	subs	r3, #2
    82a0:	61fb      	str	r3, [r7, #28]
/home/csx/share/gerrit/optee_os/lib/libmpa/mpa_io.c:352
    82a2:	68fb      	ldr	r3, [r7, #12]
    82a4:	2b00      	cmp	r3, #0
    82a6:	d10c      	bne.n	82c2 <mpa_set_str+0x1fa>
/home/csx/share/gerrit/optee_os/lib/libmpa/mpa_io.c:353
    82a8:	693b      	ldr	r3, [r7, #16]
    82aa:	3304      	adds	r3, #4
    82ac:	613b      	str	r3, [r7, #16]
/home/csx/share/gerrit/optee_os/lib/libmpa/mpa_io.c:354
    82ae:	693b      	ldr	r3, [r7, #16]
    82b0:	2200      	movs	r2, #0
    82b2:	601a      	str	r2, [r3, #0]
/home/csx/share/gerrit/optee_os/lib/libmpa/mpa_io.c:355
    82b4:	2304      	movs	r3, #4
    82b6:	60fb      	str	r3, [r7, #12]
/home/csx/share/gerrit/optee_os/lib/libmpa/mpa_io.c:356
    82b8:	687b      	ldr	r3, [r7, #4]
    82ba:	685b      	ldr	r3, [r3, #4]
    82bc:	1c5a      	adds	r2, r3, #1
    82be:	687b      	ldr	r3, [r7, #4]
    82c0:	605a      	str	r2, [r3, #4]
/home/csx/share/gerrit/optee_os/lib/libmpa/mpa_io.c:346
    82c2:	69fb      	ldr	r3, [r7, #28]
    82c4:	2b01      	cmp	r3, #1
    82c6:	dcce      	bgt.n	8266 <mpa_set_str+0x19e>
/home/csx/share/gerrit/optee_os/lib/libmpa/mpa_io.c:359
    82c8:	69fb      	ldr	r3, [r7, #28]
    82ca:	2b01      	cmp	r3, #1
    82cc:	d117      	bne.n	82fe <mpa_set_str+0x236>
/home/csx/share/gerrit/optee_os/lib/libmpa/mpa_io.c:360
    82ce:	693b      	ldr	r3, [r7, #16]
    82d0:	681b      	ldr	r3, [r3, #0]
/home/csx/share/gerrit/optee_os/lib/libmpa/mpa_io.c:361
    82d2:	69fa      	ldr	r2, [r7, #28]
    82d4:	3a01      	subs	r2, #1
    82d6:	4924      	ldr	r1, [pc, #144]	; (8368 <mpa_set_str+0x2a0>)
    82d8:	4479      	add	r1, pc
    82da:	5c8a      	ldrb	r2, [r1, r2]
    82dc:	0112      	lsls	r2, r2, #4
    82de:	4923      	ldr	r1, [pc, #140]	; (836c <mpa_set_str+0x2a4>)
    82e0:	4479      	add	r1, pc
    82e2:	4608      	mov	r0, r1
    82e4:	69f9      	ldr	r1, [r7, #28]
    82e6:	4401      	add	r1, r0
    82e8:	7809      	ldrb	r1, [r1, #0]
    82ea:	4051      	eors	r1, r2
/home/csx/share/gerrit/optee_os/lib/libmpa/mpa_io.c:362
    82ec:	68fa      	ldr	r2, [r7, #12]
    82ee:	f1c2 0204 	rsb	r2, r2, #4
    82f2:	00d2      	lsls	r2, r2, #3
/home/csx/share/gerrit/optee_os/lib/libmpa/mpa_io.c:361
    82f4:	fa01 f202 	lsl.w	r2, r1, r2
/home/csx/share/gerrit/optee_os/lib/libmpa/mpa_io.c:360
    82f8:	405a      	eors	r2, r3
    82fa:	693b      	ldr	r3, [r7, #16]
    82fc:	601a      	str	r2, [r3, #0]
/home/csx/share/gerrit/optee_os/lib/libmpa/mpa_io.c:363
    82fe:	69fb      	ldr	r3, [r7, #28]
    8300:	2b00      	cmp	r3, #0
    8302:	d111      	bne.n	8328 <mpa_set_str+0x260>
/home/csx/share/gerrit/optee_os/lib/libmpa/mpa_io.c:364
    8304:	693b      	ldr	r3, [r7, #16]
    8306:	681b      	ldr	r3, [r3, #0]
    8308:	4a19      	ldr	r2, [pc, #100]	; (8370 <mpa_set_str+0x2a8>)
    830a:	447a      	add	r2, pc
    830c:	4611      	mov	r1, r2
    830e:	69fa      	ldr	r2, [r7, #28]
    8310:	440a      	add	r2, r1
    8312:	7812      	ldrb	r2, [r2, #0]
    8314:	4611      	mov	r1, r2
    8316:	68fa      	ldr	r2, [r7, #12]
    8318:	f1c2 0204 	rsb	r2, r2, #4
    831c:	00d2      	lsls	r2, r2, #3
    831e:	fa01 f202 	lsl.w	r2, r1, r2
    8322:	405a      	eors	r2, r3
    8324:	693b      	ldr	r3, [r7, #16]
    8326:	601a      	str	r2, [r3, #0]
/home/csx/share/gerrit/optee_os/lib/libmpa/mpa_io.c:366
    8328:	6a7b      	ldr	r3, [r7, #36]	; 0x24
    832a:	2b00      	cmp	r3, #0
    832c:	d004      	beq.n	8338 <mpa_set_str+0x270>
/home/csx/share/gerrit/optee_os/lib/libmpa/mpa_io.c:367
    832e:	687b      	ldr	r3, [r7, #4]
    8330:	685b      	ldr	r3, [r3, #4]
    8332:	425a      	negs	r2, r3
    8334:	687b      	ldr	r3, [r7, #4]
    8336:	605a      	str	r2, [r3, #4]
/home/csx/share/gerrit/optee_os/lib/libmpa/mpa_io.c:370
    8338:	697b      	ldr	r3, [r7, #20]
/home/csx/share/gerrit/optee_os/lib/libmpa/mpa_io.c:371
    833a:	4618      	mov	r0, r3
    833c:	372c      	adds	r7, #44	; 0x2c
    833e:	46bd      	mov	sp, r7
    8340:	e9dd 4700 	ldrd	r4, r7, [sp]
    8344:	b002      	add	sp, #8
    8346:	f85d fb04 	ldr.w	pc, [sp], #4
    834a:	bf00      	nop
    834c:	00001ac0 	.word	0x00001ac0
    8350:	00001ad6 	.word	0x00001ad6
    8354:	0000ca0e 	.word	0x0000ca0e
    8358:	00001a76 	.word	0x00001a76
    835c:	00001a5c 	.word	0x00001a5c
    8360:	0000c988 	.word	0x0000c988
    8364:	0000c980 	.word	0x0000c980
    8368:	0000c920 	.word	0x0000c920
    836c:	0000c918 	.word	0x0000c918
    8370:	0000c8ee 	.word	0x0000c8ee

00008374 <mpa_get_str>:
mpa_get_str():
/home/csx/share/gerrit/optee_os/lib/libmpa/mpa_io.c:387
    8374:	e96d 7e02 	strd	r7, lr, [sp, #-8]!
    8378:	b086      	sub	sp, #24
    837a:	af00      	add	r7, sp, #0
    837c:	60f8      	str	r0, [r7, #12]
    837e:	60b9      	str	r1, [r7, #8]
    8380:	607a      	str	r2, [r7, #4]
/home/csx/share/gerrit/optee_os/lib/libmpa/mpa_io.c:388
    8382:	68fb      	ldr	r3, [r7, #12]
    8384:	617b      	str	r3, [r7, #20]
/home/csx/share/gerrit/optee_os/lib/libmpa/mpa_io.c:390
    8386:	68fb      	ldr	r3, [r7, #12]
    8388:	2b00      	cmp	r3, #0
    838a:	d10b      	bne.n	83a4 <mpa_get_str+0x30>
/home/csx/share/gerrit/optee_os/lib/libmpa/mpa_io.c:390 (discriminator 1)
    838c:	4b17      	ldr	r3, [pc, #92]	; (83ec <mpa_get_str+0x78>)
    838e:	447b      	add	r3, pc
    8390:	4618      	mov	r0, r3
    8392:	4b17      	ldr	r3, [pc, #92]	; (83f0 <mpa_get_str+0x7c>)
    8394:	447b      	add	r3, pc
    8396:	4619      	mov	r1, r3
    8398:	f44f 72c3 	mov.w	r2, #390	; 0x186
    839c:	f7f8 ff2c 	bl	11f8 <_assert_log>
    83a0:	f7f8 ff40 	bl	1224 <_assert_break>
/home/csx/share/gerrit/optee_os/lib/libmpa/mpa_io.c:393
    83a4:	687b      	ldr	r3, [r7, #4]
    83a6:	685b      	ldr	r3, [r3, #4]
    83a8:	2b00      	cmp	r3, #0
    83aa:	da05      	bge.n	83b8 <mpa_get_str+0x44>
/home/csx/share/gerrit/optee_os/lib/libmpa/mpa_io.c:394
    83ac:	697b      	ldr	r3, [r7, #20]
    83ae:	222d      	movs	r2, #45	; 0x2d
    83b0:	701a      	strb	r2, [r3, #0]
/home/csx/share/gerrit/optee_os/lib/libmpa/mpa_io.c:395
    83b2:	697b      	ldr	r3, [r7, #20]
    83b4:	3301      	adds	r3, #1
    83b6:	617b      	str	r3, [r7, #20]
/home/csx/share/gerrit/optee_os/lib/libmpa/mpa_io.c:397
    83b8:	68bb      	ldr	r3, [r7, #8]
    83ba:	2b10      	cmp	r3, #16
    83bc:	d002      	beq.n	83c4 <mpa_get_str+0x50>
    83be:	2b11      	cmp	r3, #17
    83c0:	d006      	beq.n	83d0 <mpa_get_str+0x5c>
    83c2:	e00b      	b.n	83dc <mpa_get_str+0x68>
/home/csx/share/gerrit/optee_os/lib/libmpa/mpa_io.c:399
    83c4:	6978      	ldr	r0, [r7, #20]
    83c6:	2100      	movs	r1, #0
    83c8:	687a      	ldr	r2, [r7, #4]
    83ca:	f7ff fda5 	bl	7f18 <__mpa_mpanum_to_hexstr>
/home/csx/share/gerrit/optee_os/lib/libmpa/mpa_io.c:400
    83ce:	e007      	b.n	83e0 <mpa_get_str+0x6c>
/home/csx/share/gerrit/optee_os/lib/libmpa/mpa_io.c:402
    83d0:	6978      	ldr	r0, [r7, #20]
    83d2:	2101      	movs	r1, #1
    83d4:	687a      	ldr	r2, [r7, #4]
    83d6:	f7ff fd9f 	bl	7f18 <__mpa_mpanum_to_hexstr>
/home/csx/share/gerrit/optee_os/lib/libmpa/mpa_io.c:403
    83da:	e001      	b.n	83e0 <mpa_get_str+0x6c>
/home/csx/share/gerrit/optee_os/lib/libmpa/mpa_io.c:405
    83dc:	2300      	movs	r3, #0
    83de:	e000      	b.n	83e2 <mpa_get_str+0x6e>
/home/csx/share/gerrit/optee_os/lib/libmpa/mpa_io.c:408
    83e0:	68fb      	ldr	r3, [r7, #12]
/home/csx/share/gerrit/optee_os/lib/libmpa/mpa_io.c:409
    83e2:	4618      	mov	r0, r3
    83e4:	3718      	adds	r7, #24
    83e6:	46bd      	mov	sp, r7
    83e8:	bd80      	pop	{r7, pc}
    83ea:	bf00      	nop
    83ec:	0000195a 	.word	0x0000195a
    83f0:	000018f4 	.word	0x000018f4

000083f4 <set_word>:
set_word():
/home/csx/share/gerrit/optee_os/lib/libmpa/mpa_io.c:414
    83f4:	f84d 7d04 	str.w	r7, [sp, #-4]!
    83f8:	b085      	sub	sp, #20
    83fa:	af00      	add	r7, sp, #0
    83fc:	6078      	str	r0, [r7, #4]
    83fe:	6039      	str	r1, [r7, #0]
/home/csx/share/gerrit/optee_os/lib/libmpa/mpa_io.c:418
    8400:	2300      	movs	r3, #0
    8402:	60bb      	str	r3, [r7, #8]
/home/csx/share/gerrit/optee_os/lib/libmpa/mpa_io.c:419
    8404:	683b      	ldr	r3, [r7, #0]
    8406:	3b01      	subs	r3, #1
    8408:	60fb      	str	r3, [r7, #12]
    840a:	e014      	b.n	8436 <set_word+0x42>
/home/csx/share/gerrit/optee_os/lib/libmpa/mpa_io.c:420 (discriminator 3)
    840c:	68fb      	ldr	r3, [r7, #12]
    840e:	687a      	ldr	r2, [r7, #4]
    8410:	4413      	add	r3, r2
    8412:	781b      	ldrb	r3, [r3, #0]
    8414:	4619      	mov	r1, r3
    8416:	68fb      	ldr	r3, [r7, #12]
    8418:	683a      	ldr	r2, [r7, #0]
    841a:	1ad3      	subs	r3, r2, r3
    841c:	f103 5300 	add.w	r3, r3, #536870912	; 0x20000000
    8420:	3b01      	subs	r3, #1
    8422:	00db      	lsls	r3, r3, #3
    8424:	fa01 f303 	lsl.w	r3, r1, r3
    8428:	461a      	mov	r2, r3
    842a:	68bb      	ldr	r3, [r7, #8]
    842c:	4313      	orrs	r3, r2
    842e:	60bb      	str	r3, [r7, #8]
/home/csx/share/gerrit/optee_os/lib/libmpa/mpa_io.c:419 (discriminator 3)
    8430:	68fb      	ldr	r3, [r7, #12]
    8432:	3b01      	subs	r3, #1
    8434:	60fb      	str	r3, [r7, #12]
/home/csx/share/gerrit/optee_os/lib/libmpa/mpa_io.c:419 (discriminator 1)
    8436:	68fb      	ldr	r3, [r7, #12]
    8438:	2b00      	cmp	r3, #0
    843a:	dae7      	bge.n	840c <set_word+0x18>
/home/csx/share/gerrit/optee_os/lib/libmpa/mpa_io.c:421
    843c:	68bb      	ldr	r3, [r7, #8]
/home/csx/share/gerrit/optee_os/lib/libmpa/mpa_io.c:422
    843e:	4618      	mov	r0, r3
    8440:	3714      	adds	r7, #20
    8442:	46bd      	mov	sp, r7
    8444:	f85d 7b04 	ldr.w	r7, [sp], #4
    8448:	4770      	bx	lr
    844a:	bf00      	nop

0000844c <mpa_set_oct_str>:
mpa_set_oct_str():
/home/csx/share/gerrit/optee_os/lib/libmpa/mpa_io.c:426
    844c:	e96d 7e02 	strd	r7, lr, [sp, #-8]!
    8450:	b088      	sub	sp, #32
    8452:	af00      	add	r7, sp, #0
    8454:	60f8      	str	r0, [r7, #12]
    8456:	60b9      	str	r1, [r7, #8]
    8458:	607a      	str	r2, [r7, #4]
    845a:	70fb      	strb	r3, [r7, #3]
/home/csx/share/gerrit/optee_os/lib/libmpa/mpa_io.c:427
    845c:	68bb      	ldr	r3, [r7, #8]
    845e:	61fb      	str	r3, [r7, #28]
/home/csx/share/gerrit/optee_os/lib/libmpa/mpa_io.c:428
    8460:	687b      	ldr	r3, [r7, #4]
    8462:	61bb      	str	r3, [r7, #24]
/home/csx/share/gerrit/optee_os/lib/libmpa/mpa_io.c:432
    8464:	e00a      	b.n	847c <mpa_set_oct_str+0x30>
/home/csx/share/gerrit/optee_os/lib/libmpa/mpa_io.c:433
    8466:	69fb      	ldr	r3, [r7, #28]
    8468:	781b      	ldrb	r3, [r3, #0]
    846a:	2b00      	cmp	r3, #0
    846c:	d000      	beq.n	8470 <mpa_set_oct_str+0x24>
/home/csx/share/gerrit/optee_os/lib/libmpa/mpa_io.c:434
    846e:	e008      	b.n	8482 <mpa_set_oct_str+0x36>
/home/csx/share/gerrit/optee_os/lib/libmpa/mpa_io.c:435
    8470:	69bb      	ldr	r3, [r7, #24]
    8472:	3b01      	subs	r3, #1
    8474:	61bb      	str	r3, [r7, #24]
/home/csx/share/gerrit/optee_os/lib/libmpa/mpa_io.c:436
    8476:	69fb      	ldr	r3, [r7, #28]
    8478:	3301      	adds	r3, #1
    847a:	61fb      	str	r3, [r7, #28]
/home/csx/share/gerrit/optee_os/lib/libmpa/mpa_io.c:432
    847c:	69bb      	ldr	r3, [r7, #24]
    847e:	2b00      	cmp	r3, #0
    8480:	dcf1      	bgt.n	8466 <mpa_set_oct_str+0x1a>
/home/csx/share/gerrit/optee_os/lib/libmpa/mpa_io.c:439
    8482:	69bb      	ldr	r3, [r7, #24]
    8484:	2b00      	cmp	r3, #0
    8486:	d105      	bne.n	8494 <mpa_set_oct_str+0x48>
/home/csx/share/gerrit/optee_os/lib/libmpa/mpa_io.c:440
    8488:	68f8      	ldr	r0, [r7, #12]
    848a:	2100      	movs	r1, #0
    848c:	f7fc fe54 	bl	5138 <mpa_set_word>
/home/csx/share/gerrit/optee_os/lib/libmpa/mpa_io.c:441
    8490:	2300      	movs	r3, #0
    8492:	e03d      	b.n	8510 <mpa_set_oct_str+0xc4>
/home/csx/share/gerrit/optee_os/lib/libmpa/mpa_io.c:449
    8494:	69bb      	ldr	r3, [r7, #24]
    8496:	3b01      	subs	r3, #1
    8498:	461a      	mov	r2, r3
    849a:	68fb      	ldr	r3, [r7, #12]
    849c:	681b      	ldr	r3, [r3, #0]
    849e:	009b      	lsls	r3, r3, #2
    84a0:	429a      	cmp	r2, r3
    84a2:	d902      	bls.n	84aa <mpa_set_oct_str+0x5e>
/home/csx/share/gerrit/optee_os/lib/libmpa/mpa_io.c:450
    84a4:	f04f 33ff 	mov.w	r3, #4294967295	; 0xffffffff
    84a8:	e032      	b.n	8510 <mpa_set_oct_str+0xc4>
/home/csx/share/gerrit/optee_os/lib/libmpa/mpa_io.c:452
    84aa:	68fb      	ldr	r3, [r7, #12]
    84ac:	3308      	adds	r3, #8
    84ae:	617b      	str	r3, [r7, #20]
/home/csx/share/gerrit/optee_os/lib/libmpa/mpa_io.c:453
    84b0:	68f8      	ldr	r0, [r7, #12]
    84b2:	2100      	movs	r1, #0
    84b4:	f7fc fe40 	bl	5138 <mpa_set_word>
/home/csx/share/gerrit/optee_os/lib/libmpa/mpa_io.c:455
    84b8:	68fb      	ldr	r3, [r7, #12]
    84ba:	2200      	movs	r2, #0
    84bc:	605a      	str	r2, [r3, #4]
/home/csx/share/gerrit/optee_os/lib/libmpa/mpa_io.c:456
    84be:	e01b      	b.n	84f8 <mpa_set_oct_str+0xac>
/home/csx/share/gerrit/optee_os/lib/libmpa/mpa_io.c:457
    84c0:	69bb      	ldr	r3, [r7, #24]
    84c2:	2b04      	cmp	r3, #4
    84c4:	bfa8      	it	ge
    84c6:	2304      	movge	r3, #4
    84c8:	613b      	str	r3, [r7, #16]
/home/csx/share/gerrit/optee_os/lib/libmpa/mpa_io.c:459
    84ca:	69ba      	ldr	r2, [r7, #24]
    84cc:	693b      	ldr	r3, [r7, #16]
    84ce:	1ad3      	subs	r3, r2, r3
    84d0:	61bb      	str	r3, [r7, #24]
/home/csx/share/gerrit/optee_os/lib/libmpa/mpa_io.c:460
    84d2:	69bb      	ldr	r3, [r7, #24]
    84d4:	69fa      	ldr	r2, [r7, #28]
    84d6:	441a      	add	r2, r3
    84d8:	693b      	ldr	r3, [r7, #16]
    84da:	4610      	mov	r0, r2
    84dc:	4619      	mov	r1, r3
    84de:	f7ff ff89 	bl	83f4 <set_word>
    84e2:	4602      	mov	r2, r0
    84e4:	697b      	ldr	r3, [r7, #20]
    84e6:	601a      	str	r2, [r3, #0]
/home/csx/share/gerrit/optee_os/lib/libmpa/mpa_io.c:461
    84e8:	697b      	ldr	r3, [r7, #20]
    84ea:	3304      	adds	r3, #4
    84ec:	617b      	str	r3, [r7, #20]
/home/csx/share/gerrit/optee_os/lib/libmpa/mpa_io.c:462
    84ee:	68fb      	ldr	r3, [r7, #12]
    84f0:	685b      	ldr	r3, [r3, #4]
    84f2:	1c5a      	adds	r2, r3, #1
    84f4:	68fb      	ldr	r3, [r7, #12]
    84f6:	605a      	str	r2, [r3, #4]
/home/csx/share/gerrit/optee_os/lib/libmpa/mpa_io.c:456
    84f8:	69bb      	ldr	r3, [r7, #24]
    84fa:	2b00      	cmp	r3, #0
    84fc:	dce0      	bgt.n	84c0 <mpa_set_oct_str+0x74>
/home/csx/share/gerrit/optee_os/lib/libmpa/mpa_io.c:465
    84fe:	78fb      	ldrb	r3, [r7, #3]
    8500:	2b00      	cmp	r3, #0
    8502:	d004      	beq.n	850e <mpa_set_oct_str+0xc2>
/home/csx/share/gerrit/optee_os/lib/libmpa/mpa_io.c:466
    8504:	68fb      	ldr	r3, [r7, #12]
    8506:	685b      	ldr	r3, [r3, #4]
    8508:	425a      	negs	r2, r3
    850a:	68fb      	ldr	r3, [r7, #12]
    850c:	605a      	str	r2, [r3, #4]
/home/csx/share/gerrit/optee_os/lib/libmpa/mpa_io.c:468
    850e:	2300      	movs	r3, #0
/home/csx/share/gerrit/optee_os/lib/libmpa/mpa_io.c:469
    8510:	4618      	mov	r0, r3
    8512:	3720      	adds	r7, #32
    8514:	46bd      	mov	sp, r7
    8516:	bd80      	pop	{r7, pc}

00008518 <get_word>:
get_word():
/home/csx/share/gerrit/optee_os/lib/libmpa/mpa_io.c:472
    8518:	f84d 7d04 	str.w	r7, [sp, #-4]!
    851c:	b085      	sub	sp, #20
    851e:	af00      	add	r7, sp, #0
    8520:	6078      	str	r0, [r7, #4]
    8522:	6039      	str	r1, [r7, #0]
/home/csx/share/gerrit/optee_os/lib/libmpa/mpa_io.c:475
    8524:	2303      	movs	r3, #3
    8526:	60fb      	str	r3, [r7, #12]
    8528:	e00b      	b.n	8542 <get_word+0x2a>
/home/csx/share/gerrit/optee_os/lib/libmpa/mpa_io.c:476 (discriminator 3)
    852a:	68fb      	ldr	r3, [r7, #12]
    852c:	683a      	ldr	r2, [r7, #0]
    852e:	4413      	add	r3, r2
    8530:	687a      	ldr	r2, [r7, #4]
    8532:	b2d2      	uxtb	r2, r2
    8534:	701a      	strb	r2, [r3, #0]
/home/csx/share/gerrit/optee_os/lib/libmpa/mpa_io.c:477 (discriminator 3)
    8536:	687b      	ldr	r3, [r7, #4]
    8538:	0a1b      	lsrs	r3, r3, #8
    853a:	607b      	str	r3, [r7, #4]
/home/csx/share/gerrit/optee_os/lib/libmpa/mpa_io.c:475 (discriminator 3)
    853c:	68fb      	ldr	r3, [r7, #12]
    853e:	3b01      	subs	r3, #1
    8540:	60fb      	str	r3, [r7, #12]
/home/csx/share/gerrit/optee_os/lib/libmpa/mpa_io.c:475 (discriminator 1)
    8542:	68fb      	ldr	r3, [r7, #12]
    8544:	2b00      	cmp	r3, #0
    8546:	daf0      	bge.n	852a <get_word+0x12>
/home/csx/share/gerrit/optee_os/lib/libmpa/mpa_io.c:479
    8548:	3714      	adds	r7, #20
    854a:	46bd      	mov	sp, r7
    854c:	f85d 7b04 	ldr.w	r7, [sp], #4
    8550:	4770      	bx	lr
    8552:	bf00      	nop

00008554 <mpa_get_oct_str>:
mpa_get_oct_str():
/home/csx/share/gerrit/optee_os/lib/libmpa/mpa_io.c:482
    8554:	e96d 7e02 	strd	r7, lr, [sp, #-8]!
    8558:	b08a      	sub	sp, #40	; 0x28
    855a:	af00      	add	r7, sp, #0
    855c:	60f8      	str	r0, [r7, #12]
    855e:	60b9      	str	r1, [r7, #8]
    8560:	607a      	str	r2, [r7, #4]
/home/csx/share/gerrit/optee_os/lib/libmpa/mpa_io.c:483
    8562:	6878      	ldr	r0, [r7, #4]
    8564:	f7ff fd7c 	bl	8060 <__mpa_size_in_base_255>
    8568:	61b8      	str	r0, [r7, #24]
/home/csx/share/gerrit/optee_os/lib/libmpa/mpa_io.c:485
    856a:	2300      	movs	r3, #0
    856c:	627b      	str	r3, [r7, #36]	; 0x24
/home/csx/share/gerrit/optee_os/lib/libmpa/mpa_io.c:489
    856e:	68bb      	ldr	r3, [r7, #8]
    8570:	681a      	ldr	r2, [r3, #0]
    8572:	69bb      	ldr	r3, [r7, #24]
    8574:	429a      	cmp	r2, r3
    8576:	d205      	bcs.n	8584 <mpa_get_oct_str+0x30>
/home/csx/share/gerrit/optee_os/lib/libmpa/mpa_io.c:490
    8578:	68bb      	ldr	r3, [r7, #8]
    857a:	69ba      	ldr	r2, [r7, #24]
    857c:	601a      	str	r2, [r3, #0]
/home/csx/share/gerrit/optee_os/lib/libmpa/mpa_io.c:491
    857e:	f04f 33ff 	mov.w	r3, #4294967295	; 0xffffffff
    8582:	e063      	b.n	864c <mpa_get_oct_str+0xf8>
/home/csx/share/gerrit/optee_os/lib/libmpa/mpa_io.c:494
    8584:	687b      	ldr	r3, [r7, #4]
    8586:	685b      	ldr	r3, [r3, #4]
    8588:	2b00      	cmp	r3, #0
    858a:	bfb8      	it	lt
    858c:	425b      	neglt	r3, r3
    858e:	623b      	str	r3, [r7, #32]
/home/csx/share/gerrit/optee_os/lib/libmpa/mpa_io.c:495
    8590:	6a3b      	ldr	r3, [r7, #32]
    8592:	2b00      	cmp	r3, #0
    8594:	d107      	bne.n	85a6 <mpa_get_oct_str+0x52>
/home/csx/share/gerrit/optee_os/lib/libmpa/mpa_io.c:496
    8596:	68bb      	ldr	r3, [r7, #8]
    8598:	681b      	ldr	r3, [r3, #0]
    859a:	68f8      	ldr	r0, [r7, #12]
    859c:	2100      	movs	r1, #0
    859e:	461a      	mov	r2, r3
    85a0:	f7fa fcee 	bl	2f80 <memset>
/home/csx/share/gerrit/optee_os/lib/libmpa/mpa_io.c:497
    85a4:	e04e      	b.n	8644 <mpa_get_oct_str+0xf0>
/home/csx/share/gerrit/optee_os/lib/libmpa/mpa_io.c:499
    85a6:	6a3b      	ldr	r3, [r7, #32]
    85a8:	3b01      	subs	r3, #1
    85aa:	623b      	str	r3, [r7, #32]
/home/csx/share/gerrit/optee_os/lib/libmpa/mpa_io.c:502
    85ac:	687b      	ldr	r3, [r7, #4]
    85ae:	6a3a      	ldr	r2, [r7, #32]
    85b0:	3202      	adds	r2, #2
    85b2:	f853 2022 	ldr.w	r2, [r3, r2, lsl #2]
    85b6:	f107 0314 	add.w	r3, r7, #20
    85ba:	4610      	mov	r0, r2
    85bc:	4619      	mov	r1, r3
    85be:	f7ff ffab 	bl	8518 <get_word>
/home/csx/share/gerrit/optee_os/lib/libmpa/mpa_io.c:504
    85c2:	2300      	movs	r3, #0
    85c4:	61fb      	str	r3, [r7, #28]
    85c6:	e01a      	b.n	85fe <mpa_get_oct_str+0xaa>
/home/csx/share/gerrit/optee_os/lib/libmpa/mpa_io.c:505
    85c8:	f107 0214 	add.w	r2, r7, #20
    85cc:	69fb      	ldr	r3, [r7, #28]
    85ce:	4413      	add	r3, r2
    85d0:	781b      	ldrb	r3, [r3, #0]
    85d2:	2b00      	cmp	r3, #0
    85d4:	d010      	beq.n	85f8 <mpa_get_oct_str+0xa4>
/home/csx/share/gerrit/optee_os/lib/libmpa/mpa_io.c:506
    85d6:	69fb      	ldr	r3, [r7, #28]
    85d8:	f107 0214 	add.w	r2, r7, #20
    85dc:	441a      	add	r2, r3
    85de:	69fb      	ldr	r3, [r7, #28]
    85e0:	f1c3 0304 	rsb	r3, r3, #4
    85e4:	68f8      	ldr	r0, [r7, #12]
    85e6:	4611      	mov	r1, r2
    85e8:	461a      	mov	r2, r3
    85ea:	f7fa fbd5 	bl	2d98 <memcpy>
/home/csx/share/gerrit/optee_os/lib/libmpa/mpa_io.c:507
    85ee:	69fb      	ldr	r3, [r7, #28]
    85f0:	f1c3 0304 	rsb	r3, r3, #4
    85f4:	627b      	str	r3, [r7, #36]	; 0x24
/home/csx/share/gerrit/optee_os/lib/libmpa/mpa_io.c:508
    85f6:	e005      	b.n	8604 <mpa_get_oct_str+0xb0>
/home/csx/share/gerrit/optee_os/lib/libmpa/mpa_io.c:504 (discriminator 2)
    85f8:	69fb      	ldr	r3, [r7, #28]
    85fa:	3301      	adds	r3, #1
    85fc:	61fb      	str	r3, [r7, #28]
/home/csx/share/gerrit/optee_os/lib/libmpa/mpa_io.c:504 (discriminator 1)
    85fe:	69fb      	ldr	r3, [r7, #28]
    8600:	2b03      	cmp	r3, #3
    8602:	dde1      	ble.n	85c8 <mpa_get_oct_str+0x74>
/home/csx/share/gerrit/optee_os/lib/libmpa/mpa_io.c:511
    8604:	6a3b      	ldr	r3, [r7, #32]
    8606:	3b01      	subs	r3, #1
    8608:	623b      	str	r3, [r7, #32]
/home/csx/share/gerrit/optee_os/lib/libmpa/mpa_io.c:513
    860a:	e018      	b.n	863e <mpa_get_oct_str+0xea>
/home/csx/share/gerrit/optee_os/lib/libmpa/mpa_io.c:514
    860c:	6a7a      	ldr	r2, [r7, #36]	; 0x24
    860e:	69bb      	ldr	r3, [r7, #24]
    8610:	429a      	cmp	r2, r3
    8612:	d902      	bls.n	861a <mpa_get_oct_str+0xc6>
/home/csx/share/gerrit/optee_os/lib/libmpa/mpa_io.c:515
    8614:	f04f 33ff 	mov.w	r3, #4294967295	; 0xffffffff
    8618:	e018      	b.n	864c <mpa_get_oct_str+0xf8>
/home/csx/share/gerrit/optee_os/lib/libmpa/mpa_io.c:516
    861a:	687b      	ldr	r3, [r7, #4]
    861c:	6a3a      	ldr	r2, [r7, #32]
    861e:	3202      	adds	r2, #2
    8620:	f853 1022 	ldr.w	r1, [r3, r2, lsl #2]
    8624:	68fa      	ldr	r2, [r7, #12]
    8626:	6a7b      	ldr	r3, [r7, #36]	; 0x24
    8628:	4413      	add	r3, r2
    862a:	4608      	mov	r0, r1
    862c:	4619      	mov	r1, r3
    862e:	f7ff ff73 	bl	8518 <get_word>
/home/csx/share/gerrit/optee_os/lib/libmpa/mpa_io.c:518
    8632:	6a7b      	ldr	r3, [r7, #36]	; 0x24
    8634:	3304      	adds	r3, #4
    8636:	627b      	str	r3, [r7, #36]	; 0x24
/home/csx/share/gerrit/optee_os/lib/libmpa/mpa_io.c:519
    8638:	6a3b      	ldr	r3, [r7, #32]
    863a:	3b01      	subs	r3, #1
    863c:	623b      	str	r3, [r7, #32]
/home/csx/share/gerrit/optee_os/lib/libmpa/mpa_io.c:513
    863e:	6a3b      	ldr	r3, [r7, #32]
    8640:	2b00      	cmp	r3, #0
    8642:	dae3      	bge.n	860c <mpa_get_oct_str+0xb8>
/home/csx/share/gerrit/optee_os/lib/libmpa/mpa_io.c:523
    8644:	68bb      	ldr	r3, [r7, #8]
    8646:	69ba      	ldr	r2, [r7, #24]
    8648:	601a      	str	r2, [r3, #0]
/home/csx/share/gerrit/optee_os/lib/libmpa/mpa_io.c:524
    864a:	2300      	movs	r3, #0
/home/csx/share/gerrit/optee_os/lib/libmpa/mpa_io.c:525 (discriminator 1)
    864c:	4618      	mov	r0, r3
    864e:	3728      	adds	r7, #40	; 0x28
    8650:	46bd      	mov	sp, r7
    8652:	bd80      	pop	{r7, pc}

00008654 <mpa_mod>:
mpa_mod():
/home/csx/share/gerrit/optee_os/lib/libmpa/mpa_modulus.c:41
    8654:	e96d 7e02 	strd	r7, lr, [sp, #-8]!
    8658:	b086      	sub	sp, #24
    865a:	af02      	add	r7, sp, #8
    865c:	60f8      	str	r0, [r7, #12]
    865e:	60b9      	str	r1, [r7, #8]
    8660:	607a      	str	r2, [r7, #4]
    8662:	603b      	str	r3, [r7, #0]
/home/csx/share/gerrit/optee_os/lib/libmpa/mpa_modulus.c:42
    8664:	683b      	ldr	r3, [r7, #0]
    8666:	9300      	str	r3, [sp, #0]
    8668:	2000      	movs	r0, #0
    866a:	68f9      	ldr	r1, [r7, #12]
    866c:	68ba      	ldr	r2, [r7, #8]
    866e:	687b      	ldr	r3, [r7, #4]
    8670:	f7fd fa04 	bl	5a7c <mpa_div>
/home/csx/share/gerrit/optee_os/lib/libmpa/mpa_modulus.c:43
    8674:	3710      	adds	r7, #16
    8676:	46bd      	mov	sp, r7
    8678:	bd80      	pop	{r7, pc}
    867a:	bf00      	nop

0000867c <mpa_add_mod>:
mpa_add_mod():
/home/csx/share/gerrit/optee_os/lib/libmpa/mpa_modulus.c:53
    867c:	e96d 7e02 	strd	r7, lr, [sp, #-8]!
    8680:	b088      	sub	sp, #32
    8682:	af02      	add	r7, sp, #8
    8684:	60f8      	str	r0, [r7, #12]
    8686:	60b9      	str	r1, [r7, #8]
    8688:	607a      	str	r2, [r7, #4]
    868a:	603b      	str	r3, [r7, #0]
/home/csx/share/gerrit/optee_os/lib/libmpa/mpa_modulus.c:56
    868c:	f107 0314 	add.w	r3, r7, #20
    8690:	4618      	mov	r0, r3
    8692:	6a39      	ldr	r1, [r7, #32]
    8694:	f7fd fef2 	bl	647c <mpa_alloc_static_temp_var>
/home/csx/share/gerrit/optee_os/lib/libmpa/mpa_modulus.c:58
    8698:	697b      	ldr	r3, [r7, #20]
    869a:	4618      	mov	r0, r3
    869c:	68b9      	ldr	r1, [r7, #8]
    869e:	687a      	ldr	r2, [r7, #4]
    86a0:	6a3b      	ldr	r3, [r7, #32]
    86a2:	f7fe fe21 	bl	72e8 <mpa_add>
/home/csx/share/gerrit/optee_os/lib/libmpa/mpa_modulus.c:59
    86a6:	697a      	ldr	r2, [r7, #20]
    86a8:	6a3b      	ldr	r3, [r7, #32]
    86aa:	9300      	str	r3, [sp, #0]
    86ac:	2000      	movs	r0, #0
    86ae:	68f9      	ldr	r1, [r7, #12]
    86b0:	683b      	ldr	r3, [r7, #0]
    86b2:	f7fd f9e3 	bl	5a7c <mpa_div>
/home/csx/share/gerrit/optee_os/lib/libmpa/mpa_modulus.c:61
    86b6:	f107 0314 	add.w	r3, r7, #20
    86ba:	4618      	mov	r0, r3
    86bc:	6a39      	ldr	r1, [r7, #32]
    86be:	f7fd feef 	bl	64a0 <mpa_free_static_temp_var>
/home/csx/share/gerrit/optee_os/lib/libmpa/mpa_modulus.c:62
    86c2:	3718      	adds	r7, #24
    86c4:	46bd      	mov	sp, r7
    86c6:	bd80      	pop	{r7, pc}

000086c8 <mpa_sub_mod>:
mpa_sub_mod():
/home/csx/share/gerrit/optee_os/lib/libmpa/mpa_modulus.c:72
    86c8:	e96d 7e02 	strd	r7, lr, [sp, #-8]!
    86cc:	b088      	sub	sp, #32
    86ce:	af02      	add	r7, sp, #8
    86d0:	60f8      	str	r0, [r7, #12]
    86d2:	60b9      	str	r1, [r7, #8]
    86d4:	607a      	str	r2, [r7, #4]
    86d6:	603b      	str	r3, [r7, #0]
/home/csx/share/gerrit/optee_os/lib/libmpa/mpa_modulus.c:75
    86d8:	f107 0314 	add.w	r3, r7, #20
    86dc:	4618      	mov	r0, r3
    86de:	6a39      	ldr	r1, [r7, #32]
    86e0:	f7fd fecc 	bl	647c <mpa_alloc_static_temp_var>
/home/csx/share/gerrit/optee_os/lib/libmpa/mpa_modulus.c:77
    86e4:	697b      	ldr	r3, [r7, #20]
    86e6:	4618      	mov	r0, r3
    86e8:	68b9      	ldr	r1, [r7, #8]
    86ea:	687a      	ldr	r2, [r7, #4]
    86ec:	6a3b      	ldr	r3, [r7, #32]
    86ee:	f7fe fedb 	bl	74a8 <mpa_sub>
/home/csx/share/gerrit/optee_os/lib/libmpa/mpa_modulus.c:78
    86f2:	697a      	ldr	r2, [r7, #20]
    86f4:	6a3b      	ldr	r3, [r7, #32]
    86f6:	9300      	str	r3, [sp, #0]
    86f8:	2000      	movs	r0, #0
    86fa:	68f9      	ldr	r1, [r7, #12]
    86fc:	683b      	ldr	r3, [r7, #0]
    86fe:	f7fd f9bd 	bl	5a7c <mpa_div>
/home/csx/share/gerrit/optee_os/lib/libmpa/mpa_modulus.c:80
    8702:	f107 0314 	add.w	r3, r7, #20
    8706:	4618      	mov	r0, r3
    8708:	6a39      	ldr	r1, [r7, #32]
    870a:	f7fd fec9 	bl	64a0 <mpa_free_static_temp_var>
/home/csx/share/gerrit/optee_os/lib/libmpa/mpa_modulus.c:81
    870e:	3718      	adds	r7, #24
    8710:	46bd      	mov	sp, r7
    8712:	bd80      	pop	{r7, pc}

00008714 <mpa_mul_mod>:
mpa_mul_mod():
/home/csx/share/gerrit/optee_os/lib/libmpa/mpa_modulus.c:91
    8714:	e96d 7e02 	strd	r7, lr, [sp, #-8]!
    8718:	b088      	sub	sp, #32
    871a:	af02      	add	r7, sp, #8
    871c:	60f8      	str	r0, [r7, #12]
    871e:	60b9      	str	r1, [r7, #8]
    8720:	607a      	str	r2, [r7, #4]
    8722:	603b      	str	r3, [r7, #0]
/home/csx/share/gerrit/optee_os/lib/libmpa/mpa_modulus.c:94
    8724:	f107 0314 	add.w	r3, r7, #20
    8728:	4618      	mov	r0, r3
    872a:	6a39      	ldr	r1, [r7, #32]
    872c:	f7fd fea6 	bl	647c <mpa_alloc_static_temp_var>
/home/csx/share/gerrit/optee_os/lib/libmpa/mpa_modulus.c:96
    8730:	697b      	ldr	r3, [r7, #20]
    8732:	4618      	mov	r0, r3
    8734:	68b9      	ldr	r1, [r7, #8]
    8736:	687a      	ldr	r2, [r7, #4]
    8738:	6a3b      	ldr	r3, [r7, #32]
    873a:	f7fe f82f 	bl	679c <mpa_mul>
/home/csx/share/gerrit/optee_os/lib/libmpa/mpa_modulus.c:97
    873e:	697a      	ldr	r2, [r7, #20]
    8740:	6a3b      	ldr	r3, [r7, #32]
    8742:	9300      	str	r3, [sp, #0]
    8744:	2000      	movs	r0, #0
    8746:	68f9      	ldr	r1, [r7, #12]
    8748:	683b      	ldr	r3, [r7, #0]
    874a:	f7fd f997 	bl	5a7c <mpa_div>
/home/csx/share/gerrit/optee_os/lib/libmpa/mpa_modulus.c:99
    874e:	f107 0314 	add.w	r3, r7, #20
    8752:	4618      	mov	r0, r3
    8754:	6a39      	ldr	r1, [r7, #32]
    8756:	f7fd fea3 	bl	64a0 <mpa_free_static_temp_var>
/home/csx/share/gerrit/optee_os/lib/libmpa/mpa_modulus.c:100
    875a:	3718      	adds	r7, #24
    875c:	46bd      	mov	sp, r7
    875e:	bd80      	pop	{r7, pc}

00008760 <mpa_inv_mod>:
mpa_inv_mod():
/home/csx/share/gerrit/optee_os/lib/libmpa/mpa_modulus.c:109
    8760:	e96d 7e02 	strd	r7, lr, [sp, #-8]!
    8764:	b08a      	sub	sp, #40	; 0x28
    8766:	af02      	add	r7, sp, #8
    8768:	60f8      	str	r0, [r7, #12]
    876a:	60b9      	str	r1, [r7, #8]
    876c:	607a      	str	r2, [r7, #4]
    876e:	603b      	str	r3, [r7, #0]
/home/csx/share/gerrit/optee_os/lib/libmpa/mpa_modulus.c:115
    8770:	68b8      	ldr	r0, [r7, #8]
    8772:	2101      	movs	r1, #1
    8774:	f7ff f9aa 	bl	7acc <mpa_cmp_short>
    8778:	4603      	mov	r3, r0
    877a:	2b00      	cmp	r3, #0
    877c:	d105      	bne.n	878a <mpa_inv_mod+0x2a>
/home/csx/share/gerrit/optee_os/lib/libmpa/mpa_modulus.c:116
    877e:	68f8      	ldr	r0, [r7, #12]
    8780:	2101      	movs	r1, #1
    8782:	f7fc fc6f 	bl	5064 <mpa_set_S32>
/home/csx/share/gerrit/optee_os/lib/libmpa/mpa_modulus.c:117
    8786:	2300      	movs	r3, #0
    8788:	e054      	b.n	8834 <mpa_inv_mod+0xd4>
/home/csx/share/gerrit/optee_os/lib/libmpa/mpa_modulus.c:120
    878a:	68fa      	ldr	r2, [r7, #12]
    878c:	68bb      	ldr	r3, [r7, #8]
    878e:	429a      	cmp	r2, r3
    8790:	bf0c      	ite	eq
    8792:	2301      	moveq	r3, #1
    8794:	2300      	movne	r3, #0
    8796:	b2db      	uxtb	r3, r3
    8798:	61fb      	str	r3, [r7, #28]
/home/csx/share/gerrit/optee_os/lib/libmpa/mpa_modulus.c:121
    879a:	69fb      	ldr	r3, [r7, #28]
    879c:	2b00      	cmp	r3, #0
    879e:	d006      	beq.n	87ae <mpa_inv_mod+0x4e>
/home/csx/share/gerrit/optee_os/lib/libmpa/mpa_modulus.c:122
    87a0:	f107 0310 	add.w	r3, r7, #16
    87a4:	4618      	mov	r0, r3
    87a6:	6839      	ldr	r1, [r7, #0]
    87a8:	f7fd fe68 	bl	647c <mpa_alloc_static_temp_var>
    87ac:	e001      	b.n	87b2 <mpa_inv_mod+0x52>
/home/csx/share/gerrit/optee_os/lib/libmpa/mpa_modulus.c:124
    87ae:	68fb      	ldr	r3, [r7, #12]
    87b0:	613b      	str	r3, [r7, #16]
/home/csx/share/gerrit/optee_os/lib/libmpa/mpa_modulus.c:126
    87b2:	f107 0314 	add.w	r3, r7, #20
    87b6:	4618      	mov	r0, r3
    87b8:	6839      	ldr	r1, [r7, #0]
    87ba:	f7fd fe5f 	bl	647c <mpa_alloc_static_temp_var>
/home/csx/share/gerrit/optee_os/lib/libmpa/mpa_modulus.c:128
    87be:	6979      	ldr	r1, [r7, #20]
    87c0:	693a      	ldr	r2, [r7, #16]
    87c2:	687b      	ldr	r3, [r7, #4]
    87c4:	9300      	str	r3, [sp, #0]
    87c6:	683b      	ldr	r3, [r7, #0]
    87c8:	9301      	str	r3, [sp, #4]
    87ca:	4608      	mov	r0, r1
    87cc:	4611      	mov	r1, r2
    87ce:	2200      	movs	r2, #0
    87d0:	68bb      	ldr	r3, [r7, #8]
    87d2:	f7fd fcb5 	bl	6140 <mpa_extended_gcd>
/home/csx/share/gerrit/optee_os/lib/libmpa/mpa_modulus.c:129
    87d6:	697b      	ldr	r3, [r7, #20]
    87d8:	4618      	mov	r0, r3
    87da:	2101      	movs	r1, #1
    87dc:	f7ff f976 	bl	7acc <mpa_cmp_short>
    87e0:	61b8      	str	r0, [r7, #24]
/home/csx/share/gerrit/optee_os/lib/libmpa/mpa_modulus.c:131
    87e2:	69fb      	ldr	r3, [r7, #28]
    87e4:	2b00      	cmp	r3, #0
    87e6:	d00a      	beq.n	87fe <mpa_inv_mod+0x9e>
/home/csx/share/gerrit/optee_os/lib/libmpa/mpa_modulus.c:132
    87e8:	693b      	ldr	r3, [r7, #16]
    87ea:	68f8      	ldr	r0, [r7, #12]
    87ec:	4619      	mov	r1, r3
    87ee:	f7fb ff13 	bl	4618 <mpa_copy>
/home/csx/share/gerrit/optee_os/lib/libmpa/mpa_modulus.c:133
    87f2:	f107 0310 	add.w	r3, r7, #16
    87f6:	4618      	mov	r0, r3
    87f8:	6839      	ldr	r1, [r7, #0]
    87fa:	f7fd fe51 	bl	64a0 <mpa_free_static_temp_var>
/home/csx/share/gerrit/optee_os/lib/libmpa/mpa_modulus.c:136
    87fe:	f107 0314 	add.w	r3, r7, #20
    8802:	4618      	mov	r0, r3
    8804:	6839      	ldr	r1, [r7, #0]
    8806:	f7fd fe4b 	bl	64a0 <mpa_free_static_temp_var>
/home/csx/share/gerrit/optee_os/lib/libmpa/mpa_modulus.c:137
    880a:	69bb      	ldr	r3, [r7, #24]
    880c:	2b00      	cmp	r3, #0
    880e:	d10f      	bne.n	8830 <mpa_inv_mod+0xd0>
/home/csx/share/gerrit/optee_os/lib/libmpa/mpa_modulus.c:138
    8810:	e005      	b.n	881e <mpa_inv_mod+0xbe>
/home/csx/share/gerrit/optee_os/lib/libmpa/mpa_modulus.c:139
    8812:	68f8      	ldr	r0, [r7, #12]
    8814:	68f9      	ldr	r1, [r7, #12]
    8816:	687a      	ldr	r2, [r7, #4]
    8818:	683b      	ldr	r3, [r7, #0]
    881a:	f7fe fd65 	bl	72e8 <mpa_add>
/home/csx/share/gerrit/optee_os/lib/libmpa/mpa_modulus.c:138
    881e:	68f8      	ldr	r0, [r7, #12]
    8820:	2100      	movs	r1, #0
    8822:	f7ff f953 	bl	7acc <mpa_cmp_short>
    8826:	4603      	mov	r3, r0
    8828:	2b00      	cmp	r3, #0
    882a:	dbf2      	blt.n	8812 <mpa_inv_mod+0xb2>
/home/csx/share/gerrit/optee_os/lib/libmpa/mpa_modulus.c:140
    882c:	2300      	movs	r3, #0
    882e:	e001      	b.n	8834 <mpa_inv_mod+0xd4>
/home/csx/share/gerrit/optee_os/lib/libmpa/mpa_modulus.c:142
    8830:	f04f 33ff 	mov.w	r3, #4294967295	; 0xffffffff
/home/csx/share/gerrit/optee_os/lib/libmpa/mpa_modulus.c:144 (discriminator 1)
    8834:	4618      	mov	r0, r3
    8836:	3720      	adds	r7, #32
    8838:	46bd      	mov	sp, r7
    883a:	bd80      	pop	{r7, pc}

0000883c <__TEE_Panic>:
__TEE_Panic():
/home/zhangzj/secure/optee_gerrit/optee_os/lib/libutee/tee_api_panic.c:35
    883c:	b508      	push	{r3, lr}
/home/zhangzj/secure/optee_gerrit/optee_os/lib/libutee/tee_api_panic.c:36
    883e:	f7f8 e800 	blx	840 <utee_panic>

00008842 <TEE_Panic>:
TEE_Panic():
/home/zhangzj/secure/optee_gerrit/optee_os/lib/libutee/tee_api_panic.c:40
    8842:	b508      	push	{r3, lr}
__TEE_Panic():
/home/zhangzj/secure/optee_gerrit/optee_os/lib/libutee/tee_api_panic.c:36
    8844:	f7f7 effc 	blx	840 <utee_panic>

00008848 <utee_get_ta_exec_id>:
utee_get_ta_exec_id():
/home/zhangzj/secure/optee_gerrit/optee_os/lib/libutee/arch/arm/utee_misc.c:39
    8848:	2000      	movs	r0, #0
    884a:	4770      	bx	lr

0000884c <utee_malloc>:
utee_malloc():
/home/zhangzj/secure/optee_gerrit/optee_os/lib/libutee/arch/arm/utee_misc.c:44
    884c:	f7fa b870 	b.w	2930 <malloc>

00008850 <utee_realloc>:
utee_realloc():
/home/zhangzj/secure/optee_gerrit/optee_os/lib/libutee/arch/arm/utee_misc.c:49
    8850:	f7fa b8ba 	b.w	29c8 <realloc>

00008854 <utee_calloc>:
utee_calloc():
/home/zhangzj/secure/optee_gerrit/optee_os/lib/libutee/arch/arm/utee_misc.c:53
    8854:	4603      	mov	r3, r0
/home/zhangzj/secure/optee_gerrit/optee_os/lib/libutee/arch/arm/utee_misc.c:54
    8856:	4608      	mov	r0, r1
    8858:	4619      	mov	r1, r3
    885a:	f7fa b88d 	b.w	2978 <calloc>

0000885e <utee_free>:
utee_free():
/home/zhangzj/secure/optee_gerrit/optee_os/lib/libutee/arch/arm/utee_misc.c:59
    885e:	f7fa b87b 	b.w	2958 <free>

00008862 <get_rng_array>:
get_rng_array():
/home/zhangzj/secure/optee_gerrit/optee_os/lib/libutee/arch/arm/utee_misc.c:71
    8862:	f000 b811 	b.w	8888 <__utee_cryp_random_number_generate_from_thumb>
	...

00008868 <__utee_cache_operation_from_thumb>:
__utee_cache_operation_from_thumb():
    8868:	4778      	bx	pc
    886a:	46c0      	nop			; (mov r8, r8)
    886c:	e59fc000 	ldr	ip, [pc]	; 8874 <__utee_cache_operation_from_thumb+0xc>
    8870:	e08cf00f 	add	pc, ip, pc
    8874:	ffff8570 	.word	0xffff8570

00008878 <__utee_check_access_rights_from_thumb>:
__utee_check_access_rights_from_thumb():
    8878:	4778      	bx	pc
    887a:	46c0      	nop			; (mov r8, r8)
    887c:	e59fc000 	ldr	ip, [pc]	; 8884 <__utee_check_access_rights_from_thumb+0xc>
    8880:	e08cf00f 	add	pc, ip, pc
    8884:	ffff8064 	.word	0xffff8064

00008888 <__utee_cryp_random_number_generate_from_thumb>:
__utee_cryp_random_number_generate_from_thumb():
    8888:	4778      	bx	pc
    888a:	46c0      	nop			; (mov r8, r8)
    888c:	e59fc000 	ldr	ip, [pc]	; 8894 <__utee_cryp_random_number_generate_from_thumb+0xc>
    8890:	e08cf00f 	add	pc, ip, pc
    8894:	ffff8244 	.word	0xffff8244

00008898 <__utee_log_from_thumb>:
__utee_log_from_thumb():
    8898:	4778      	bx	pc
    889a:	46c0      	nop			; (mov r8, r8)
    889c:	e59fc000 	ldr	ip, [pc]	; 88a4 <__utee_log_from_thumb+0xc>
    88a0:	e08cf00f 	add	pc, ip, pc
    88a4:	ffff7f84 	.word	0xffff7f84
