
/home/zengwei/work/rk3288-android8.1/android8.1-r46/external/rk_tee_user/ta/testapp/8cccf200-2450-11e4-abe20002a5d5c52c.elf:     file format elf32-littlearm
/home/zengwei/work/rk3288-android8.1/android8.1-r46/external/rk_tee_user/ta/testapp/8cccf200-2450-11e4-abe20002a5d5c52c.elf
architecture: arm, flags 0x00000150:
HAS_SYMS, DYNAMIC, D_PAGED
start address 0x00000020

Program Header:
    LOAD off    0x00008000 vaddr 0x00000000 paddr 0x00000000 align 2**15
         filesz 0x0000a0d8 memsz 0x0000a0d8 flags rwx
    LOAD off    0x00013000 vaddr 0x0000b000 paddr 0x0000b000 align 2**15
         filesz 0x000000a4 memsz 0x0000ac00 flags rw-
    LOAD off    0x00016000 vaddr 0x00016000 paddr 0x00016000 align 2**15
         filesz 0x00000268 memsz 0x00000268 flags rw-
 DYNAMIC off    0x00016000 vaddr 0x00016000 paddr 0x00016000 align 2**2
         filesz 0x00000078 memsz 0x00000078 flags rw-

Dynamic Section:
  HASH                 0x0001621c
  STRTAB               0x00016158
  SYMTAB               0x00016078
  STRSZ                0x000000c4
  SYMENT               0x00000010
  DEBUG                0x00000000
  REL                  0x0000a008
  RELSZ                0x000000d0
  RELENT               0x00000008
  RELCOUNT             0x00000013
private flags = 5000002: [Version5 EABI] [has entry point]

Sections:
Idx Name          Size      VMA       LMA       File off  Algn
  0 .ta_head      00000020  00000000  00000000  00008000  2**3
                  CONTENTS, ALLOC, LOAD, DATA
  1 .text         00008888  00000020  00000020  00008020  2**3
                  CONTENTS, ALLOC, LOAD, READONLY, CODE
  2 .rodata       00001737  000088a8  000088a8  000108a8  2**2
                  CONTENTS, ALLOC, LOAD, READONLY, DATA
  3 .got          00000028  00009fe0  00009fe0  00011fe0  2**2
                  CONTENTS, ALLOC, LOAD, DATA
  4 .dynsym       000000e0  00016078  00016078  00016078  2**2
                  CONTENTS, ALLOC, LOAD, READONLY, DATA
  5 .rel.got      00000038  0000a0a0  0000a0a0  000120a0  2**2
                  CONTENTS, ALLOC, LOAD, READONLY, DATA
  6 .data         000000a4  0000b000  0000b000  00013000  2**2
                  CONTENTS, ALLOC, LOAD, DATA
  7 .bss          0000ab5c  0000b0a4  0000b0a4  000130a4  2**2
                  ALLOC
  8 .dynamic      00000078  00016000  00016000  00016000  2**2
                  CONTENTS, ALLOC, LOAD, DATA
  9 .dynstr       000000c4  00016158  00016158  00016158  2**0
                  CONTENTS, ALLOC, LOAD, READONLY, DATA
 10 .hash         0000004c  0001621c  0001621c  0001621c  2**2
                  CONTENTS, ALLOC, LOAD, READONLY, DATA
 11 .debug_info   0000b2c1  00000000  00000000  00016268  2**0
                  CONTENTS, READONLY, DEBUGGING
 12 .debug_abbrev 0000336d  00000000  00000000  00021529  2**0
                  CONTENTS, READONLY, DEBUGGING
 13 .debug_aranges 000004e8  00000000  00000000  00024898  2**3
                  CONTENTS, READONLY, DEBUGGING
 14 .debug_macro  0000463e  00000000  00000000  00024d80  2**0
                  CONTENTS, READONLY, DEBUGGING
 15 .debug_line   00005b4e  00000000  00000000  000293be  2**0
                  CONTENTS, READONLY, DEBUGGING
 16 .debug_str    0000bb64  00000000  00000000  0002ef0c  2**0
                  CONTENTS, READONLY, DEBUGGING
 17 .comment      0000007f  00000000  00000000  0003aa70  2**0
                  CONTENTS, READONLY
 18 .ARM.attributes 0000003a  00000000  00000000  0003aaef  2**0
                  CONTENTS, READONLY
 19 .debug_frame  00002270  00000000  00000000  0003ab2c  2**2
                  CONTENTS, READONLY, DEBUGGING
 20 .rel.dyn      00000098  0000a008  0000a008  00012008  2**2
                  CONTENTS, ALLOC, LOAD, READONLY, DATA
 21 .debug_loc    00003544  00000000  00000000  0003cd9c  2**0
                  CONTENTS, READONLY, DEBUGGING
 22 .debug_ranges 000001e8  00000000  00000000  000402e0  2**0
                  CONTENTS, READONLY, DEBUGGING
SYMBOL TABLE:
00000000 l    d  .ta_head	00000000 .ta_head
00000020 l    d  .text	00000000 .text
000088a8 l    d  .rodata	00000000 .rodata
00009fe0 l    d  .got	00000000 .got
0000a0a0 l    d  .rel.got	00000000 .rel.got
0000b000 l    d  .data	00000000 .data
0000b0a4 l    d  .bss	00000000 .bss
00016000 l    d  .dynamic	00000000 .dynamic
00016078 l    d  .dynsym	00000000 .dynsym
00016158 l    d  .dynstr	00000000 .dynstr
0001621c l    d  .hash	00000000 .hash
00000000 l    d  .debug_info	00000000 .debug_info
00000000 l    d  .debug_abbrev	00000000 .debug_abbrev
00000000 l    d  .debug_aranges	00000000 .debug_aranges
00000000 l    d  .debug_macro	00000000 .debug_macro
00000000 l    d  .debug_line	00000000 .debug_line
00000000 l    d  .debug_str	00000000 .debug_str
00000000 l    d  .comment	00000000 .comment
00000000 l    d  .ARM.attributes	00000000 .ARM.attributes
00000000 l    d  .debug_frame	00000000 .debug_frame
0000a008 l    d  .rel.dyn	00000000 .rel.dyn
00000000 l    d  .debug_loc	00000000 .debug_loc
00000000 l    d  .debug_ranges	00000000 .debug_ranges
00000000 l    df *ABS*	00000000 user_ta_header.c
0000898c l     O .rodata	00000001 __compound_literal.0
0000898d l     O .rodata	00000001 __compound_literal.1
0000898e l     O .rodata	00000001 __compound_literal.2
00008990 l     O .rodata	00000004 __compound_literal.3
00008994 l     O .rodata	00000004 __compound_literal.4
00000000 l    df *ABS*	00000000 testapp_ta.c
0000892c l     O .rodata	00000019 __func__.4794
00008948 l     O .rodata	0000001a __func__.4798
00008964 l     O .rodata	0000001b __func__.4809
00000000 l    df *ABS*	00000000 tee_api.c
00009cf8 l     O .rodata	00000013 __func__.5318
00009d0b l     O .rodata	00000014 __func__.5330
00009d1f l     O .rodata	00000017 __func__.5341
00009d36 l     O .rodata	00000015 __func__.5347
00009d4b l     O .rodata	00000012 __func__.5380
00009d5d l     O .rodata	00000009 __func__.5385
00009d66 l     O .rodata	00000018 __func__.5390
00009d7e l     O .rodata	00000018 __func__.5395
00009d96 l     O .rodata	0000000f __func__.5400
000130a4 l     O .bss	00000004 tee_api_instance_data
00000000 l    df *ABS*	00000000 user_ta_entry.c
000005d4 l     F .text	0000001c ta_header_get_session
000005f0 l     F .text	00000050 ta_header_remove_session
00000640 l     F .text	00000014 ta_header_save_params.part.0
00009db0 l     O .rodata	0000000d __func__.5344
0000b084 l     O .data	00000008 ta_sessions
000130a8 l     O .bss	00000004 ta_ref_count
000130cc l     O .bss	00000001 context_init
00000000 l    df *ABS*	00000000 utee_syscalls_a32.o
00000000 l    df *ABS*	00000000 tee_user_mem.c
00000e3c l     F .text	00000038 print_buf
00000e74 l     F .text	000000ac check_elem
00009dbd l     O .rodata	0000000b __func__.4933
00009dc8 l     O .rodata	0000000f __func__.4928
00009dd7 l     O .rodata	00000013 __func__.4952
00009dea l     O .rodata	00000012 __func__.4969
00009dfc l     O .rodata	00000018 __func__.4977
00009e14 l     O .rodata	00000014 __func__.4982
000130d4 l     O .bss	00000004 heap_level
000130d8 l     O .bss	00000008 global_stats
00000000 l    df *ABS*	00000000 assert.c
00009f09 l     O .rodata	0000000c __func__.5129
00000000 l    df *ABS*	00000000 tee_api_arith.c
000016b0 l     F .text	0000003c TEE_BigInt_Panic
00009f34 l     O .rodata	00000011 __func__.5121
00009f45 l     O .rodata	0000001f __func__.5166
000130e0 l     O .bss	00001b00 mempool_u32
00000000 l    df *ABS*	00000000 trace_ext.c
00009fbf l     O .rodata	0000000a prefix.4656
00009fc9 l     O .rodata	00000011 failed.4657
00000000 l    df *ABS*	00000000 bget_malloc.c
0000b094 l     O .data	00000010 freelist
00014be0 l       .bss	00000000 totalloc
00014be4 l       .bss	00000000 numget
00014be8 l       .bss	00000000 numrel
00001f98 l     F .text	0000000e malloc_lock
00001fa8 l     F .text	0000000e malloc_unlock
00014bec l       .bss	00000000 malloc_pool
00014bf0 l       .bss	00000000 malloc_pool_len
00014bf4 l       .bss	00000000 max_alloc_heap
00001fb8 l     F .text	00000040 raw_malloc_save_max_alloced_size
000020bc l     F .text	0000000e raw_malloc_validate_pools
000020cc l     F .text	0000002c bpool_foreach_iterator_init
000020f8 l     F .text	000000c4 bpool_foreach_pool
000021bc l     F .text	00000070 bpool_foreach
0000222c l     F .text	00000050 raw_malloc
0000227c l     F .text	00000020 raw_free
0000229c l     F .text	0000005e raw_calloc
000022fc l     F .text	00000052 raw_realloc
00002350 l     F .text	00000144 create_free_block
00002494 l     F .text	00000138 brel_before
000025cc l     F .text	000001ec brel_after
000027b8 l     F .text	00000128 raw_memalign
000028e0 l     F .text	00000050 bget_buf_size
000029a4 l     F .text	00000022 realloc_unlocked
00002a1c l     F .text	00000024 get_payload_start_size
00000000 l    df *ABS*	00000000 snprintf.c
00000000 l    df *ABS*	00000000 memcmp.c
00000000 l    df *ABS*	00000000 memcpy.c
00000000 l    df *ABS*	00000000 memmove.c
00000000 l    df *ABS*	00000000 memset.c
00000000 l    df *ABS*	00000000 strlen.c
00000000 l    df *ABS*	00000000 snprintk.c
00008e5c l     O .rodata	00000011 hexdigits
00008e70 l     O .rodata	00000011 HEXDIGITS
00003264 l     F .text	00000cac kprintf
000031bc l     F .text	000000a8 uuid2str
00000000 l    df *ABS*	00000000 strlcpy.c
00000000 l    df *ABS*	00000000 trace.c
00003fe8 l     F .text	00000054 trace_level_to_string
00008f04 l     O .rodata	00000014 lvl_strs.4195
00000000 l    df *ABS*	00000000 memchr.c
00000000 l    df *ABS*	00000000 arm32_aeabi_ldivmod_a32.o
00000000 l    df *ABS*	00000000 arm32_aeabi_ldivmod.c
00004308 l     F .text	000000ec division_lqr
000043f4 l     F .text	0000005a ul_div_qr
00000000 l    df *ABS*	00000000 mpa_misc.c
00000000 l    df *ABS*	00000000 mpa_montgomery.c
00000000 l    df *ABS*	00000000 mpa_primetest.c
00009b80 l     O .rodata	00000008 const_small_prime_factors
00009c38 l     O .rodata	00000008 const_miller_rabin_proof_limit
00009c48 l     O .rodata	00000008 const_two
00004ce4 l     F .text	0000008c is_small_prime
00004d70 l     F .text	00000060 has_small_factors
00004dd0 l     F .text	00000294 primality_test_miller_rabin
00004cb0 l     F .text	00000034 check_table
00009c54 l     O .rodata	0000001c proof_a.4564
00000000 l    df *ABS*	00000000 mpa_conv.c
00000000 l    df *ABS*	00000000 mpa_div.c
00005198 l     F .text	000000d6 __mpa_soft_div
000052c4 l     F .text	00000578 __mpa_div_q_r_internal
00000000 l    df *ABS*	00000000 mpa_gcd.c
00005b4c l     F .text	000000ce __mpa_divby2
00005c1c l     F .text	000002f0 __mpa_egcd
00005f0c l     F .text	0000015a __mpa_gcd
00000000 l    df *ABS*	00000000 mpa_mem_static.c
00000000 l    df *ABS*	00000000 mpa_mul.c
00000000 l    df *ABS*	00000000 mpa_random.c
00014bf8 l       .bss	00000000 get_rng_array
0000691c l     F .text	0000002c get_random_byte
00000000 l    df *ABS*	00000000 mpa_shift.c
00000000 l    df *ABS*	00000000 mpa_addsub.c
00000000 l    df *ABS*	00000000 mpa_cmp.c
00000000 l    df *ABS*	00000000 mpa_expmod.c
00000000 l    df *ABS*	00000000 mpa_init.c
00000000 l    df *ABS*	00000000 mpa_io.c
00007d58 l     F .text	0000003c __mpa_isspace
00007d94 l     F .text	00000076 __mpa_is_char_in_base
00007e0c l     F .text	0000004e __mpa_digit_value
00007e5c l     F .text	0000001c __mpa_digitstr_to_binary_wsize_base_16
00007e78 l     F .text	00000048 __mpa_nibble_to_char
00007ec0 l     F .text	00000056 __mpa_word_to_hexstr
00007f18 l     F .text	00000102 __mpa_mpanum_to_hexstr
0000801c l     F .text	00000044 __mpa_count_leading_zero_bits
00008060 l     F .text	00000054 __mpa_size_in_base_255
00014bfc l       .bss	00000000 buf.4601
000083f4 l     F .text	00000056 set_word
00008518 l     F .text	0000003a get_word
00000000 l    df *ABS*	00000000 mpa_modulus.c
00000000 l    df *ABS*	00000000 tee_api_panic.c
00000000 l    df *ABS*	00000000 utee_misc.c
00000000 l    df *ABS*	00000000 
00016000 l     O *ABS*	00000000 _DYNAMIC
00009fe0 l     O *ABS*	00000000 _GLOBAL_OFFSET_TABLE_
00008868 l     F .text	00000010 __utee_cache_operation_from_thumb
00008878 l     F .text	00000010 __utee_check_access_rights_from_thumb
00008888 l     F .text	00000010 __utee_cryp_random_number_generate_from_thumb
00008898 l     F .text	00000010 __utee_log_from_thumb
00000dbc g     F .text	00000018 utee_se_channel_transmit
00007c9c g     F .text	0000003c mpa_init_static
00004618 g     F .text	00000046 mpa_copy
00001624 g     F .text	00000020 TEE_BigIntConvertToFMM
00001560 g     F .text	00000008 TEE_BigIntSquareMod
0000133c g     F .text	00000004 TEE_BigIntShiftRight
000050a8 g     F .text	0000008e mpa_get_S32
0000468c g     F .text	0000006e mpa_highest_bit_index
00000bac g     F .text	00000018 utee_storage_obj_create
000044c4 g     F .text	000000ea __l_divmod
00000d80 g     F .text	00000014 utee_se_session_close
00000818 g     F .text	00000014 utee_return
00001ff8 g     F .text	00000020 malloc_reset_max_allocated
00000cdc g     F .text	00000014 utee_se_service_get_readers
000005b8 g     F .text	00000004 TEE_Realloc
0000583c g     F .text	00000114 __mpa_div_q_r_internal_word
000010c8 g     F .text	00000068 tee_user_mem_realloc
00002068 g     F .text	00000054 malloc_get_heap_size
000074a8 g     F .text	000001e4 mpa_sub
0000171c g     F .text	0000007c printf
00000fe8 g     F .text	000000e0 tee_user_mem_free
0000082c g     F .text	00000014 utee_log
00008f44 g     O .rodata	00000004 NR_STORED_PRIMES
000002f4 g     F .text	00000084 TEE_InvokeTACommand
0000475c g     F .text	00000030 mpa_can_hold
00006620 g     F .text	00000098 __mpa_abs_mul_word
00004c14 g     F .text	0000004a mpa_montgomery_mul
00003128 g     F .text	0000002a vsnprintk
0000478c g     F .text	00000028 mpa_parity
00002e68 g     F .text	00000116 memmove
00006fe0 g     F .text	00000062 __mpa_full_adder_ackum
00002c90 g     F .text	00000038 snprintf
00001338 g     F .text	00000004 TEE_BigIntCmpS32
00001358 g     F .text	0000000c TEE_BigIntAdd
00000e14 g     F .text	00000014 utee_get_property_name_to_index
00008988 g     O .rodata	00000004 ta_heap_size
00008f40 g     O .rodata	00000004 MAX_TABULATED_PRIME
0000884c g     F .text	00000004 utee_malloc
00000964 g     F .text	00000018 utee_cryp_state_alloc
00000b34 g     F .text	00000018 utee_authenc_enc_final
0000659c g     F .text	00000084 __mpa_mul_add_word_cum
00001370 g     F .text	00000004 TEE_BigIntNeg
00005a7c g     F .text	000000ce mpa_div
00008f34 g     O .rodata	00000008 const_one
00002be8 g     F .text	000000a8 malloc_buffer_overlaps_heap
00007a28 g     F .text	00000022 __mpa_abs_less_than
00001484 g     F .text	00000060 TEE_BigIntSubMod
0000b010 g     O .data	0000001a output
00006948 g     F .text	00000112 mpa_get_random
00008862 g     F .text	00000004 get_rng_array
0000403c g     F .text	00000194 trace_printf
00000cb4 g     F .text	00000014 utee_se_service_open
00002d98 g     F .text	000000d0 memcpy
00000990 g     F .text	00000014 utee_cryp_state_free
000045ec g     F .text	0000002c mpa_wipe
00001644 g     F .text	00000050 TEE_BigIntConvertFromFMM
00008842 g     F .text	00000006 TEE_Panic
00000da8 g     F .text	00000014 utee_se_channel_get_select_resp
000042f0 g     F .text	00000018 __aeabi_uldivmod
00001706 g     F .text	00000016 puts
00001694 g     F .text	0000001c TEE_BigIntComputeFMM
00005138 g     F .text	0000002e mpa_set_word
00006ba0 g     F .text	000001d6 mpa_shift_left
00000a10 g     F .text	00000018 utee_cipher_final
0000679c g     F .text	000000b6 mpa_mul
00000574 g     F .text	00000040 TEE_GetREETime
0000b030 g     O .data	00000054 ta_props
00002930 g     F .text	00000028 malloc
00000a78 g     F .text	00000014 utee_cryp_obj_close
00000d18 g     F .text	00000014 utee_se_reader_open_session
00002cc8 g     F .text	0000002a vsnprintf
0000b02c g     O .data	00000004 trace_level
00008848 g     F .text	00000004 utee_get_ta_exec_id
00001334 g     F .text	00000004 TEE_BigIntCmp
00008850 g     F .text	00000004 utee_realloc
00008a54 g     O .rodata	00000004 ta_num_props
00001a38 g     F .text	00000088 bgetr
00000b1c g     F .text	00000018 utee_authenc_update_payload
000012c4 g     F .text	00000058 TEE_BigIntConvertToOctetString
00000de8 g     F .text	00000014 utee_cache_operation
00000af0 g     F .text	00000018 utee_authenc_init
00001340 g     F .text	0000000e TEE_BigIntGetBit
00008980 g     O .rodata	00000008 trace_ext_prefix
00007044 g     F .text	00000102 __mpa_abs_add
000019b8 g     F .text	00000080 bgetz
0000042c g     F .text	0000000c TEE_GetInstanceData
00000484 g     F .text	00000044 TEE_Wait
00000880 g     F .text	00000014 utee_nocall
00000c64 g     F .text	00000014 utee_storage_obj_write
000064a0 g     F .text	00000088 mpa_free_static_temp_var
00002040 g     F .text	00000028 malloc_get_allocated
00004c60 g     F .text	0000004e mpa_is_prob_prime
00000dd4 g     F .text	00000014 utee_se_channel_close
00006854 g     F .text	000000a2 mpa_mul_word
000005c6 g     F .text	00000006 TEE_CacheFlush
00000034 g     F .text	0000000e TA_DestroyEntryPoint
000011f8 g     F .text	0000002c _assert_log
000012a4 g     F .text	0000000a TEE_BigIntFMMContextSizeInU32
0000000c g       *ABS*	00000000 linker_RW_sections_size
00005950 g     F .text	0000012c __mpa_div_q_r
00001230 g     F .text	00000034 _TEE_MathAPI_Init
00000c3c g     F .text	00000014 utee_storage_next_enum
0000b0a4 g     O .bss	00008000 ta_heap
00001568 g     F .text	00000044 TEE_BigIntInvMod
00000090 g     F .text	00000030 TA_CloseSessionEntryPoint
0000097c g     F .text	00000014 utee_cryp_state_copy
000000c0 g     F .text	00000110 TA_InvokeCommandEntryPoint
0000844c g     F .text	000000cc mpa_set_oct_str
00000d68 g     F .text	00000018 utee_se_session_open_channel
00006a5c g     F .text	0000009e __mpa_shift_words_left
00000a64 g     F .text	00000014 utee_cryp_obj_alloc
00000950 g     F .text	00000014 utee_set_ta_time
00000a50 g     F .text	00000014 utee_cryp_obj_get_attr
000048ec g     F .text	00000102 __mpa_montgomery_sub_ack
00002978 g     F .text	0000002c calloc
000005b4 g     F .text	00000004 TEE_Malloc
00000914 g     F .text	00000014 utee_mask_cancellation
00000a8c g     F .text	00000014 utee_cryp_obj_reset
00000414 g     F .text	0000000a TEE_CheckMemoryAccessRights
00004450 g     F .text	00000072 __ul_divmod
0000768c g     F .text	00000024 mpa_neg
00008f48 g     O .rodata	00000c38 PRIME_TABLE
00000044 g     F .text	0000004c TA_OpenSessionEntryPoint
00006068 g     F .text	000000d8 mpa_gcd
00004660 g     F .text	0000002c mpa_abs
00000c28 g     F .text	00000014 utee_storage_start_enum
000080c8 g     F .text	000002ac mpa_set_str
00000bd8 g     F .text	00000014 utee_storage_obj_rename
000130d0 g     O .bss	00000004 ta_param_types
00001604 g     F .text	00000020 TEE_BigIntIsProbablePrime
0000647c g     F .text	00000024 mpa_alloc_static_temp_var
000068f8 g     F .text	00000024 mpa_set_random_generator
00000dfc g     F .text	00000018 utee_get_property
00001264 g     F .text	00000004 TEE_BigIntInit
00000438 g     F .text	00000004 TEE_MemMove
000012ae g     F .text	00000016 TEE_BigIntConvertFromOctetString
000041ec g     F .text	000000ea memchr
00000394 g     F .text	00000040 TEE_UnmaskCancellation
00008714 g     F .text	0000004c mpa_mul_mod
00000bc4 g     F .text	00000014 utee_storage_obj_del
00000c8c g     F .text	00000014 utee_storage_obj_seek
00004afc g     F .text	00000118 mpa_compute_fmm_context
000009b8 g     F .text	00000014 utee_hash_update
000062fc g     F .text	00000040 mpa_init_scratch_mem_sync
000013cc g     F .text	00000058 TEE_BigIntMod
00000d94 g     F .text	00000014 utee_se_channel_select_next
000008ac g     F .text	00000014 utee_close_ta_session
00001390 g     F .text	0000003c TEE_BigIntDiv
00003f10 g     F .text	00000070 strlcpy
000009f8 g     F .text	00000018 utee_cipher_update
00000d54 g     F .text	00000014 utee_se_session_get_atr
000029c8 g     F .text	00000028 realloc
00007148 g     F .text	000000be __mpa_abs_add_ackum
00000b7c g     F .text	00000018 utee_asymm_verify
00001374 g     F .text	0000000c TEE_BigIntMul
00005168 g     F .text	0000002e mpa_get_word
00000440 g     F .text	00000004 TEE_MemFill
00002cf4 g     F .text	000000a2 memcmp
00002a40 g     F .text	00000114 malloc_add_pool
00003fc4 g     F .text	00000024 trace_get_level
00000adc g     F .text	00000014 utee_cryp_random_number_generate
0000129c g     F .text	00000008 TEE_BigIntFMMSizeInU32
00001268 g     F .text	0000000e TEE_BigIntInitFMM
00000b64 g     F .text	00000018 utee_asymm_operate
00000654 g     F .text	000001c4 __utee_entry
000015ac g     F .text	00000040 TEE_BigIntRelativePrime
0000000c g       *ABS*	00000000 linker_RO_sections_size
00001dcc g     F .text	00000110 bpool
00005064 g     F .text	00000044 mpa_set_S32
00007cd8 g     F .text	00000080 mpa_init_static_fmm_context
00000378 g     F .text	0000001c TEE_GetCancellationFlag
00000cc8 g     F .text	00000014 utee_se_service_close
00000f20 g     F .text	000000c8 tee_user_mem_alloc
0000b08c g     O .data	00000008 user_mem_head
00000528 g     F .text	0000004c TEE_SetTAPersistentTime
000076b0 g     F .text	00000134 mpa_add_word
00000cf0 g     F .text	00000014 utee_se_reader_get_prop
00002f80 g     F .text	000000f6 memset
000004c8 g     F .text	00000060 TEE_GetTAPersistentTime
000041d0 g     F .text	0000001a dhex_dump
000003d4 g     F .text	00000040 TEE_MaskCancellation
00006f7c g     F .text	00000064 __mpa_full_sub
00000c50 g     F .text	00000014 utee_storage_obj_read
00008854 g     F .text	0000000a utee_calloc
00000aa0 g     F .text	00000014 utee_cryp_obj_populate
00007a4c g     F .text	0000007e mpa_cmp
00008760 g     F .text	000000dc mpa_inv_mod
000077e4 g     F .text	00000138 mpa_sub_word
00006528 g     F .text	00000074 __mpa_mul_add_word
000072e8 g     F .text	000001be mpa_add
00007b68 g     F .text	00000134 mpa_exp_mod
00006afc g     F .text	000000a2 __mpa_shift_words_right
00003f80 g     F .text	00000044 trace_set_level
00000d40 g     F .text	00000014 utee_se_session_is_closed
00000a28 g     F .text	00000014 utee_cryp_obj_get_info
00000bec g     F .text	00000014 utee_storage_alloc_enum
00000c14 g     F .text	00000014 utee_storage_reset_enum
00000c78 g     F .text	00000014 utee_storage_obj_trunc
00008654 g     F .text	00000026 mpa_mod
00007a00 g     F .text	00000028 __mpa_abs_greater_than
00001320 g     F .text	00000014 TEE_BigIntConvertToS32
00001364 g     F .text	0000000c TEE_BigIntSub
000008d8 g     F .text	00000014 utee_get_cancellation_flag
000009a4 g     F .text	00000014 utee_hash_init
000001d0 g     F .text	00000012 tahead_get_trace_level
000001e4 g     F .text	00000050 __utee_from_param
00008f24 g     O .rodata	00000008 Const_1_LShift_Base
00000234 g     F .text	00000040 __utee_to_param
000029f0 g     F .text	0000002c memalign
0000131c g     F .text	00000004 TEE_BigIntConvertFromS32
000086c8 g     F .text	0000004c mpa_sub_mod
00000a3c g     F .text	00000014 utee_cryp_obj_restrict_usage
00002b54 g     F .text	00000092 malloc_buffer_is_within_alloced
00000ab4 g     F .text	00000014 utee_cryp_obj_copy
00000868 g     F .text	00000018 utee_dummy_7args
00006d78 g     F .text	0000019e mpa_shift_right
00001276 g     F .text	00000026 TEE_BigIntInitFMMContext
00000ac8 g     F .text	00000014 utee_cryp_derive_key
000049f0 g     F .text	0000010c __mpa_montgomery_mul
00008554 g     F .text	00000100 mpa_get_oct_str
00007acc g     F .text	0000009c mpa_cmp_short
00000b4c g     F .text	00000018 utee_authenc_dec_final
0000791c g     F .text	000000e4 __mpa_abs_cmp
00001380 g     F .text	00000010 TEE_BigIntSquare
00000020 g     F .text	00000012 TA_CreateEntryPoint
000030f4 g     F .text	00000034 snprintk
0000134e g     F .text	0000000a TEE_BigIntGetBitCount
000014e4 g     F .text	0000007c TEE_BigIntMulMod
0000883c g     F .text	00000006 __TEE_Panic
000130ac g     O .bss	00000020 ta_params
000066b8 g     F .text	000000e2 __mpa_abs_mul
00001798 g     F .text	00000220 bget
000005bc g     F .text	00000004 TEE_Free
00000d04 g     F .text	00000014 utee_se_reader_get_name
000005cc g     F .text	00000006 TEE_CacheInvalidate
000009e4 g     F .text	00000014 utee_cipher_init
00001224 g     F .text	0000000c _assert_break
00001424 g     F .text	00000060 TEE_BigIntAddMod
00000c00 g     F .text	00000014 utee_storage_free_enum
00000b08 g     F .text	00000014 utee_authenc_update_aad
000046fc g     F .text	0000005e mpa_get_bit
0000b000 g     O .data	0000000f str
0000633c g     F .text	00000028 mpa_init_scratch_mem
0000043c g     F .text	00000004 TEE_MemCompare
00003154 g     F .text	00000068 __vsnprintf
00000840 g     F .text	00000014 utee_panic
00000274 g     F .text	00000044 TEE_OpenTASession
000016ec g     F .text	00000014 trace_ext_puts
00000e28 g     F .text	00000014 utee_cryp_random_number_add_entropy
000011b0 g     F .text	00000048 tee_user_mem_garbage
00001700 g     F .text	00000006 trace_ext_get_thread_id
000005c0 g     F .text	00000006 TEE_CacheClean
00000894 g     F .text	00000018 utee_open_ta_session
00005270 g     F .text	00000052 __mpa_div_dword
000045b0 g     F .text	0000003a __mpa_set_unused_digits_to_zero
00008f18 g     O .rodata	00000008 const_largest_deci_base
000080b4 g     F .text	00000014 mpa_get_str_size
00001140 g     F .text	00000070 tee_user_mem_check_heap
0000000c g       *ABS*	00000000 linker_res_funcs_ZI_sections_size
000009cc g     F .text	00000018 utee_hash_final
00003078 g     F .text	0000007a strlen
000015ec g     F .text	00000018 TEE_BigIntComputeExtendedGcd
00006140 g     F .text	000001ba mpa_extended_gcd
0000867c g     F .text	0000004c mpa_add_mod
0000000c g       *ABS*	00000000 linker_rel_dyn_GOT
00000b94 g     F .text	00000018 utee_storage_obj_open
000008c0 g     F .text	00000018 utee_invoke_ta_command
00008374 g     F .text	00000080 mpa_get_str
00000928 g     F .text	00000014 utee_wait
00000854 g     F .text	00000014 utee_dummy
0000885e g     F .text	00000004 utee_free
00001130 g     F .text	00000010 tee_user_mem_mark_heap
00000444 g     F .text	00000040 TEE_GetSystemTime
00000000 g     O .ta_head	00000020 ta_head
00001ac0 g     F .text	0000030c brel
00006364 g     F .text	00000116 mpa_alloc_static_temp_var_size
0000093c g     F .text	00000014 utee_get_time
000047cc g     F .text	00000120 __mpa_montgomery_mul_add
0000041e g     F .text	0000000e TEE_SetInstanceData
00000900 g     F .text	00000014 utee_unmask_cancellation
000042d8 g     F .text	00000000 __aeabi_ldivmod
000008ec g     F .text	00000014 utee_check_access_rights
00000d2c g     F .text	00000014 utee_se_reader_close_sessions
00000ca0 g     F .text	00000014 utee_cryp_obj_generate_key
000047b4 g     F .text	00000018 mpa_constant_one
000002b8 g     F .text	0000003c TEE_CloseTASession
00002018 g     F .text	00000028 malloc_get_max_allocated
00006f18 g     F .text	00000062 __mpa_full_adder
00007208 g     F .text	000000de __mpa_abs_sub
00002958 g     F .text	0000001e free
00001edc g     F .text	000000bc bstats



Disassembly of section .text:

00000020 <TA_CreateEntryPoint>:
TA_CreateEntryPoint():
/home/zengwei/work/rk3288-android8.1/android8.1-r46/external/rk_tee_user/ta/testapp/testapp_ta.c:26
      20:	b081      	sub	sp, #4
      22:	9700      	str	r7, [sp, #0]
      24:	af00      	add	r7, sp, #0
/home/zengwei/work/rk3288-android8.1/android8.1-r46/external/rk_tee_user/ta/testapp/testapp_ta.c:27
      26:	2300      	movs	r3, #0
/home/zengwei/work/rk3288-android8.1/android8.1-r46/external/rk_tee_user/ta/testapp/testapp_ta.c:28
      28:	4618      	mov	r0, r3
      2a:	46bd      	mov	sp, r7
      2c:	f85d 7b04 	ldr.w	r7, [sp], #4
      30:	4770      	bx	lr
      32:	bf00      	nop

00000034 <TA_DestroyEntryPoint>:
TA_DestroyEntryPoint():
/home/zengwei/work/rk3288-android8.1/android8.1-r46/external/rk_tee_user/ta/testapp/testapp_ta.c:35
      34:	b081      	sub	sp, #4
      36:	9700      	str	r7, [sp, #0]
      38:	af00      	add	r7, sp, #0
/home/zengwei/work/rk3288-android8.1/android8.1-r46/external/rk_tee_user/ta/testapp/testapp_ta.c:36
      3a:	46bd      	mov	sp, r7
      3c:	f85d 7b04 	ldr.w	r7, [sp], #4
      40:	4770      	bx	lr
      42:	bf00      	nop

00000044 <TA_OpenSessionEntryPoint>:
TA_OpenSessionEntryPoint():
/home/zengwei/work/rk3288-android8.1/android8.1-r46/external/rk_tee_user/ta/testapp/testapp_ta.c:45
      44:	b082      	sub	sp, #8
      46:	e9cd 7e00 	strd	r7, lr, [sp]
      4a:	b088      	sub	sp, #32
      4c:	af02      	add	r7, sp, #8
      4e:	60f8      	str	r0, [r7, #12]
      50:	60b9      	str	r1, [r7, #8]
      52:	607a      	str	r2, [r7, #4]
/home/zengwei/work/rk3288-android8.1/android8.1-r46/external/rk_tee_user/ta/testapp/testapp_ta.c:46
      54:	2300      	movs	r3, #0
      56:	617b      	str	r3, [r7, #20]
/home/zengwei/work/rk3288-android8.1/android8.1-r46/external/rk_tee_user/ta/testapp/testapp_ta.c:50
      58:	68fa      	ldr	r2, [r7, #12]
      5a:	697b      	ldr	r3, [r7, #20]
      5c:	429a      	cmp	r2, r3
      5e:	d003      	beq.n	68 <TA_OpenSessionEntryPoint+0x24>
/home/zengwei/work/rk3288-android8.1/android8.1-r46/external/rk_tee_user/ta/testapp/testapp_ta.c:51
      60:	2306      	movs	r3, #6
      62:	f6cf 73ff 	movt	r3, #65535	; 0xffff
      66:	e00b      	b.n	80 <TA_OpenSessionEntryPoint+0x3c>
/home/zengwei/work/rk3288-android8.1/android8.1-r46/external/rk_tee_user/ta/testapp/testapp_ta.c:61
      68:	4b07      	ldr	r3, [pc, #28]	; (88 <TA_OpenSessionEntryPoint+0x44>)
      6a:	447b      	add	r3, pc
      6c:	9300      	str	r3, [sp, #0]
      6e:	4b07      	ldr	r3, [pc, #28]	; (8c <TA_OpenSessionEntryPoint+0x48>)
      70:	447b      	add	r3, pc
      72:	4618      	mov	r0, r3
      74:	213d      	movs	r1, #61	; 0x3d
      76:	2202      	movs	r2, #2
      78:	2301      	movs	r3, #1
      7a:	f003 ffdf 	bl	403c <trace_printf>
/home/zengwei/work/rk3288-android8.1/android8.1-r46/external/rk_tee_user/ta/testapp/testapp_ta.c:63
      7e:	2300      	movs	r3, #0
/home/zengwei/work/rk3288-android8.1/android8.1-r46/external/rk_tee_user/ta/testapp/testapp_ta.c:64
      80:	4618      	mov	r0, r3
      82:	3718      	adds	r7, #24
      84:	46bd      	mov	sp, r7
      86:	bd80      	pop	{r7, pc}
      88:	0000883a 	.word	0x0000883a
      8c:	000088b8 	.word	0x000088b8

00000090 <TA_CloseSessionEntryPoint>:
TA_CloseSessionEntryPoint():
/home/zengwei/work/rk3288-android8.1/android8.1-r46/external/rk_tee_user/ta/testapp/testapp_ta.c:71
      90:	b082      	sub	sp, #8
      92:	e9cd 7e00 	strd	r7, lr, [sp]
      96:	b084      	sub	sp, #16
      98:	af02      	add	r7, sp, #8
      9a:	6078      	str	r0, [r7, #4]
/home/zengwei/work/rk3288-android8.1/android8.1-r46/external/rk_tee_user/ta/testapp/testapp_ta.c:73
      9c:	4b06      	ldr	r3, [pc, #24]	; (b8 <TA_CloseSessionEntryPoint+0x28>)
      9e:	447b      	add	r3, pc
      a0:	9300      	str	r3, [sp, #0]
      a2:	4b06      	ldr	r3, [pc, #24]	; (bc <TA_CloseSessionEntryPoint+0x2c>)
      a4:	447b      	add	r3, pc
      a6:	4618      	mov	r0, r3
      a8:	2149      	movs	r1, #73	; 0x49
      aa:	2202      	movs	r2, #2
      ac:	2301      	movs	r3, #1
      ae:	f003 ffc5 	bl	403c <trace_printf>
/home/zengwei/work/rk3288-android8.1/android8.1-r46/external/rk_tee_user/ta/testapp/testapp_ta.c:74
      b2:	3708      	adds	r7, #8
      b4:	46bd      	mov	sp, r7
      b6:	bd80      	pop	{r7, pc}
      b8:	0000881a 	.word	0x0000881a
      bc:	000088a0 	.word	0x000088a0

000000c0 <TA_InvokeCommandEntryPoint>:
TA_InvokeCommandEntryPoint():
/home/zengwei/work/rk3288-android8.1/android8.1-r46/external/rk_tee_user/ta/testapp/testapp_ta.c:83
      c0:	b082      	sub	sp, #8
      c2:	e9cd 7e00 	strd	r7, lr, [sp]
      c6:	b088      	sub	sp, #32
      c8:	af02      	add	r7, sp, #8
      ca:	60f8      	str	r0, [r7, #12]
      cc:	60b9      	str	r1, [r7, #8]
      ce:	607a      	str	r2, [r7, #4]
      d0:	603b      	str	r3, [r7, #0]
/home/zengwei/work/rk3288-android8.1/android8.1-r46/external/rk_tee_user/ta/testapp/testapp_ta.c:84
      d2:	f240 5373 	movw	r3, #1395	; 0x573
      d6:	617b      	str	r3, [r7, #20]
/home/zengwei/work/rk3288-android8.1/android8.1-r46/external/rk_tee_user/ta/testapp/testapp_ta.c:91
      d8:	687a      	ldr	r2, [r7, #4]
      da:	697b      	ldr	r3, [r7, #20]
      dc:	429a      	cmp	r2, r3
      de:	d003      	beq.n	e8 <TA_InvokeCommandEntryPoint+0x28>
/home/zengwei/work/rk3288-android8.1/android8.1-r46/external/rk_tee_user/ta/testapp/testapp_ta.c:92
      e0:	2306      	movs	r3, #6
      e2:	f6cf 73ff 	movt	r3, #65535	; 0xffff
      e6:	e060      	b.n	1aa <TA_InvokeCommandEntryPoint+0xea>
/home/zengwei/work/rk3288-android8.1/android8.1-r46/external/rk_tee_user/ta/testapp/testapp_ta.c:94
      e8:	68bb      	ldr	r3, [r7, #8]
      ea:	2b66      	cmp	r3, #102	; 0x66
      ec:	d00e      	beq.n	10c <TA_InvokeCommandEntryPoint+0x4c>
      ee:	2b67      	cmp	r3, #103	; 0x67
      f0:	d01f      	beq.n	132 <TA_InvokeCommandEntryPoint+0x72>
      f2:	2b65      	cmp	r3, #101	; 0x65
      f4:	d156      	bne.n	1a4 <TA_InvokeCommandEntryPoint+0xe4>
/home/zengwei/work/rk3288-android8.1/android8.1-r46/external/rk_tee_user/ta/testapp/testapp_ta.c:96
      f6:	683b      	ldr	r3, [r7, #0]
      f8:	681b      	ldr	r3, [r3, #0]
      fa:	1c5a      	adds	r2, r3, #1
      fc:	683b      	ldr	r3, [r7, #0]
      fe:	601a      	str	r2, [r3, #0]
/home/zengwei/work/rk3288-android8.1/android8.1-r46/external/rk_tee_user/ta/testapp/testapp_ta.c:97
     100:	683b      	ldr	r3, [r7, #0]
     102:	681a      	ldr	r2, [r3, #0]
     104:	683b      	ldr	r3, [r7, #0]
     106:	605a      	str	r2, [r3, #4]
/home/zengwei/work/rk3288-android8.1/android8.1-r46/external/rk_tee_user/ta/testapp/testapp_ta.c:98
     108:	2300      	movs	r3, #0
     10a:	e04e      	b.n	1aa <TA_InvokeCommandEntryPoint+0xea>
/home/zengwei/work/rk3288-android8.1/android8.1-r46/external/rk_tee_user/ta/testapp/testapp_ta.c:101
     10c:	683b      	ldr	r3, [r7, #0]
     10e:	3308      	adds	r3, #8
     110:	220f      	movs	r2, #15
     112:	605a      	str	r2, [r3, #4]
/home/zengwei/work/rk3288-android8.1/android8.1-r46/external/rk_tee_user/ta/testapp/testapp_ta.c:102
     114:	683b      	ldr	r3, [r7, #0]
     116:	3308      	adds	r3, #8
     118:	681a      	ldr	r2, [r3, #0]
/home/zengwei/work/rk3288-android8.1/android8.1-r46/external/rk_tee_user/ta/testapp/testapp_ta.c:103
     11a:	683b      	ldr	r3, [r7, #0]
     11c:	3308      	adds	r3, #8
/home/zengwei/work/rk3288-android8.1/android8.1-r46/external/rk_tee_user/ta/testapp/testapp_ta.c:102
     11e:	685b      	ldr	r3, [r3, #4]
     120:	4610      	mov	r0, r2
     122:	4a24      	ldr	r2, [pc, #144]	; (1b4 <TA_InvokeCommandEntryPoint+0xf4>)
     124:	447a      	add	r2, pc
     126:	4611      	mov	r1, r2
     128:	461a      	mov	r2, r3
     12a:	f000 f985 	bl	438 <TEE_MemMove>
/home/zengwei/work/rk3288-android8.1/android8.1-r46/external/rk_tee_user/ta/testapp/testapp_ta.c:104
     12e:	2300      	movs	r3, #0
     130:	e03b      	b.n	1aa <TA_InvokeCommandEntryPoint+0xea>
/home/zengwei/work/rk3288-android8.1/android8.1-r46/external/rk_tee_user/ta/testapp/testapp_ta.c:107
     132:	683b      	ldr	r3, [r7, #0]
     134:	3310      	adds	r3, #16
     136:	681a      	ldr	r2, [r3, #0]
/home/zengwei/work/rk3288-android8.1/android8.1-r46/external/rk_tee_user/ta/testapp/testapp_ta.c:109
     138:	683b      	ldr	r3, [r7, #0]
     13a:	3310      	adds	r3, #16
/home/zengwei/work/rk3288-android8.1/android8.1-r46/external/rk_tee_user/ta/testapp/testapp_ta.c:107
     13c:	685b      	ldr	r3, [r3, #4]
     13e:	4610      	mov	r0, r2
     140:	4a1d      	ldr	r2, [pc, #116]	; (1b8 <TA_InvokeCommandEntryPoint+0xf8>)
     142:	447a      	add	r2, pc
     144:	4611      	mov	r1, r2
     146:	461a      	mov	r2, r3
     148:	f000 f978 	bl	43c <TEE_MemCompare>
     14c:	4603      	mov	r3, r0
     14e:	2b00      	cmp	r3, #0
     150:	d119      	bne.n	186 <TA_InvokeCommandEntryPoint+0xc6>
/home/zengwei/work/rk3288-android8.1/android8.1-r46/external/rk_tee_user/ta/testapp/testapp_ta.c:110
     152:	4b1a      	ldr	r3, [pc, #104]	; (1bc <TA_InvokeCommandEntryPoint+0xfc>)
     154:	447b      	add	r3, pc
     156:	9300      	str	r3, [sp, #0]
     158:	4b19      	ldr	r3, [pc, #100]	; (1c0 <TA_InvokeCommandEntryPoint+0x100>)
     15a:	447b      	add	r3, pc
     15c:	4618      	mov	r0, r3
     15e:	216e      	movs	r1, #110	; 0x6e
     160:	2202      	movs	r2, #2
     162:	2301      	movs	r3, #1
     164:	f003 ff6a 	bl	403c <trace_printf>
/home/zengwei/work/rk3288-android8.1/android8.1-r46/external/rk_tee_user/ta/testapp/testapp_ta.c:115
     168:	683b      	ldr	r3, [r7, #0]
     16a:	3310      	adds	r3, #16
     16c:	681a      	ldr	r2, [r3, #0]
/home/zengwei/work/rk3288-android8.1/android8.1-r46/external/rk_tee_user/ta/testapp/testapp_ta.c:116
     16e:	683b      	ldr	r3, [r7, #0]
     170:	3310      	adds	r3, #16
/home/zengwei/work/rk3288-android8.1/android8.1-r46/external/rk_tee_user/ta/testapp/testapp_ta.c:115
     172:	685b      	ldr	r3, [r3, #4]
     174:	4610      	mov	r0, r2
     176:	4a13      	ldr	r2, [pc, #76]	; (1c4 <TA_InvokeCommandEntryPoint+0x104>)
     178:	447a      	add	r2, pc
     17a:	4611      	mov	r1, r2
     17c:	461a      	mov	r2, r3
     17e:	f000 f95b 	bl	438 <TEE_MemMove>
/home/zengwei/work/rk3288-android8.1/android8.1-r46/external/rk_tee_user/ta/testapp/testapp_ta.c:117
     182:	2300      	movs	r3, #0
     184:	e011      	b.n	1aa <TA_InvokeCommandEntryPoint+0xea>
/home/zengwei/work/rk3288-android8.1/android8.1-r46/external/rk_tee_user/ta/testapp/testapp_ta.c:112
     186:	4b10      	ldr	r3, [pc, #64]	; (1c8 <TA_InvokeCommandEntryPoint+0x108>)
     188:	447b      	add	r3, pc
     18a:	9300      	str	r3, [sp, #0]
     18c:	4b0f      	ldr	r3, [pc, #60]	; (1cc <TA_InvokeCommandEntryPoint+0x10c>)
     18e:	447b      	add	r3, pc
     190:	4618      	mov	r0, r3
     192:	2170      	movs	r1, #112	; 0x70
     194:	2202      	movs	r2, #2
     196:	2301      	movs	r3, #1
     198:	f003 ff50 	bl	403c <trace_printf>
/home/zengwei/work/rk3288-android8.1/android8.1-r46/external/rk_tee_user/ta/testapp/testapp_ta.c:113
     19c:	2306      	movs	r3, #6
     19e:	f6cf 73ff 	movt	r3, #65535	; 0xffff
     1a2:	e002      	b.n	1aa <TA_InvokeCommandEntryPoint+0xea>
/home/zengwei/work/rk3288-android8.1/android8.1-r46/external/rk_tee_user/ta/testapp/testapp_ta.c:120
     1a4:	2306      	movs	r3, #6
     1a6:	f6cf 73ff 	movt	r3, #65535	; 0xffff
/home/zengwei/work/rk3288-android8.1/android8.1-r46/external/rk_tee_user/ta/testapp/testapp_ta.c:122
     1aa:	4618      	mov	r0, r3
     1ac:	3718      	adds	r7, #24
     1ae:	46bd      	mov	sp, r7
     1b0:	bd80      	pop	{r7, pc}
     1b2:	bf00      	nop
     1b4:	0000aed8 	.word	0x0000aed8
     1b8:	0000878a 	.word	0x0000878a
     1bc:	00008794 	.word	0x00008794
     1c0:	00008806 	.word	0x00008806
     1c4:	0000ae94 	.word	0x0000ae94
     1c8:	00008778 	.word	0x00008778
     1cc:	000087d2 	.word	0x000087d2

000001d0 <tahead_get_trace_level>:
tahead_get_trace_level():
/home/zengwei/work/rk3288-android8.1/android8.1-r46/external/rk_tee_user/export-user_ta/src/user_ta_header.c:111
     1d0:	b081      	sub	sp, #4
     1d2:	9700      	str	r7, [sp, #0]
     1d4:	af00      	add	r7, sp, #0
/home/zengwei/work/rk3288-android8.1/android8.1-r46/external/rk_tee_user/export-user_ta/src/user_ta_header.c:115
     1d6:	2302      	movs	r3, #2
/home/zengwei/work/rk3288-android8.1/android8.1-r46/external/rk_tee_user/export-user_ta/src/user_ta_header.c:116
     1d8:	4618      	mov	r0, r3
     1da:	46bd      	mov	sp, r7
     1dc:	f85d 7b04 	ldr.w	r7, [sp], #4
     1e0:	4770      	bx	lr
     1e2:	bf00      	nop

000001e4 <__utee_from_param>:
__utee_from_param():
/home/zhangzj/secure/optee_gerrit/optee_os/lib/libutee/tee_api.c:42
     1e4:	b570      	push	{r4, r5, r6, lr}
/home/zhangzj/secure/optee_gerrit/optee_os/lib/libutee/tee_api.c:45
     1e6:	2300      	movs	r3, #0
     1e8:	4616      	mov	r6, r2
     1ea:	e9c0 1300 	strd	r1, r3, [r0]
/home/zhangzj/secure/optee_gerrit/optee_os/lib/libutee/tee_api.c:47
     1ee:	fa21 f403 	lsr.w	r4, r1, r3
     1f2:	f004 040f 	and.w	r4, r4, #15
     1f6:	3c01      	subs	r4, #1
     1f8:	2c06      	cmp	r4, #6
     1fa:	d80e      	bhi.n	21a <__utee_from_param+0x36>
     1fc:	e8df f004 	tbb	[pc, r4]
     200:	0d040404 	.word	0x0d040404
     204:	0404      	.short	0x0404
     206:	04          	.byte	0x04
     207:	00          	.byte	0x00
/home/zhangzj/secure/optee_gerrit/optee_os/lib/libutee/tee_api.c:57
     208:	f852 5013 	ldr.w	r5, [r2, r3, lsl #1]
     20c:	2400      	movs	r4, #0
     20e:	60c4      	str	r4, [r0, #12]
     210:	6085      	str	r5, [r0, #8]
/home/zhangzj/secure/optee_gerrit/optee_os/lib/libutee/tee_api.c:58
     212:	6875      	ldr	r5, [r6, #4]
     214:	6144      	str	r4, [r0, #20]
     216:	6105      	str	r5, [r0, #16]
/home/zhangzj/secure/optee_gerrit/optee_os/lib/libutee/tee_api.c:59
     218:	e005      	b.n	226 <__utee_from_param+0x42>
/home/zhangzj/secure/optee_gerrit/optee_os/lib/libutee/tee_api.c:61
     21a:	2400      	movs	r4, #0
     21c:	2500      	movs	r5, #0
     21e:	e9c0 4502 	strd	r4, r5, [r0, #8]
/home/zhangzj/secure/optee_gerrit/optee_os/lib/libutee/tee_api.c:62
     222:	e9c0 4504 	strd	r4, r5, [r0, #16]
     226:	3304      	adds	r3, #4
     228:	3608      	adds	r6, #8
/home/zhangzj/secure/optee_gerrit/optee_os/lib/libutee/tee_api.c:46 (discriminator 2)
     22a:	2b10      	cmp	r3, #16
     22c:	f100 0010 	add.w	r0, r0, #16
     230:	d1dd      	bne.n	1ee <__utee_from_param+0xa>
/home/zhangzj/secure/optee_gerrit/optee_os/lib/libutee/tee_api.c:66
     232:	bd70      	pop	{r4, r5, r6, pc}

00000234 <__utee_to_param>:
__utee_to_param():
/home/zhangzj/secure/optee_gerrit/optee_os/lib/libutee/tee_api.c:70
     234:	b5f0      	push	{r4, r5, r6, r7, lr}
/home/zhangzj/secure/optee_gerrit/optee_os/lib/libutee/tee_api.c:72
     236:	2300      	movs	r3, #0
     238:	6816      	ldr	r6, [r2, #0]
     23a:	4605      	mov	r5, r0
/home/zhangzj/secure/optee_gerrit/optee_os/lib/libutee/tee_api.c:78
     23c:	fa26 f403 	lsr.w	r4, r6, r3
/home/zhangzj/secure/optee_gerrit/optee_os/lib/libutee/tee_api.c:75
     240:	f8d2 e008 	ldr.w	lr, [r2, #8]
/home/zhangzj/secure/optee_gerrit/optee_os/lib/libutee/tee_api.c:76
     244:	6917      	ldr	r7, [r2, #16]
/home/zhangzj/secure/optee_gerrit/optee_os/lib/libutee/tee_api.c:78
     246:	f004 040f 	and.w	r4, r4, #15
     24a:	3c01      	subs	r4, #1
     24c:	2c06      	cmp	r4, #6
     24e:	d808      	bhi.n	262 <__utee_to_param+0x2e>
     250:	e8df f004 	tbb	[pc, r4]
     254:	07040404 	.word	0x07040404
     258:	0404      	.short	0x0404
     25a:	04          	.byte	0x04
     25b:	00          	.byte	0x00
/home/zhangzj/secure/optee_gerrit/optee_os/lib/libutee/tee_api.c:88
     25c:	f840 e013 	str.w	lr, [r0, r3, lsl #1]
/home/zhangzj/secure/optee_gerrit/optee_os/lib/libutee/tee_api.c:89
     260:	606f      	str	r7, [r5, #4]
     262:	3304      	adds	r3, #4
     264:	3210      	adds	r2, #16
/home/zhangzj/secure/optee_gerrit/optee_os/lib/libutee/tee_api.c:74 (discriminator 2)
     266:	2b10      	cmp	r3, #16
     268:	f105 0508 	add.w	r5, r5, #8
     26c:	d1e6      	bne.n	23c <__utee_to_param+0x8>
/home/zhangzj/secure/optee_gerrit/optee_os/lib/libutee/tee_api.c:96
     26e:	b101      	cbz	r1, 272 <__utee_to_param+0x3e>
/home/zhangzj/secure/optee_gerrit/optee_os/lib/libutee/tee_api.c:97
     270:	600e      	str	r6, [r1, #0]
     272:	bdf0      	pop	{r4, r5, r6, r7, pc}

00000274 <TEE_OpenTASession>:
TEE_OpenTASession():
/home/zhangzj/secure/optee_gerrit/optee_os/lib/libutee/tee_api.c:105
     274:	b5f0      	push	{r4, r5, r6, r7, lr}
     276:	b097      	sub	sp, #92	; 0x5c
/home/zhangzj/secure/optee_gerrit/optee_os/lib/libutee/tee_api.c:110
     278:	ac04      	add	r4, sp, #16
/home/zhangzj/secure/optee_gerrit/optee_os/lib/libutee/tee_api.c:105
     27a:	460d      	mov	r5, r1
     27c:	4607      	mov	r7, r0
/home/zhangzj/secure/optee_gerrit/optee_os/lib/libutee/tee_api.c:110
     27e:	4611      	mov	r1, r2
     280:	4620      	mov	r0, r4
     282:	461a      	mov	r2, r3
/home/zhangzj/secure/optee_gerrit/optee_os/lib/libutee/tee_api.c:105
     284:	461e      	mov	r6, r3
/home/zhangzj/secure/optee_gerrit/optee_os/lib/libutee/tee_api.c:110
     286:	f7ff ffad 	bl	1e4 <__utee_from_param>
/home/zhangzj/secure/optee_gerrit/optee_os/lib/libutee/tee_api.c:111
     28a:	9b1d      	ldr	r3, [sp, #116]	; 0x74
     28c:	4629      	mov	r1, r5
     28e:	4622      	mov	r2, r4
     290:	4638      	mov	r0, r7
     292:	9300      	str	r3, [sp, #0]
     294:	ab03      	add	r3, sp, #12
     296:	f000 eafe 	blx	894 <utee_open_ta_session>
     29a:	4605      	mov	r5, r0
/home/zhangzj/secure/optee_gerrit/optee_os/lib/libutee/tee_api.c:113
     29c:	2100      	movs	r1, #0
     29e:	4630      	mov	r0, r6
     2a0:	4622      	mov	r2, r4
     2a2:	f7ff ffc7 	bl	234 <__utee_to_param>
/home/zhangzj/secure/optee_gerrit/optee_os/lib/libutee/tee_api.c:119
     2a6:	b10d      	cbz	r5, 2ac <TEE_OpenTASession+0x38>
/home/zhangzj/secure/optee_gerrit/optee_os/lib/libutee/tee_api.c:120
     2a8:	2300      	movs	r3, #0
     2aa:	9303      	str	r3, [sp, #12]
/home/zhangzj/secure/optee_gerrit/optee_os/lib/libutee/tee_api.c:122
     2ac:	9a03      	ldr	r2, [sp, #12]
/home/zhangzj/secure/optee_gerrit/optee_os/lib/libutee/tee_api.c:124
     2ae:	4628      	mov	r0, r5
/home/zhangzj/secure/optee_gerrit/optee_os/lib/libutee/tee_api.c:122
     2b0:	9b1c      	ldr	r3, [sp, #112]	; 0x70
     2b2:	601a      	str	r2, [r3, #0]
/home/zhangzj/secure/optee_gerrit/optee_os/lib/libutee/tee_api.c:124
     2b4:	b017      	add	sp, #92	; 0x5c
     2b6:	bdf0      	pop	{r4, r5, r6, r7, pc}

000002b8 <TEE_CloseTASession>:
TEE_CloseTASession():
/home/zhangzj/secure/optee_gerrit/optee_os/lib/libutee/tee_api.c:127
     2b8:	b513      	push	{r0, r1, r4, lr}
/home/zhangzj/secure/optee_gerrit/optee_os/lib/libutee/tee_api.c:128
     2ba:	b1a0      	cbz	r0, 2e6 <TEE_CloseTASession+0x2e>
/home/zhangzj/secure/optee_gerrit/optee_os/lib/libutee/tee_api.c:129
     2bc:	f000 eaf6 	blx	8ac <utee_close_ta_session>
/home/zhangzj/secure/optee_gerrit/optee_os/lib/libutee/tee_api.c:131
     2c0:	4604      	mov	r4, r0
     2c2:	b180      	cbz	r0, 2e6 <TEE_CloseTASession+0x2e>
/home/zhangzj/secure/optee_gerrit/optee_os/lib/libutee/tee_api.c:132
     2c4:	4b09      	ldr	r3, [pc, #36]	; (2ec <TEE_CloseTASession+0x34>)
     2c6:	2201      	movs	r2, #1
     2c8:	2184      	movs	r1, #132	; 0x84
     2ca:	447b      	add	r3, pc
     2cc:	e9cd 3000 	strd	r3, r0, [sp]
     2d0:	4807      	ldr	r0, [pc, #28]	; (2f0 <TEE_CloseTASession+0x38>)
     2d2:	4613      	mov	r3, r2
     2d4:	4478      	add	r0, pc
     2d6:	f003 feb1 	bl	403c <trace_printf>
     2da:	4620      	mov	r0, r4
/home/zhangzj/secure/optee_gerrit/optee_os/lib/libutee/tee_api.c:134
     2dc:	b002      	add	sp, #8
     2de:	e8bd 4010 	ldmia.w	sp!, {r4, lr}
/home/zhangzj/secure/optee_gerrit/optee_os/lib/libutee/tee_api.c:132
     2e2:	f008 baab 	b.w	883c <__TEE_Panic>
/home/zhangzj/secure/optee_gerrit/optee_os/lib/libutee/tee_api.c:134
     2e6:	b002      	add	sp, #8
     2e8:	bd10      	pop	{r4, pc}
     2ea:	bf00      	nop
     2ec:	00009ad7 	.word	0x00009ad7
     2f0:	00009a20 	.word	0x00009a20

000002f4 <TEE_InvokeTACommand>:
TEE_InvokeTACommand():
/home/zhangzj/secure/optee_gerrit/optee_os/lib/libutee/tee_api.c:140
     2f4:	e92d 41f0 	stmdb	sp!, {r4, r5, r6, r7, r8, lr}
     2f8:	b096      	sub	sp, #88	; 0x58
/home/zhangzj/secure/optee_gerrit/optee_os/lib/libutee/tee_api.c:145
     2fa:	ad04      	add	r5, sp, #16
/home/zhangzj/secure/optee_gerrit/optee_os/lib/libutee/tee_api.c:140
     2fc:	4614      	mov	r4, r2
/home/zhangzj/secure/optee_gerrit/optee_os/lib/libutee/tee_api.c:145
     2fe:	9a1c      	ldr	r2, [sp, #112]	; 0x70
/home/zhangzj/secure/optee_gerrit/optee_os/lib/libutee/tee_api.c:140
     300:	4680      	mov	r8, r0
     302:	460f      	mov	r7, r1
     304:	9e1d      	ldr	r6, [sp, #116]	; 0x74
/home/zhangzj/secure/optee_gerrit/optee_os/lib/libutee/tee_api.c:145
     306:	4619      	mov	r1, r3
     308:	4628      	mov	r0, r5
     30a:	f7ff ff6b 	bl	1e4 <__utee_from_param>
/home/zhangzj/secure/optee_gerrit/optee_os/lib/libutee/tee_api.c:146
     30e:	ab03      	add	r3, sp, #12
     310:	4622      	mov	r2, r4
     312:	4639      	mov	r1, r7
     314:	4640      	mov	r0, r8
     316:	9300      	str	r3, [sp, #0]
     318:	462b      	mov	r3, r5
     31a:	f000 ead2 	blx	8c0 <utee_invoke_ta_command>
     31e:	4604      	mov	r4, r0
/home/zhangzj/secure/optee_gerrit/optee_os/lib/libutee/tee_api.c:149
     320:	2100      	movs	r1, #0
     322:	981c      	ldr	r0, [sp, #112]	; 0x70
     324:	462a      	mov	r2, r5
     326:	f7ff ff85 	bl	234 <__utee_to_param>
     32a:	9b03      	ldr	r3, [sp, #12]
/home/zhangzj/secure/optee_gerrit/optee_os/lib/libutee/tee_api.c:151
     32c:	b106      	cbz	r6, 330 <TEE_InvokeTACommand+0x3c>
/home/zhangzj/secure/optee_gerrit/optee_os/lib/libutee/tee_api.c:152
     32e:	6033      	str	r3, [r6, #0]
/home/zhangzj/secure/optee_gerrit/optee_os/lib/libutee/tee_api.c:154
     330:	2b04      	cmp	r3, #4
     332:	d015      	beq.n	360 <TEE_InvokeTACommand+0x6c>
/home/zhangzj/secure/optee_gerrit/optee_os/lib/libutee/tee_api.c:157
     334:	b1a4      	cbz	r4, 360 <TEE_InvokeTACommand+0x6c>
/home/zhangzj/secure/optee_gerrit/optee_os/lib/libutee/tee_api.c:157 (discriminator 1)
     336:	4b0c      	ldr	r3, [pc, #48]	; (368 <TEE_InvokeTACommand+0x74>)
     338:	429c      	cmp	r4, r3
     33a:	d011      	beq.n	360 <TEE_InvokeTACommand+0x6c>
/home/zhangzj/secure/optee_gerrit/optee_os/lib/libutee/tee_api.c:158
     33c:	4b0b      	ldr	r3, [pc, #44]	; (36c <TEE_InvokeTACommand+0x78>)
     33e:	429c      	cmp	r4, r3
     340:	d00e      	beq.n	360 <TEE_InvokeTACommand+0x6c>
/home/zhangzj/secure/optee_gerrit/optee_os/lib/libutee/tee_api.c:160
     342:	4b0b      	ldr	r3, [pc, #44]	; (370 <TEE_InvokeTACommand+0x7c>)
     344:	2201      	movs	r2, #1
     346:	21a0      	movs	r1, #160	; 0xa0
     348:	480a      	ldr	r0, [pc, #40]	; (374 <TEE_InvokeTACommand+0x80>)
     34a:	447b      	add	r3, pc
     34c:	4478      	add	r0, pc
     34e:	e9cd 3400 	strd	r3, r4, [sp]
     352:	3013      	adds	r0, #19
     354:	4613      	mov	r3, r2
     356:	f003 fe71 	bl	403c <trace_printf>
     35a:	4620      	mov	r0, r4
     35c:	f008 fa6e 	bl	883c <__TEE_Panic>
/home/zhangzj/secure/optee_gerrit/optee_os/lib/libutee/tee_api.c:163
     360:	4620      	mov	r0, r4
     362:	b016      	add	sp, #88	; 0x58
     364:	e8bd 81f0 	ldmia.w	sp!, {r4, r5, r6, r7, r8, pc}
     368:	ffff000c 	.word	0xffff000c
     36c:	ffff3024 	.word	0xffff3024
     370:	00009a57 	.word	0x00009a57
     374:	000099a8 	.word	0x000099a8

00000378 <TEE_GetCancellationFlag>:
TEE_GetCancellationFlag():
/home/zhangzj/secure/optee_gerrit/optee_os/lib/libutee/tee_api.c:168
     378:	b507      	push	{r0, r1, r2, lr}
/home/zhangzj/secure/optee_gerrit/optee_os/lib/libutee/tee_api.c:170
     37a:	a801      	add	r0, sp, #4
     37c:	f000 eaac 	blx	8d8 <utee_get_cancellation_flag>
/home/zhangzj/secure/optee_gerrit/optee_os/lib/libutee/tee_api.c:172
     380:	b108      	cbz	r0, 386 <TEE_GetCancellationFlag+0xe>
/home/zhangzj/secure/optee_gerrit/optee_os/lib/libutee/tee_api.c:173
     382:	2300      	movs	r3, #0
     384:	9301      	str	r3, [sp, #4]
/home/zhangzj/secure/optee_gerrit/optee_os/lib/libutee/tee_api.c:175
     386:	9801      	ldr	r0, [sp, #4]
     388:	3000      	adds	r0, #0
     38a:	bf18      	it	ne
     38c:	2001      	movne	r0, #1
     38e:	b003      	add	sp, #12
     390:	f85d fb04 	ldr.w	pc, [sp], #4

00000394 <TEE_UnmaskCancellation>:
TEE_UnmaskCancellation():
/home/zhangzj/secure/optee_gerrit/optee_os/lib/libutee/tee_api.c:178
     394:	b51f      	push	{r0, r1, r2, r3, r4, lr}
/home/zhangzj/secure/optee_gerrit/optee_os/lib/libutee/tee_api.c:180
     396:	a803      	add	r0, sp, #12
     398:	f000 eab2 	blx	900 <utee_unmask_cancellation>
/home/zhangzj/secure/optee_gerrit/optee_os/lib/libutee/tee_api.c:182
     39c:	4604      	mov	r4, r0
     39e:	b170      	cbz	r0, 3be <TEE_UnmaskCancellation+0x2a>
/home/zhangzj/secure/optee_gerrit/optee_os/lib/libutee/tee_api.c:183
     3a0:	4b0a      	ldr	r3, [pc, #40]	; (3cc <TEE_UnmaskCancellation+0x38>)
     3a2:	2201      	movs	r2, #1
     3a4:	21b7      	movs	r1, #183	; 0xb7
     3a6:	447b      	add	r3, pc
     3a8:	e9cd 3000 	strd	r3, r0, [sp]
     3ac:	4808      	ldr	r0, [pc, #32]	; (3d0 <TEE_UnmaskCancellation+0x3c>)
     3ae:	4613      	mov	r3, r2
     3b0:	4478      	add	r0, pc
     3b2:	3027      	adds	r0, #39	; 0x27
     3b4:	f003 fe42 	bl	403c <trace_printf>
     3b8:	4620      	mov	r0, r4
     3ba:	f008 fa3f 	bl	883c <__TEE_Panic>
/home/zhangzj/secure/optee_gerrit/optee_os/lib/libutee/tee_api.c:185
     3be:	9803      	ldr	r0, [sp, #12]
     3c0:	3000      	adds	r0, #0
     3c2:	bf18      	it	ne
     3c4:	2001      	movne	r0, #1
     3c6:	b004      	add	sp, #16
     3c8:	bd10      	pop	{r4, pc}
     3ca:	bf00      	nop
     3cc:	000099fb 	.word	0x000099fb
     3d0:	00009944 	.word	0x00009944

000003d4 <TEE_MaskCancellation>:
TEE_MaskCancellation():
/home/zhangzj/secure/optee_gerrit/optee_os/lib/libutee/tee_api.c:188
     3d4:	b51f      	push	{r0, r1, r2, r3, r4, lr}
/home/zhangzj/secure/optee_gerrit/optee_os/lib/libutee/tee_api.c:190
     3d6:	a803      	add	r0, sp, #12
     3d8:	f000 ea9c 	blx	914 <utee_mask_cancellation>
/home/zhangzj/secure/optee_gerrit/optee_os/lib/libutee/tee_api.c:192
     3dc:	4604      	mov	r4, r0
     3de:	b170      	cbz	r0, 3fe <TEE_MaskCancellation+0x2a>
/home/zhangzj/secure/optee_gerrit/optee_os/lib/libutee/tee_api.c:193
     3e0:	4b0a      	ldr	r3, [pc, #40]	; (40c <TEE_MaskCancellation+0x38>)
     3e2:	2201      	movs	r2, #1
     3e4:	21c1      	movs	r1, #193	; 0xc1
     3e6:	447b      	add	r3, pc
     3e8:	e9cd 3000 	strd	r3, r0, [sp]
     3ec:	4808      	ldr	r0, [pc, #32]	; (410 <TEE_MaskCancellation+0x3c>)
     3ee:	4613      	mov	r3, r2
     3f0:	4478      	add	r0, pc
     3f2:	303e      	adds	r0, #62	; 0x3e
     3f4:	f003 fe22 	bl	403c <trace_printf>
     3f8:	4620      	mov	r0, r4
     3fa:	f008 fa1f 	bl	883c <__TEE_Panic>
/home/zhangzj/secure/optee_gerrit/optee_os/lib/libutee/tee_api.c:195
     3fe:	9803      	ldr	r0, [sp, #12]
     400:	3000      	adds	r0, #0
     402:	bf18      	it	ne
     404:	2001      	movne	r0, #1
     406:	b004      	add	sp, #16
     408:	bd10      	pop	{r4, pc}
     40a:	bf00      	nop
     40c:	000099bb 	.word	0x000099bb
     410:	00009904 	.word	0x00009904

00000414 <TEE_CheckMemoryAccessRights>:
TEE_CheckMemoryAccessRights():
/home/zhangzj/secure/optee_gerrit/optee_os/lib/libutee/tee_api.c:204
     414:	b10a      	cbz	r2, 41a <TEE_CheckMemoryAccessRights+0x6>
/home/zhangzj/secure/optee_gerrit/optee_os/lib/libutee/tee_api.c:208
     416:	f008 ba2f 	b.w	8878 <__utee_check_access_rights_from_thumb>
/home/zhangzj/secure/optee_gerrit/optee_os/lib/libutee/tee_api.c:220
     41a:	4610      	mov	r0, r2
     41c:	4770      	bx	lr

0000041e <TEE_SetInstanceData>:
TEE_SetInstanceData():
/home/zhangzj/secure/optee_gerrit/optee_os/lib/libutee/tee_api.c:224
     41e:	4b02      	ldr	r3, [pc, #8]	; (428 <TEE_SetInstanceData+0xa>)
     420:	447b      	add	r3, pc
     422:	6018      	str	r0, [r3, #0]
     424:	4770      	bx	lr
     426:	bf00      	nop
     428:	00012c80 	.word	0x00012c80

0000042c <TEE_GetInstanceData>:
TEE_GetInstanceData():
/home/zhangzj/secure/optee_gerrit/optee_os/lib/libutee/tee_api.c:230
     42c:	4b01      	ldr	r3, [pc, #4]	; (434 <TEE_GetInstanceData+0x8>)
     42e:	447b      	add	r3, pc
     430:	6818      	ldr	r0, [r3, #0]
     432:	4770      	bx	lr
     434:	00012c72 	.word	0x00012c72

00000438 <TEE_MemMove>:
TEE_MemMove():
/home/zhangzj/secure/optee_gerrit/optee_os/lib/libutee/tee_api.c:234
     438:	f002 bd16 	b.w	2e68 <memmove>

0000043c <TEE_MemCompare>:
TEE_MemCompare():
/home/zhangzj/secure/optee_gerrit/optee_os/lib/libutee/tee_api.c:239
     43c:	f002 bc5a 	b.w	2cf4 <memcmp>

00000440 <TEE_MemFill>:
TEE_MemFill():
/home/zhangzj/secure/optee_gerrit/optee_os/lib/libutee/tee_api.c:244
     440:	f002 bd9e 	b.w	2f80 <memset>

00000444 <TEE_GetSystemTime>:
TEE_GetSystemTime():
/home/zhangzj/secure/optee_gerrit/optee_os/lib/libutee/tee_api.c:250
     444:	b513      	push	{r0, r1, r4, lr}
     446:	4601      	mov	r1, r0
/home/zhangzj/secure/optee_gerrit/optee_os/lib/libutee/tee_api.c:251
     448:	2000      	movs	r0, #0
     44a:	f000 ea78 	blx	93c <utee_get_time>
/home/zhangzj/secure/optee_gerrit/optee_os/lib/libutee/tee_api.c:253
     44e:	b190      	cbz	r0, 476 <TEE_GetSystemTime+0x32>
/home/zhangzj/secure/optee_gerrit/optee_os/lib/libutee/tee_api.c:254
     450:	4b0a      	ldr	r3, [pc, #40]	; (47c <TEE_GetSystemTime+0x38>)
     452:	2400      	movs	r4, #0
     454:	2201      	movs	r2, #1
     456:	480a      	ldr	r0, [pc, #40]	; (480 <TEE_GetSystemTime+0x3c>)
     458:	21fe      	movs	r1, #254	; 0xfe
     45a:	9401      	str	r4, [sp, #4]
     45c:	447b      	add	r3, pc
     45e:	4478      	add	r0, pc
     460:	9300      	str	r3, [sp, #0]
     462:	3053      	adds	r0, #83	; 0x53
     464:	4613      	mov	r3, r2
     466:	f003 fde9 	bl	403c <trace_printf>
     46a:	4620      	mov	r0, r4
/home/zhangzj/secure/optee_gerrit/optee_os/lib/libutee/tee_api.c:255
     46c:	b002      	add	sp, #8
     46e:	e8bd 4010 	ldmia.w	sp!, {r4, lr}
/home/zhangzj/secure/optee_gerrit/optee_os/lib/libutee/tee_api.c:254
     472:	f008 b9e3 	b.w	883c <__TEE_Panic>
/home/zhangzj/secure/optee_gerrit/optee_os/lib/libutee/tee_api.c:255
     476:	b002      	add	sp, #8
     478:	bd10      	pop	{r4, pc}
     47a:	bf00      	nop
     47c:	00009945 	.word	0x00009945
     480:	00009896 	.word	0x00009896

00000484 <TEE_Wait>:
TEE_Wait():
/home/zhangzj/secure/optee_gerrit/optee_os/lib/libutee/tee_api.c:258
     484:	b513      	push	{r0, r1, r4, lr}
/home/zhangzj/secure/optee_gerrit/optee_os/lib/libutee/tee_api.c:259
     486:	f000 ea50 	blx	928 <utee_wait>
/home/zhangzj/secure/optee_gerrit/optee_os/lib/libutee/tee_api.c:261
     48a:	4604      	mov	r4, r0
     48c:	b190      	cbz	r0, 4b4 <TEE_Wait+0x30>
/home/zhangzj/secure/optee_gerrit/optee_os/lib/libutee/tee_api.c:261 (discriminator 1)
     48e:	4b0b      	ldr	r3, [pc, #44]	; (4bc <TEE_Wait+0x38>)
     490:	4298      	cmp	r0, r3
     492:	d00f      	beq.n	4b4 <TEE_Wait+0x30>
/home/zhangzj/secure/optee_gerrit/optee_os/lib/libutee/tee_api.c:262
     494:	4b0a      	ldr	r3, [pc, #40]	; (4c0 <TEE_Wait+0x3c>)
     496:	2201      	movs	r2, #1
     498:	f44f 7183 	mov.w	r1, #262	; 0x106
     49c:	447b      	add	r3, pc
     49e:	e9cd 3000 	strd	r3, r0, [sp]
     4a2:	4808      	ldr	r0, [pc, #32]	; (4c4 <TEE_Wait+0x40>)
     4a4:	4613      	mov	r3, r2
     4a6:	4478      	add	r0, pc
     4a8:	3065      	adds	r0, #101	; 0x65
     4aa:	f003 fdc7 	bl	403c <trace_printf>
     4ae:	4620      	mov	r0, r4
     4b0:	f008 f9c4 	bl	883c <__TEE_Panic>
/home/zhangzj/secure/optee_gerrit/optee_os/lib/libutee/tee_api.c:265
     4b4:	4620      	mov	r0, r4
     4b6:	b002      	add	sp, #8
     4b8:	bd10      	pop	{r4, pc}
     4ba:	bf00      	nop
     4bc:	ffff0002 	.word	0xffff0002
     4c0:	00009905 	.word	0x00009905
     4c4:	0000984e 	.word	0x0000984e

000004c8 <TEE_GetTAPersistentTime>:
TEE_GetTAPersistentTime():
/home/zhangzj/secure/optee_gerrit/optee_os/lib/libutee/tee_api.c:268
     4c8:	b537      	push	{r0, r1, r2, r4, r5, lr}
     4ca:	4605      	mov	r5, r0
/home/zhangzj/secure/optee_gerrit/optee_os/lib/libutee/tee_api.c:271
     4cc:	4629      	mov	r1, r5
     4ce:	2001      	movs	r0, #1
     4d0:	f000 ea34 	blx	93c <utee_get_time>
/home/zhangzj/secure/optee_gerrit/optee_os/lib/libutee/tee_api.c:273
     4d4:	4604      	mov	r4, r0
     4d6:	b1e0      	cbz	r0, 512 <TEE_GetTAPersistentTime+0x4a>
/home/zhangzj/secure/optee_gerrit/optee_os/lib/libutee/tee_api.c:273 (discriminator 1)
     4d8:	4b0f      	ldr	r3, [pc, #60]	; (518 <TEE_GetTAPersistentTime+0x50>)
     4da:	4298      	cmp	r0, r3
     4dc:	d019      	beq.n	512 <TEE_GetTAPersistentTime+0x4a>
/home/zhangzj/secure/optee_gerrit/optee_os/lib/libutee/tee_api.c:274
     4de:	2300      	movs	r3, #0
     4e0:	602b      	str	r3, [r5, #0]
/home/zhangzj/secure/optee_gerrit/optee_os/lib/libutee/tee_api.c:275
     4e2:	606b      	str	r3, [r5, #4]
/home/zhangzj/secure/optee_gerrit/optee_os/lib/libutee/tee_api.c:278
     4e4:	f500 4330 	add.w	r3, r0, #45056	; 0xb000
     4e8:	2b01      	cmp	r3, #1
     4ea:	d912      	bls.n	512 <TEE_GetTAPersistentTime+0x4a>
/home/zhangzj/secure/optee_gerrit/optee_os/lib/libutee/tee_api.c:281
     4ec:	4b0b      	ldr	r3, [pc, #44]	; (51c <TEE_GetTAPersistentTime+0x54>)
     4ee:	4298      	cmp	r0, r3
     4f0:	d00f      	beq.n	512 <TEE_GetTAPersistentTime+0x4a>
/home/zhangzj/secure/optee_gerrit/optee_os/lib/libutee/tee_api.c:283
     4f2:	4b0b      	ldr	r3, [pc, #44]	; (520 <TEE_GetTAPersistentTime+0x58>)
     4f4:	2201      	movs	r2, #1
     4f6:	f240 111b 	movw	r1, #283	; 0x11b
     4fa:	447b      	add	r3, pc
     4fc:	e9cd 3000 	strd	r3, r0, [sp]
     500:	4808      	ldr	r0, [pc, #32]	; (524 <TEE_GetTAPersistentTime+0x5c>)
     502:	4613      	mov	r3, r2
     504:	4478      	add	r0, pc
     506:	306e      	adds	r0, #110	; 0x6e
     508:	f003 fd98 	bl	403c <trace_printf>
     50c:	4620      	mov	r0, r4
     50e:	f008 f995 	bl	883c <__TEE_Panic>
/home/zhangzj/secure/optee_gerrit/optee_os/lib/libutee/tee_api.c:286
     512:	4620      	mov	r0, r4
     514:	b003      	add	sp, #12
     516:	bd30      	pop	{r4, r5, pc}
     518:	ffff300f 	.word	0xffff300f
     51c:	ffff000c 	.word	0xffff000c
     520:	000098a7 	.word	0x000098a7
     524:	000097f0 	.word	0x000097f0

00000528 <TEE_SetTAPersistentTime>:
TEE_SetTAPersistentTime():
/home/zhangzj/secure/optee_gerrit/optee_os/lib/libutee/tee_api.c:289
     528:	b513      	push	{r0, r1, r4, lr}
/home/zhangzj/secure/optee_gerrit/optee_os/lib/libutee/tee_api.c:292
     52a:	f000 ea12 	blx	950 <utee_set_ta_time>
/home/zhangzj/secure/optee_gerrit/optee_os/lib/libutee/tee_api.c:294
     52e:	4604      	mov	r4, r0
     530:	b1a8      	cbz	r0, 55e <TEE_SetTAPersistentTime+0x36>
/home/zhangzj/secure/optee_gerrit/optee_os/lib/libutee/tee_api.c:294 (discriminator 1)
     532:	4b0c      	ldr	r3, [pc, #48]	; (564 <TEE_SetTAPersistentTime+0x3c>)
     534:	4298      	cmp	r0, r3
     536:	d012      	beq.n	55e <TEE_SetTAPersistentTime+0x36>
/home/zhangzj/secure/optee_gerrit/optee_os/lib/libutee/tee_api.c:295
     538:	4b0b      	ldr	r3, [pc, #44]	; (568 <TEE_SetTAPersistentTime+0x40>)
     53a:	4298      	cmp	r0, r3
     53c:	d00f      	beq.n	55e <TEE_SetTAPersistentTime+0x36>
/home/zhangzj/secure/optee_gerrit/optee_os/lib/libutee/tee_api.c:297
     53e:	4b0b      	ldr	r3, [pc, #44]	; (56c <TEE_SetTAPersistentTime+0x44>)
     540:	2201      	movs	r2, #1
     542:	f240 1129 	movw	r1, #297	; 0x129
     546:	447b      	add	r3, pc
     548:	e9cd 3000 	strd	r3, r0, [sp]
     54c:	4808      	ldr	r0, [pc, #32]	; (570 <TEE_SetTAPersistentTime+0x48>)
     54e:	4613      	mov	r3, r2
     550:	4478      	add	r0, pc
     552:	3086      	adds	r0, #134	; 0x86
     554:	f003 fd72 	bl	403c <trace_printf>
     558:	4620      	mov	r0, r4
     55a:	f008 f96f 	bl	883c <__TEE_Panic>
/home/zhangzj/secure/optee_gerrit/optee_os/lib/libutee/tee_api.c:300
     55e:	4620      	mov	r0, r4
     560:	b002      	add	sp, #8
     562:	bd10      	pop	{r4, pc}
     564:	ffff000c 	.word	0xffff000c
     568:	ffff3041 	.word	0xffff3041
     56c:	0000985b 	.word	0x0000985b
     570:	000097a4 	.word	0x000097a4

00000574 <TEE_GetREETime>:
TEE_GetREETime():
/home/zhangzj/secure/optee_gerrit/optee_os/lib/libutee/tee_api.c:303
     574:	b513      	push	{r0, r1, r4, lr}
     576:	4601      	mov	r1, r0
/home/zhangzj/secure/optee_gerrit/optee_os/lib/libutee/tee_api.c:304
     578:	2002      	movs	r0, #2
     57a:	f000 e9e0 	blx	93c <utee_get_time>
/home/zhangzj/secure/optee_gerrit/optee_os/lib/libutee/tee_api.c:306
     57e:	b198      	cbz	r0, 5a8 <TEE_GetREETime+0x34>
/home/zhangzj/secure/optee_gerrit/optee_os/lib/libutee/tee_api.c:307
     580:	4b0a      	ldr	r3, [pc, #40]	; (5ac <TEE_GetREETime+0x38>)
     582:	2400      	movs	r4, #0
     584:	2201      	movs	r2, #1
     586:	480a      	ldr	r0, [pc, #40]	; (5b0 <TEE_GetREETime+0x3c>)
     588:	f240 1133 	movw	r1, #307	; 0x133
     58c:	9401      	str	r4, [sp, #4]
     58e:	447b      	add	r3, pc
     590:	4478      	add	r0, pc
     592:	9300      	str	r3, [sp, #0]
     594:	309e      	adds	r0, #158	; 0x9e
     596:	4613      	mov	r3, r2
     598:	f003 fd50 	bl	403c <trace_printf>
     59c:	4620      	mov	r0, r4
/home/zhangzj/secure/optee_gerrit/optee_os/lib/libutee/tee_api.c:308
     59e:	b002      	add	sp, #8
     5a0:	e8bd 4010 	ldmia.w	sp!, {r4, lr}
/home/zhangzj/secure/optee_gerrit/optee_os/lib/libutee/tee_api.c:307
     5a4:	f008 b94a 	b.w	883c <__TEE_Panic>
/home/zhangzj/secure/optee_gerrit/optee_os/lib/libutee/tee_api.c:308
     5a8:	b002      	add	sp, #8
     5aa:	bd10      	pop	{r4, pc}
     5ac:	00009813 	.word	0x00009813
     5b0:	00009764 	.word	0x00009764

000005b4 <TEE_Malloc>:
TEE_Malloc():
/home/zhangzj/secure/optee_gerrit/optee_os/lib/libutee/tee_api.c:312
     5b4:	f000 bcb4 	b.w	f20 <tee_user_mem_alloc>

000005b8 <TEE_Realloc>:
TEE_Realloc():
/home/zhangzj/secure/optee_gerrit/optee_os/lib/libutee/tee_api.c:321
     5b8:	f000 bd86 	b.w	10c8 <tee_user_mem_realloc>

000005bc <TEE_Free>:
TEE_Free():
/home/zhangzj/secure/optee_gerrit/optee_os/lib/libutee/tee_api.c:326
     5bc:	f000 bd14 	b.w	fe8 <tee_user_mem_free>

000005c0 <TEE_CacheClean>:
TEE_CacheClean():
/home/zhangzj/secure/optee_gerrit/optee_os/lib/libutee/tee_api.c:332
     5c0:	2200      	movs	r2, #0
     5c2:	f008 b951 	b.w	8868 <__utee_cache_operation_from_thumb>

000005c6 <TEE_CacheFlush>:
TEE_CacheFlush():
/home/zhangzj/secure/optee_gerrit/optee_os/lib/libutee/tee_api.c:336
     5c6:	2201      	movs	r2, #1
     5c8:	f008 b94e 	b.w	8868 <__utee_cache_operation_from_thumb>

000005cc <TEE_CacheInvalidate>:
TEE_CacheInvalidate():
/home/zhangzj/secure/optee_gerrit/optee_os/lib/libutee/tee_api.c:341
     5cc:	2202      	movs	r2, #2
     5ce:	f008 b94b 	b.w	8868 <__utee_cache_operation_from_thumb>
     5d2:	bf00      	nop

000005d4 <ta_header_get_session>:
ta_header_get_session():
/home/zhangzj/secure/optee_gerrit/optee_os/lib/libutee/arch/arm/user_ta_entry.c:75
     5d4:	4b05      	ldr	r3, [pc, #20]	; (5ec <ta_header_get_session+0x18>)
     5d6:	447b      	add	r3, pc
     5d8:	681b      	ldr	r3, [r3, #0]
/home/zhangzj/secure/optee_gerrit/optee_os/lib/libutee/arch/arm/user_ta_entry.c:75 (discriminator 1)
     5da:	b123      	cbz	r3, 5e6 <ta_header_get_session+0x12>
/home/zhangzj/secure/optee_gerrit/optee_os/lib/libutee/arch/arm/user_ta_entry.c:76
     5dc:	681a      	ldr	r2, [r3, #0]
     5de:	4282      	cmp	r2, r0
     5e0:	d001      	beq.n	5e6 <ta_header_get_session+0x12>
/home/zhangzj/secure/optee_gerrit/optee_os/lib/libutee/arch/arm/user_ta_entry.c:75 (discriminator 2)
     5e2:	689b      	ldr	r3, [r3, #8]
     5e4:	e7f9      	b.n	5da <ta_header_get_session+0x6>
/home/zhangzj/secure/optee_gerrit/optee_os/lib/libutee/arch/arm/user_ta_entry.c:80
     5e6:	4618      	mov	r0, r3
     5e8:	4770      	bx	lr
     5ea:	bf00      	nop
     5ec:	0000aaaa 	.word	0x0000aaaa

000005f0 <ta_header_remove_session>:
ta_header_remove_session():
/home/zhangzj/secure/optee_gerrit/optee_os/lib/libutee/arch/arm/user_ta_entry.c:118
     5f0:	b508      	push	{r3, lr}
/home/zhangzj/secure/optee_gerrit/optee_os/lib/libutee/arch/arm/user_ta_entry.c:121
     5f2:	4b10      	ldr	r3, [pc, #64]	; (634 <ta_header_remove_session+0x44>)
     5f4:	447b      	add	r3, pc
     5f6:	681b      	ldr	r3, [r3, #0]
/home/zhangzj/secure/optee_gerrit/optee_os/lib/libutee/arch/arm/user_ta_entry.c:121 (discriminator 1)
     5f8:	b1db      	cbz	r3, 632 <ta_header_remove_session+0x42>
/home/zhangzj/secure/optee_gerrit/optee_os/lib/libutee/arch/arm/user_ta_entry.c:122
     5fa:	681a      	ldr	r2, [r3, #0]
     5fc:	4282      	cmp	r2, r0
     5fe:	d116      	bne.n	62e <ta_header_remove_session+0x3e>
/home/zhangzj/secure/optee_gerrit/optee_os/lib/libutee/arch/arm/user_ta_entry.c:123
     600:	689a      	ldr	r2, [r3, #8]
     602:	68d9      	ldr	r1, [r3, #12]
     604:	b10a      	cbz	r2, 60a <ta_header_remove_session+0x1a>
/home/zhangzj/secure/optee_gerrit/optee_os/lib/libutee/arch/arm/user_ta_entry.c:123 (discriminator 1)
     606:	60d1      	str	r1, [r2, #12]
     608:	e002      	b.n	610 <ta_header_remove_session+0x20>
/home/zhangzj/secure/optee_gerrit/optee_os/lib/libutee/arch/arm/user_ta_entry.c:123 (discriminator 2)
     60a:	480b      	ldr	r0, [pc, #44]	; (638 <ta_header_remove_session+0x48>)
     60c:	4478      	add	r0, pc
     60e:	6041      	str	r1, [r0, #4]
/home/zhangzj/secure/optee_gerrit/optee_os/lib/libutee/arch/arm/user_ta_entry.c:123 (discriminator 4)
     610:	68d9      	ldr	r1, [r3, #12]
/home/zhangzj/secure/optee_gerrit/optee_os/lib/libutee/arch/arm/user_ta_entry.c:124 (discriminator 4)
     612:	4618      	mov	r0, r3
/home/zhangzj/secure/optee_gerrit/optee_os/lib/libutee/arch/arm/user_ta_entry.c:123 (discriminator 4)
     614:	600a      	str	r2, [r1, #0]
/home/zhangzj/secure/optee_gerrit/optee_os/lib/libutee/arch/arm/user_ta_entry.c:124 (discriminator 4)
     616:	f7ff ffd1 	bl	5bc <TEE_Free>
/home/zhangzj/secure/optee_gerrit/optee_os/lib/libutee/arch/arm/user_ta_entry.c:126 (discriminator 4)
     61a:	4a08      	ldr	r2, [pc, #32]	; (63c <ta_header_remove_session+0x4c>)
     61c:	447a      	add	r2, pc
     61e:	6813      	ldr	r3, [r2, #0]
     620:	3b01      	subs	r3, #1
     622:	6013      	str	r3, [r2, #0]
/home/zhangzj/secure/optee_gerrit/optee_os/lib/libutee/arch/arm/user_ta_entry.c:127 (discriminator 4)
     624:	b92b      	cbnz	r3, 632 <ta_header_remove_session+0x42>
/home/zhangzj/secure/optee_gerrit/optee_os/lib/libutee/arch/arm/user_ta_entry.c:133
     626:	e8bd 4008 	ldmia.w	sp!, {r3, lr}
/home/zhangzj/secure/optee_gerrit/optee_os/lib/libutee/arch/arm/user_ta_entry.c:128
     62a:	f7ff bd03 	b.w	34 <TA_DestroyEntryPoint>
/home/zhangzj/secure/optee_gerrit/optee_os/lib/libutee/arch/arm/user_ta_entry.c:121 (discriminator 2)
     62e:	689b      	ldr	r3, [r3, #8]
     630:	e7e2      	b.n	5f8 <ta_header_remove_session+0x8>
     632:	bd08      	pop	{r3, pc}
     634:	0000aa8c 	.word	0x0000aa8c
     638:	0000aa74 	.word	0x0000aa74
     63c:	00012a88 	.word	0x00012a88

00000640 <ta_header_save_params.part.0>:
ta_header_save_params():
/home/zhangzj/secure/optee_gerrit/optee_os/lib/libutee/arch/arm/user_ta_entry.c:68
     640:	4803      	ldr	r0, [pc, #12]	; (650 <ta_header_save_params.part.0+0x10>)
     642:	2100      	movs	r1, #0
     644:	2220      	movs	r2, #32
     646:	4478      	add	r0, pc
     648:	3004      	adds	r0, #4
     64a:	f002 bc99 	b.w	2f80 <memset>
     64e:	bf00      	nop
     650:	00012a5e 	.word	0x00012a5e

00000654 <__utee_entry>:
__utee_entry():
/home/zhangzj/secure/optee_gerrit/optee_os/lib/libutee/arch/arm/user_ta_entry.c:200
     654:	f8df 8198 	ldr.w	r8, [pc, #408]	; 7f0 <__utee_entry+0x19c>
/home/zhangzj/secure/optee_gerrit/optee_os/lib/libutee/arch/arm/user_ta_entry.c:203
     658:	2801      	cmp	r0, #1
/home/zhangzj/secure/optee_gerrit/optee_os/lib/libutee/arch/arm/user_ta_entry.c:200
     65a:	4616      	mov	r6, r2
     65c:	b580      	push	{r7, lr}
     65e:	4699      	mov	r9, r3
     660:	b08e      	sub	sp, #56	; 0x38
     662:	460f      	mov	r7, r1
     664:	44f8      	add	r8, pc
/home/zhangzj/secure/optee_gerrit/optee_os/lib/libutee/arch/arm/user_ta_entry.c:203
     666:	d03f      	beq.n	6e8 <__utee_entry+0x94>
     668:	d302      	bcc.n	670 <__utee_entry+0x1c>
     66a:	2802      	cmp	r0, #2
     66c:	d049      	beq.n	702 <__utee_entry+0xae>
     66e:	e070      	b.n	752 <__utee_entry+0xfe>
ta_header_add_session():
/home/zhangzj/secure/optee_gerrit/optee_os/lib/libutee/arch/arm/user_ta_entry.c:84
     670:	4608      	mov	r0, r1
     672:	f7ff ffaf 	bl	5d4 <ta_header_get_session>
/home/zhangzj/secure/optee_gerrit/optee_os/lib/libutee/arch/arm/user_ta_entry.c:86
     676:	2800      	cmp	r0, #0
     678:	d17d      	bne.n	776 <__utee_entry+0x122>
/home/zhangzj/secure/optee_gerrit/optee_os/lib/libutee/arch/arm/user_ta_entry.c:89
     67a:	4d5e      	ldr	r5, [pc, #376]	; (7f4 <__utee_entry+0x1a0>)
     67c:	447d      	add	r5, pc
     67e:	682c      	ldr	r4, [r5, #0]
     680:	3401      	adds	r4, #1
/home/zhangzj/secure/optee_gerrit/optee_os/lib/libutee/arch/arm/user_ta_entry.c:91
     682:	2c01      	cmp	r4, #1
/home/zhangzj/secure/optee_gerrit/optee_os/lib/libutee/arch/arm/user_ta_entry.c:89
     684:	602c      	str	r4, [r5, #0]
/home/zhangzj/secure/optee_gerrit/optee_os/lib/libutee/arch/arm/user_ta_entry.c:91
     686:	d013      	beq.n	6b0 <__utee_entry+0x5c>
/home/zhangzj/secure/optee_gerrit/optee_os/lib/libutee/arch/arm/user_ta_entry.c:106
     688:	2010      	movs	r0, #16
     68a:	f04f 4100 	mov.w	r1, #2147483648	; 0x80000000
     68e:	f7ff ff91 	bl	5b4 <TEE_Malloc>
/home/zhangzj/secure/optee_gerrit/optee_os/lib/libutee/arch/arm/user_ta_entry.c:108
     692:	2800      	cmp	r0, #0
     694:	f000 80a5 	beq.w	7e2 <__utee_entry+0x18e>
/home/zhangzj/secure/optee_gerrit/optee_os/lib/libutee/arch/arm/user_ta_entry.c:111
     698:	2300      	movs	r3, #0
/home/zhangzj/secure/optee_gerrit/optee_os/lib/libutee/arch/arm/user_ta_entry.c:110
     69a:	6007      	str	r7, [r0, #0]
/home/zhangzj/secure/optee_gerrit/optee_os/lib/libutee/arch/arm/user_ta_entry.c:111
     69c:	6043      	str	r3, [r0, #4]
/home/zhangzj/secure/optee_gerrit/optee_os/lib/libutee/arch/arm/user_ta_entry.c:112
     69e:	6083      	str	r3, [r0, #8]
     6a0:	4b55      	ldr	r3, [pc, #340]	; (7f8 <__utee_entry+0x1a4>)
     6a2:	447b      	add	r3, pc
     6a4:	685a      	ldr	r2, [r3, #4]
     6a6:	60c2      	str	r2, [r0, #12]
     6a8:	6010      	str	r0, [r2, #0]
     6aa:	3008      	adds	r0, #8
     6ac:	6058      	str	r0, [r3, #4]
     6ae:	e062      	b.n	776 <__utee_entry+0x122>
/home/zhangzj/secure/optee_gerrit/optee_os/lib/libutee/arch/arm/user_ta_entry.c:94
     6b0:	f895 3024 	ldrb.w	r3, [r5, #36]	; 0x24
     6b4:	b993      	cbnz	r3, 6dc <__utee_entry+0x88>
/home/zhangzj/secure/optee_gerrit/optee_os/lib/libutee/arch/arm/user_ta_entry.c:95
     6b6:	f7ff fd8b 	bl	1d0 <tahead_get_trace_level>
     6ba:	f003 fc61 	bl	3f80 <trace_set_level>
/home/zhangzj/secure/optee_gerrit/optee_os/lib/libutee/arch/arm/user_ta_entry.c:96
     6be:	4b4f      	ldr	r3, [pc, #316]	; (7fc <__utee_entry+0x1a8>)
     6c0:	f858 3003 	ldr.w	r3, [r8, r3]
     6c4:	9303      	str	r3, [sp, #12]
     6c6:	4b4e      	ldr	r3, [pc, #312]	; (800 <__utee_entry+0x1ac>)
     6c8:	9803      	ldr	r0, [sp, #12]
     6ca:	f858 3003 	ldr.w	r3, [r8, r3]
     6ce:	6819      	ldr	r1, [r3, #0]
     6d0:	f002 f9b6 	bl	2a40 <malloc_add_pool>
/home/zhangzj/secure/optee_gerrit/optee_os/lib/libutee/arch/arm/user_ta_entry.c:97
     6d4:	f000 fdac 	bl	1230 <_TEE_MathAPI_Init>
/home/zhangzj/secure/optee_gerrit/optee_os/lib/libutee/arch/arm/user_ta_entry.c:98
     6d8:	f885 4024 	strb.w	r4, [r5, #36]	; 0x24
/home/zhangzj/secure/optee_gerrit/optee_os/lib/libutee/arch/arm/user_ta_entry.c:101
     6dc:	f7ff fca0 	bl	20 <TA_CreateEntryPoint>
/home/zhangzj/secure/optee_gerrit/optee_os/lib/libutee/arch/arm/user_ta_entry.c:102
     6e0:	2800      	cmp	r0, #0
     6e2:	d0d1      	beq.n	688 <__utee_entry+0x34>
     6e4:	4604      	mov	r4, r0
     6e6:	e04c      	b.n	782 <__utee_entry+0x12e>
entry_close_session():
/home/zhangzj/secure/optee_gerrit/optee_os/lib/libutee/arch/arm/user_ta_entry.c:166
     6e8:	4608      	mov	r0, r1
     6ea:	f7ff ff73 	bl	5d4 <ta_header_get_session>
/home/zhangzj/secure/optee_gerrit/optee_os/lib/libutee/arch/arm/user_ta_entry.c:168
     6ee:	2800      	cmp	r0, #0
     6f0:	d046      	beq.n	780 <__utee_entry+0x12c>
/home/zhangzj/secure/optee_gerrit/optee_os/lib/libutee/arch/arm/user_ta_entry.c:171
     6f2:	6840      	ldr	r0, [r0, #4]
/home/zhangzj/secure/optee_gerrit/optee_os/lib/libutee/arch/arm/user_ta_entry.c:174
     6f4:	2400      	movs	r4, #0
/home/zhangzj/secure/optee_gerrit/optee_os/lib/libutee/arch/arm/user_ta_entry.c:171
     6f6:	f7ff fccb 	bl	90 <TA_CloseSessionEntryPoint>
/home/zhangzj/secure/optee_gerrit/optee_os/lib/libutee/arch/arm/user_ta_entry.c:173
     6fa:	4638      	mov	r0, r7
     6fc:	f7ff ff78 	bl	5f0 <ta_header_remove_session>
     700:	e03f      	b.n	782 <__utee_entry+0x12e>
entry_invoke_command():
/home/zhangzj/secure/optee_gerrit/optee_os/lib/libutee/arch/arm/user_ta_entry.c:183
     702:	4608      	mov	r0, r1
     704:	f7ff ff66 	bl	5d4 <ta_header_get_session>
/home/zhangzj/secure/optee_gerrit/optee_os/lib/libutee/arch/arm/user_ta_entry.c:185
     708:	4680      	mov	r8, r0
     70a:	2800      	cmp	r0, #0
     70c:	d038      	beq.n	780 <__utee_entry+0x12c>
/home/zhangzj/secure/optee_gerrit/optee_os/lib/libutee/arch/arm/user_ta_entry.c:188
     70e:	af06      	add	r7, sp, #24
ta_header_save_params():
/home/zhangzj/secure/optee_gerrit/optee_os/lib/libutee/arch/arm/user_ta_entry.c:63
     710:	4c3c      	ldr	r4, [pc, #240]	; (804 <__utee_entry+0x1b0>)
entry_invoke_command():
/home/zhangzj/secure/optee_gerrit/optee_os/lib/libutee/arch/arm/user_ta_entry.c:188
     712:	a905      	add	r1, sp, #20
     714:	4638      	mov	r0, r7
     716:	4632      	mov	r2, r6
     718:	f7ff fd8c 	bl	234 <__utee_to_param>
ta_header_save_params():
/home/zhangzj/secure/optee_gerrit/optee_os/lib/libutee/arch/arm/user_ta_entry.c:66
     71c:	463d      	mov	r5, r7
entry_invoke_command():
/home/zhangzj/secure/optee_gerrit/optee_os/lib/libutee/arch/arm/user_ta_entry.c:189
     71e:	f8dd e014 	ldr.w	lr, [sp, #20]
ta_header_save_params():
/home/zhangzj/secure/optee_gerrit/optee_os/lib/libutee/arch/arm/user_ta_entry.c:66
     722:	cd0f      	ldmia	r5!, {r0, r1, r2, r3}
/home/zhangzj/secure/optee_gerrit/optee_os/lib/libutee/arch/arm/user_ta_entry.c:63
     724:	447c      	add	r4, pc
/home/zhangzj/secure/optee_gerrit/optee_os/lib/libutee/arch/arm/user_ta_entry.c:66
     726:	3404      	adds	r4, #4
/home/zhangzj/secure/optee_gerrit/optee_os/lib/libutee/arch/arm/user_ta_entry.c:63
     728:	f8c4 e024 	str.w	lr, [r4, #36]	; 0x24
/home/zhangzj/secure/optee_gerrit/optee_os/lib/libutee/arch/arm/user_ta_entry.c:66
     72c:	c40f      	stmia	r4!, {r0, r1, r2, r3}
     72e:	e895 000f 	ldmia.w	r5, {r0, r1, r2, r3}
     732:	e884 000f 	stmia.w	r4, {r0, r1, r2, r3}
entry_invoke_command():
/home/zhangzj/secure/optee_gerrit/optee_os/lib/libutee/arch/arm/user_ta_entry.c:191
     736:	4649      	mov	r1, r9
     738:	4672      	mov	r2, lr
     73a:	f8d8 0004 	ldr.w	r0, [r8, #4]
     73e:	463b      	mov	r3, r7
     740:	f7ff fcbe 	bl	c0 <TA_InvokeCommandEntryPoint>
     744:	4604      	mov	r4, r0
/home/zhangzj/secure/optee_gerrit/optee_os/lib/libutee/arch/arm/user_ta_entry.c:194
     746:	9905      	ldr	r1, [sp, #20]
     748:	4630      	mov	r0, r6
     74a:	463a      	mov	r2, r7
     74c:	f7ff fd4a 	bl	1e4 <__utee_from_param>
     750:	e017      	b.n	782 <__utee_entry+0x12e>
__utee_entry():
/home/zhangzj/secure/optee_gerrit/optee_os/lib/libutee/arch/arm/user_ta_entry.c:215
     752:	4b2d      	ldr	r3, [pc, #180]	; (808 <__utee_entry+0x1b4>)
     754:	2400      	movs	r4, #0
     756:	2201      	movs	r2, #1
     758:	482c      	ldr	r0, [pc, #176]	; (80c <__utee_entry+0x1b8>)
     75a:	21d7      	movs	r1, #215	; 0xd7
     75c:	9401      	str	r4, [sp, #4]
     75e:	447b      	add	r3, pc
     760:	4478      	add	r0, pc
     762:	9300      	str	r3, [sp, #0]
     764:	4613      	mov	r3, r2
     766:	f003 fc69 	bl	403c <trace_printf>
     76a:	4620      	mov	r0, r4
/home/zhangzj/secure/optee_gerrit/optee_os/lib/libutee/arch/arm/user_ta_entry.c:214
     76c:	f04f 34ff 	mov.w	r4, #4294967295	; 0xffffffff
/home/zhangzj/secure/optee_gerrit/optee_os/lib/libutee/arch/arm/user_ta_entry.c:215
     770:	f008 f864 	bl	883c <__TEE_Panic>
/home/zhangzj/secure/optee_gerrit/optee_os/lib/libutee/arch/arm/user_ta_entry.c:216
     774:	e005      	b.n	782 <__utee_entry+0x12e>
entry_open_session():
/home/zhangzj/secure/optee_gerrit/optee_os/lib/libutee/arch/arm/user_ta_entry.c:147
     776:	4638      	mov	r0, r7
     778:	f7ff ff2c 	bl	5d4 <ta_header_get_session>
/home/zhangzj/secure/optee_gerrit/optee_os/lib/libutee/arch/arm/user_ta_entry.c:148
     77c:	4681      	mov	r9, r0
     77e:	b948      	cbnz	r0, 794 <__utee_entry+0x140>
entry_close_session():
/home/zhangzj/secure/optee_gerrit/optee_os/lib/libutee/arch/arm/user_ta_entry.c:169
     780:	4c19      	ldr	r4, [pc, #100]	; (7e8 <__utee_entry+0x194>)
ta_header_save_params():
/home/zhangzj/secure/optee_gerrit/optee_os/lib/libutee/arch/arm/user_ta_entry.c:63
     782:	4b23      	ldr	r3, [pc, #140]	; (810 <__utee_entry+0x1bc>)
     784:	2200      	movs	r2, #0
     786:	447b      	add	r3, pc
     788:	629a      	str	r2, [r3, #40]	; 0x28
     78a:	f7ff ff59 	bl	640 <ta_header_save_params.part.0>
__utee_entry():
/home/zhangzj/secure/optee_gerrit/optee_os/lib/libutee/arch/arm/user_ta_entry.c:219
     78e:	4620      	mov	r0, r4
     790:	f000 e842 	blx	818 <utee_return>
entry_open_session():
/home/zhangzj/secure/optee_gerrit/optee_os/lib/libutee/arch/arm/user_ta_entry.c:151
     794:	f10d 0818 	add.w	r8, sp, #24
ta_header_save_params():
/home/zhangzj/secure/optee_gerrit/optee_os/lib/libutee/arch/arm/user_ta_entry.c:63
     798:	4c1e      	ldr	r4, [pc, #120]	; (814 <__utee_entry+0x1c0>)
entry_open_session():
/home/zhangzj/secure/optee_gerrit/optee_os/lib/libutee/arch/arm/user_ta_entry.c:151
     79a:	a905      	add	r1, sp, #20
     79c:	4640      	mov	r0, r8
     79e:	4632      	mov	r2, r6
     7a0:	f7ff fd48 	bl	234 <__utee_to_param>
ta_header_save_params():
/home/zhangzj/secure/optee_gerrit/optee_os/lib/libutee/arch/arm/user_ta_entry.c:66
     7a4:	4645      	mov	r5, r8
entry_open_session():
/home/zhangzj/secure/optee_gerrit/optee_os/lib/libutee/arch/arm/user_ta_entry.c:152
     7a6:	f8dd e014 	ldr.w	lr, [sp, #20]
ta_header_save_params():
/home/zhangzj/secure/optee_gerrit/optee_os/lib/libutee/arch/arm/user_ta_entry.c:66
     7aa:	cd0f      	ldmia	r5!, {r0, r1, r2, r3}
/home/zhangzj/secure/optee_gerrit/optee_os/lib/libutee/arch/arm/user_ta_entry.c:63
     7ac:	447c      	add	r4, pc
/home/zhangzj/secure/optee_gerrit/optee_os/lib/libutee/arch/arm/user_ta_entry.c:66
     7ae:	3404      	adds	r4, #4
/home/zhangzj/secure/optee_gerrit/optee_os/lib/libutee/arch/arm/user_ta_entry.c:63
     7b0:	f8c4 e024 	str.w	lr, [r4, #36]	; 0x24
/home/zhangzj/secure/optee_gerrit/optee_os/lib/libutee/arch/arm/user_ta_entry.c:66
     7b4:	c40f      	stmia	r4!, {r0, r1, r2, r3}
     7b6:	e895 000f 	ldmia.w	r5, {r0, r1, r2, r3}
     7ba:	e884 000f 	stmia.w	r4, {r0, r1, r2, r3}
entry_open_session():
/home/zhangzj/secure/optee_gerrit/optee_os/lib/libutee/arch/arm/user_ta_entry.c:154
     7be:	4641      	mov	r1, r8
     7c0:	f109 0204 	add.w	r2, r9, #4
     7c4:	4670      	mov	r0, lr
     7c6:	f7ff fc3d 	bl	44 <TA_OpenSessionEntryPoint>
     7ca:	4604      	mov	r4, r0
/home/zhangzj/secure/optee_gerrit/optee_os/lib/libutee/arch/arm/user_ta_entry.c:157
     7cc:	9905      	ldr	r1, [sp, #20]
     7ce:	4630      	mov	r0, r6
     7d0:	4642      	mov	r2, r8
     7d2:	f7ff fd07 	bl	1e4 <__utee_from_param>
/home/zhangzj/secure/optee_gerrit/optee_os/lib/libutee/arch/arm/user_ta_entry.c:159
     7d6:	2c00      	cmp	r4, #0
     7d8:	d0d3      	beq.n	782 <__utee_entry+0x12e>
/home/zhangzj/secure/optee_gerrit/optee_os/lib/libutee/arch/arm/user_ta_entry.c:160
     7da:	4638      	mov	r0, r7
     7dc:	f7ff ff08 	bl	5f0 <ta_header_remove_session>
     7e0:	e7cf      	b.n	782 <__utee_entry+0x12e>
ta_header_add_session():
/home/zhangzj/secure/optee_gerrit/optee_os/lib/libutee/arch/arm/user_ta_entry.c:109
     7e2:	4c02      	ldr	r4, [pc, #8]	; (7ec <__utee_entry+0x198>)
     7e4:	e7cd      	b.n	782 <__utee_entry+0x12e>
     7e6:	bf00      	nop
     7e8:	ffff0007 	.word	0xffff0007
     7ec:	ffff000c 	.word	0xffff000c
     7f0:	00009978 	.word	0x00009978
     7f4:	00012a28 	.word	0x00012a28
     7f8:	0000a9de 	.word	0x0000a9de
     7fc:	00000020 	.word	0x00000020
     800:	0000000c 	.word	0x0000000c
     804:	00012980 	.word	0x00012980
     808:	00009643 	.word	0x00009643
     80c:	0000964c 	.word	0x0000964c
     810:	0001291e 	.word	0x0001291e
     814:	000128f8 	.word	0x000128f8

00000818 <utee_return>:
utee_return():
/home/zhangzj/secure/optee_gerrit/optee_os/lib/libutee/arch/arm/utee_syscalls_asm.S:30
     818:	e92d40e0 	push	{r5, r6, r7, lr}
     81c:	e3a07000 	mov	r7, #0
     820:	e3a06000 	mov	r6, #0
     824:	ef000000 	svc	0x00000000
     828:	e8bd80e0 	pop	{r5, r6, r7, pc}

0000082c <utee_log>:
utee_log():
/home/zhangzj/secure/optee_gerrit/optee_os/lib/libutee/arch/arm/utee_syscalls_asm.S:32
     82c:	e92d40e0 	push	{r5, r6, r7, lr}
     830:	e3a07001 	mov	r7, #1
     834:	e3a06000 	mov	r6, #0
     838:	ef000000 	svc	0x00000000
     83c:	e8bd80e0 	pop	{r5, r6, r7, pc}

00000840 <utee_panic>:
utee_panic():
/home/zhangzj/secure/optee_gerrit/optee_os/lib/libutee/arch/arm/utee_syscalls_asm.S:34
     840:	e92d40e0 	push	{r5, r6, r7, lr}
     844:	e3a07002 	mov	r7, #2
     848:	e3a06000 	mov	r6, #0
     84c:	ef000000 	svc	0x00000000
     850:	e8bd80e0 	pop	{r5, r6, r7, pc}

00000854 <utee_dummy>:
utee_dummy():
/home/zhangzj/secure/optee_gerrit/optee_os/lib/libutee/arch/arm/utee_syscalls_asm.S:36
     854:	e92d40e0 	push	{r5, r6, r7, lr}
     858:	e3a07003 	mov	r7, #3
     85c:	e3a06000 	mov	r6, #0
     860:	ef000000 	svc	0x00000000
     864:	e8bd80e0 	pop	{r5, r6, r7, pc}

00000868 <utee_dummy_7args>:
utee_dummy_7args():
/home/zhangzj/secure/optee_gerrit/optee_os/lib/libutee/arch/arm/utee_syscalls_asm.S:38
     868:	e92d40e0 	push	{r5, r6, r7, lr}
     86c:	e3a07004 	mov	r7, #4
     870:	e3a06003 	mov	r6, #3
     874:	e28d5010 	add	r5, sp, #16
     878:	ef000000 	svc	0x00000000
     87c:	e8bd80e0 	pop	{r5, r6, r7, pc}

00000880 <utee_nocall>:
utee_nocall():
/home/zhangzj/secure/optee_gerrit/optee_os/lib/libutee/arch/arm/utee_syscalls_asm.S:40
     880:	e92d40e0 	push	{r5, r6, r7, lr}
     884:	e3a0704b 	mov	r7, #75	; 0x4b
     888:	e3a06000 	mov	r6, #0
     88c:	ef000000 	svc	0x00000000
     890:	e8bd80e0 	pop	{r5, r6, r7, pc}

00000894 <utee_open_ta_session>:
utee_open_ta_session():
/home/zhangzj/secure/optee_gerrit/optee_os/lib/libutee/arch/arm/utee_syscalls_asm.S:42
     894:	e92d40e0 	push	{r5, r6, r7, lr}
     898:	e3a07006 	mov	r7, #6
     89c:	e3a06001 	mov	r6, #1
     8a0:	e28d5010 	add	r5, sp, #16
     8a4:	ef000000 	svc	0x00000000
     8a8:	e8bd80e0 	pop	{r5, r6, r7, pc}

000008ac <utee_close_ta_session>:
utee_close_ta_session():
/home/zhangzj/secure/optee_gerrit/optee_os/lib/libutee/arch/arm/utee_syscalls_asm.S:44
     8ac:	e92d40e0 	push	{r5, r6, r7, lr}
     8b0:	e3a07007 	mov	r7, #7
     8b4:	e3a06000 	mov	r6, #0
     8b8:	ef000000 	svc	0x00000000
     8bc:	e8bd80e0 	pop	{r5, r6, r7, pc}

000008c0 <utee_invoke_ta_command>:
utee_invoke_ta_command():
/home/zhangzj/secure/optee_gerrit/optee_os/lib/libutee/arch/arm/utee_syscalls_asm.S:46
     8c0:	e92d40e0 	push	{r5, r6, r7, lr}
     8c4:	e3a07008 	mov	r7, #8
     8c8:	e3a06001 	mov	r6, #1
     8cc:	e28d5010 	add	r5, sp, #16
     8d0:	ef000000 	svc	0x00000000
     8d4:	e8bd80e0 	pop	{r5, r6, r7, pc}

000008d8 <utee_get_cancellation_flag>:
utee_get_cancellation_flag():
/home/zhangzj/secure/optee_gerrit/optee_os/lib/libutee/arch/arm/utee_syscalls_asm.S:48
     8d8:	e92d40e0 	push	{r5, r6, r7, lr}
     8dc:	e3a0700a 	mov	r7, #10
     8e0:	e3a06000 	mov	r6, #0
     8e4:	ef000000 	svc	0x00000000
     8e8:	e8bd80e0 	pop	{r5, r6, r7, pc}

000008ec <utee_check_access_rights>:
utee_check_access_rights():
/home/zhangzj/secure/optee_gerrit/optee_os/lib/libutee/arch/arm/utee_syscalls_asm.S:51
     8ec:	e92d40e0 	push	{r5, r6, r7, lr}
     8f0:	e3a07009 	mov	r7, #9
     8f4:	e3a06000 	mov	r6, #0
     8f8:	ef000000 	svc	0x00000000
     8fc:	e8bd80e0 	pop	{r5, r6, r7, pc}

00000900 <utee_unmask_cancellation>:
utee_unmask_cancellation():
/home/zhangzj/secure/optee_gerrit/optee_os/lib/libutee/arch/arm/utee_syscalls_asm.S:53
     900:	e92d40e0 	push	{r5, r6, r7, lr}
     904:	e3a0700b 	mov	r7, #11
     908:	e3a06000 	mov	r6, #0
     90c:	ef000000 	svc	0x00000000
     910:	e8bd80e0 	pop	{r5, r6, r7, pc}

00000914 <utee_mask_cancellation>:
utee_mask_cancellation():
/home/zhangzj/secure/optee_gerrit/optee_os/lib/libutee/arch/arm/utee_syscalls_asm.S:55
     914:	e92d40e0 	push	{r5, r6, r7, lr}
     918:	e3a0700c 	mov	r7, #12
     91c:	e3a06000 	mov	r6, #0
     920:	ef000000 	svc	0x00000000
     924:	e8bd80e0 	pop	{r5, r6, r7, pc}

00000928 <utee_wait>:
utee_wait():
/home/zhangzj/secure/optee_gerrit/optee_os/lib/libutee/arch/arm/utee_syscalls_asm.S:57
     928:	e92d40e0 	push	{r5, r6, r7, lr}
     92c:	e3a0700d 	mov	r7, #13
     930:	e3a06000 	mov	r6, #0
     934:	ef000000 	svc	0x00000000
     938:	e8bd80e0 	pop	{r5, r6, r7, pc}

0000093c <utee_get_time>:
utee_get_time():
/home/zhangzj/secure/optee_gerrit/optee_os/lib/libutee/arch/arm/utee_syscalls_asm.S:59
     93c:	e92d40e0 	push	{r5, r6, r7, lr}
     940:	e3a0700e 	mov	r7, #14
     944:	e3a06000 	mov	r6, #0
     948:	ef000000 	svc	0x00000000
     94c:	e8bd80e0 	pop	{r5, r6, r7, pc}

00000950 <utee_set_ta_time>:
utee_set_ta_time():
/home/zhangzj/secure/optee_gerrit/optee_os/lib/libutee/arch/arm/utee_syscalls_asm.S:61
     950:	e92d40e0 	push	{r5, r6, r7, lr}
     954:	e3a0700f 	mov	r7, #15
     958:	e3a06000 	mov	r6, #0
     95c:	ef000000 	svc	0x00000000
     960:	e8bd80e0 	pop	{r5, r6, r7, pc}

00000964 <utee_cryp_state_alloc>:
utee_cryp_state_alloc():
/home/zhangzj/secure/optee_gerrit/optee_os/lib/libutee/arch/arm/utee_syscalls_asm.S:63
     964:	e92d40e0 	push	{r5, r6, r7, lr}
     968:	e3a07010 	mov	r7, #16
     96c:	e3a06001 	mov	r6, #1
     970:	e28d5010 	add	r5, sp, #16
     974:	ef000000 	svc	0x00000000
     978:	e8bd80e0 	pop	{r5, r6, r7, pc}

0000097c <utee_cryp_state_copy>:
utee_cryp_state_copy():
/home/zhangzj/secure/optee_gerrit/optee_os/lib/libutee/arch/arm/utee_syscalls_asm.S:65
     97c:	e92d40e0 	push	{r5, r6, r7, lr}
     980:	e3a07011 	mov	r7, #17
     984:	e3a06000 	mov	r6, #0
     988:	ef000000 	svc	0x00000000
     98c:	e8bd80e0 	pop	{r5, r6, r7, pc}

00000990 <utee_cryp_state_free>:
utee_cryp_state_free():
/home/zhangzj/secure/optee_gerrit/optee_os/lib/libutee/arch/arm/utee_syscalls_asm.S:67
     990:	e92d40e0 	push	{r5, r6, r7, lr}
     994:	e3a07012 	mov	r7, #18
     998:	e3a06000 	mov	r6, #0
     99c:	ef000000 	svc	0x00000000
     9a0:	e8bd80e0 	pop	{r5, r6, r7, pc}

000009a4 <utee_hash_init>:
utee_hash_init():
/home/zhangzj/secure/optee_gerrit/optee_os/lib/libutee/arch/arm/utee_syscalls_asm.S:69
     9a4:	e92d40e0 	push	{r5, r6, r7, lr}
     9a8:	e3a07013 	mov	r7, #19
     9ac:	e3a06000 	mov	r6, #0
     9b0:	ef000000 	svc	0x00000000
     9b4:	e8bd80e0 	pop	{r5, r6, r7, pc}

000009b8 <utee_hash_update>:
utee_hash_update():
/home/zhangzj/secure/optee_gerrit/optee_os/lib/libutee/arch/arm/utee_syscalls_asm.S:71
     9b8:	e92d40e0 	push	{r5, r6, r7, lr}
     9bc:	e3a07014 	mov	r7, #20
     9c0:	e3a06000 	mov	r6, #0
     9c4:	ef000000 	svc	0x00000000
     9c8:	e8bd80e0 	pop	{r5, r6, r7, pc}

000009cc <utee_hash_final>:
utee_hash_final():
/home/zhangzj/secure/optee_gerrit/optee_os/lib/libutee/arch/arm/utee_syscalls_asm.S:73
     9cc:	e92d40e0 	push	{r5, r6, r7, lr}
     9d0:	e3a07015 	mov	r7, #21
     9d4:	e3a06001 	mov	r6, #1
     9d8:	e28d5010 	add	r5, sp, #16
     9dc:	ef000000 	svc	0x00000000
     9e0:	e8bd80e0 	pop	{r5, r6, r7, pc}

000009e4 <utee_cipher_init>:
utee_cipher_init():
/home/zhangzj/secure/optee_gerrit/optee_os/lib/libutee/arch/arm/utee_syscalls_asm.S:75
     9e4:	e92d40e0 	push	{r5, r6, r7, lr}
     9e8:	e3a07016 	mov	r7, #22
     9ec:	e3a06000 	mov	r6, #0
     9f0:	ef000000 	svc	0x00000000
     9f4:	e8bd80e0 	pop	{r5, r6, r7, pc}

000009f8 <utee_cipher_update>:
utee_cipher_update():
/home/zhangzj/secure/optee_gerrit/optee_os/lib/libutee/arch/arm/utee_syscalls_asm.S:77
     9f8:	e92d40e0 	push	{r5, r6, r7, lr}
     9fc:	e3a07017 	mov	r7, #23
     a00:	e3a06001 	mov	r6, #1
     a04:	e28d5010 	add	r5, sp, #16
     a08:	ef000000 	svc	0x00000000
     a0c:	e8bd80e0 	pop	{r5, r6, r7, pc}

00000a10 <utee_cipher_final>:
utee_cipher_final():
/home/zhangzj/secure/optee_gerrit/optee_os/lib/libutee/arch/arm/utee_syscalls_asm.S:79
     a10:	e92d40e0 	push	{r5, r6, r7, lr}
     a14:	e3a07018 	mov	r7, #24
     a18:	e3a06001 	mov	r6, #1
     a1c:	e28d5010 	add	r5, sp, #16
     a20:	ef000000 	svc	0x00000000
     a24:	e8bd80e0 	pop	{r5, r6, r7, pc}

00000a28 <utee_cryp_obj_get_info>:
utee_cryp_obj_get_info():
/home/zhangzj/secure/optee_gerrit/optee_os/lib/libutee/arch/arm/utee_syscalls_asm.S:81
     a28:	e92d40e0 	push	{r5, r6, r7, lr}
     a2c:	e3a07019 	mov	r7, #25
     a30:	e3a06000 	mov	r6, #0
     a34:	ef000000 	svc	0x00000000
     a38:	e8bd80e0 	pop	{r5, r6, r7, pc}

00000a3c <utee_cryp_obj_restrict_usage>:
utee_cryp_obj_restrict_usage():
/home/zhangzj/secure/optee_gerrit/optee_os/lib/libutee/arch/arm/utee_syscalls_asm.S:83
     a3c:	e92d40e0 	push	{r5, r6, r7, lr}
     a40:	e3a0701a 	mov	r7, #26
     a44:	e3a06000 	mov	r6, #0
     a48:	ef000000 	svc	0x00000000
     a4c:	e8bd80e0 	pop	{r5, r6, r7, pc}

00000a50 <utee_cryp_obj_get_attr>:
utee_cryp_obj_get_attr():
/home/zhangzj/secure/optee_gerrit/optee_os/lib/libutee/arch/arm/utee_syscalls_asm.S:86
     a50:	e92d40e0 	push	{r5, r6, r7, lr}
     a54:	e3a0701b 	mov	r7, #27
     a58:	e3a06000 	mov	r6, #0
     a5c:	ef000000 	svc	0x00000000
     a60:	e8bd80e0 	pop	{r5, r6, r7, pc}

00000a64 <utee_cryp_obj_alloc>:
utee_cryp_obj_alloc():
/home/zhangzj/secure/optee_gerrit/optee_os/lib/libutee/arch/arm/utee_syscalls_asm.S:88
     a64:	e92d40e0 	push	{r5, r6, r7, lr}
     a68:	e3a0701c 	mov	r7, #28
     a6c:	e3a06000 	mov	r6, #0
     a70:	ef000000 	svc	0x00000000
     a74:	e8bd80e0 	pop	{r5, r6, r7, pc}

00000a78 <utee_cryp_obj_close>:
utee_cryp_obj_close():
/home/zhangzj/secure/optee_gerrit/optee_os/lib/libutee/arch/arm/utee_syscalls_asm.S:90
     a78:	e92d40e0 	push	{r5, r6, r7, lr}
     a7c:	e3a0701d 	mov	r7, #29
     a80:	e3a06000 	mov	r6, #0
     a84:	ef000000 	svc	0x00000000
     a88:	e8bd80e0 	pop	{r5, r6, r7, pc}

00000a8c <utee_cryp_obj_reset>:
utee_cryp_obj_reset():
/home/zhangzj/secure/optee_gerrit/optee_os/lib/libutee/arch/arm/utee_syscalls_asm.S:92
     a8c:	e92d40e0 	push	{r5, r6, r7, lr}
     a90:	e3a0701e 	mov	r7, #30
     a94:	e3a06000 	mov	r6, #0
     a98:	ef000000 	svc	0x00000000
     a9c:	e8bd80e0 	pop	{r5, r6, r7, pc}

00000aa0 <utee_cryp_obj_populate>:
utee_cryp_obj_populate():
/home/zhangzj/secure/optee_gerrit/optee_os/lib/libutee/arch/arm/utee_syscalls_asm.S:94
     aa0:	e92d40e0 	push	{r5, r6, r7, lr}
     aa4:	e3a0701f 	mov	r7, #31
     aa8:	e3a06000 	mov	r6, #0
     aac:	ef000000 	svc	0x00000000
     ab0:	e8bd80e0 	pop	{r5, r6, r7, pc}

00000ab4 <utee_cryp_obj_copy>:
utee_cryp_obj_copy():
/home/zhangzj/secure/optee_gerrit/optee_os/lib/libutee/arch/arm/utee_syscalls_asm.S:96
     ab4:	e92d40e0 	push	{r5, r6, r7, lr}
     ab8:	e3a07020 	mov	r7, #32
     abc:	e3a06000 	mov	r6, #0
     ac0:	ef000000 	svc	0x00000000
     ac4:	e8bd80e0 	pop	{r5, r6, r7, pc}

00000ac8 <utee_cryp_derive_key>:
utee_cryp_derive_key():
/home/zhangzj/secure/optee_gerrit/optee_os/lib/libutee/arch/arm/utee_syscalls_asm.S:98
     ac8:	e92d40e0 	push	{r5, r6, r7, lr}
     acc:	e3a07021 	mov	r7, #33	; 0x21
     ad0:	e3a06000 	mov	r6, #0
     ad4:	ef000000 	svc	0x00000000
     ad8:	e8bd80e0 	pop	{r5, r6, r7, pc}

00000adc <utee_cryp_random_number_generate>:
utee_cryp_random_number_generate():
/home/zhangzj/secure/optee_gerrit/optee_os/lib/libutee/arch/arm/utee_syscalls_asm.S:100
     adc:	e92d40e0 	push	{r5, r6, r7, lr}
     ae0:	e3a07022 	mov	r7, #34	; 0x22
     ae4:	e3a06000 	mov	r6, #0
     ae8:	ef000000 	svc	0x00000000
     aec:	e8bd80e0 	pop	{r5, r6, r7, pc}

00000af0 <utee_authenc_init>:
utee_authenc_init():
/home/zhangzj/secure/optee_gerrit/optee_os/lib/libutee/arch/arm/utee_syscalls_asm.S:103
     af0:	e92d40e0 	push	{r5, r6, r7, lr}
     af4:	e3a07023 	mov	r7, #35	; 0x23
     af8:	e3a06002 	mov	r6, #2
     afc:	e28d5010 	add	r5, sp, #16
     b00:	ef000000 	svc	0x00000000
     b04:	e8bd80e0 	pop	{r5, r6, r7, pc}

00000b08 <utee_authenc_update_aad>:
utee_authenc_update_aad():
/home/zhangzj/secure/optee_gerrit/optee_os/lib/libutee/arch/arm/utee_syscalls_asm.S:105
     b08:	e92d40e0 	push	{r5, r6, r7, lr}
     b0c:	e3a07024 	mov	r7, #36	; 0x24
     b10:	e3a06000 	mov	r6, #0
     b14:	ef000000 	svc	0x00000000
     b18:	e8bd80e0 	pop	{r5, r6, r7, pc}

00000b1c <utee_authenc_update_payload>:
utee_authenc_update_payload():
/home/zhangzj/secure/optee_gerrit/optee_os/lib/libutee/arch/arm/utee_syscalls_asm.S:107
     b1c:	e92d40e0 	push	{r5, r6, r7, lr}
     b20:	e3a07025 	mov	r7, #37	; 0x25
     b24:	e3a06001 	mov	r6, #1
     b28:	e28d5010 	add	r5, sp, #16
     b2c:	ef000000 	svc	0x00000000
     b30:	e8bd80e0 	pop	{r5, r6, r7, pc}

00000b34 <utee_authenc_enc_final>:
utee_authenc_enc_final():
/home/zhangzj/secure/optee_gerrit/optee_os/lib/libutee/arch/arm/utee_syscalls_asm.S:110
     b34:	e92d40e0 	push	{r5, r6, r7, lr}
     b38:	e3a07026 	mov	r7, #38	; 0x26
     b3c:	e3a06003 	mov	r6, #3
     b40:	e28d5010 	add	r5, sp, #16
     b44:	ef000000 	svc	0x00000000
     b48:	e8bd80e0 	pop	{r5, r6, r7, pc}

00000b4c <utee_authenc_dec_final>:
utee_authenc_dec_final():
/home/zhangzj/secure/optee_gerrit/optee_os/lib/libutee/arch/arm/utee_syscalls_asm.S:112
     b4c:	e92d40e0 	push	{r5, r6, r7, lr}
     b50:	e3a07027 	mov	r7, #39	; 0x27
     b54:	e3a06003 	mov	r6, #3
     b58:	e28d5010 	add	r5, sp, #16
     b5c:	ef000000 	svc	0x00000000
     b60:	e8bd80e0 	pop	{r5, r6, r7, pc}

00000b64 <utee_asymm_operate>:
utee_asymm_operate():
/home/zhangzj/secure/optee_gerrit/optee_os/lib/libutee/arch/arm/utee_syscalls_asm.S:114
     b64:	e92d40e0 	push	{r5, r6, r7, lr}
     b68:	e3a07028 	mov	r7, #40	; 0x28
     b6c:	e3a06003 	mov	r6, #3
     b70:	e28d5010 	add	r5, sp, #16
     b74:	ef000000 	svc	0x00000000
     b78:	e8bd80e0 	pop	{r5, r6, r7, pc}

00000b7c <utee_asymm_verify>:
utee_asymm_verify():
/home/zhangzj/secure/optee_gerrit/optee_os/lib/libutee/arch/arm/utee_syscalls_asm.S:116
     b7c:	e92d40e0 	push	{r5, r6, r7, lr}
     b80:	e3a07029 	mov	r7, #41	; 0x29
     b84:	e3a06003 	mov	r6, #3
     b88:	e28d5010 	add	r5, sp, #16
     b8c:	ef000000 	svc	0x00000000
     b90:	e8bd80e0 	pop	{r5, r6, r7, pc}

00000b94 <utee_storage_obj_open>:
utee_storage_obj_open():
/home/zhangzj/secure/optee_gerrit/optee_os/lib/libutee/arch/arm/utee_syscalls_asm.S:118
     b94:	e92d40e0 	push	{r5, r6, r7, lr}
     b98:	e3a0702a 	mov	r7, #42	; 0x2a
     b9c:	e3a06001 	mov	r6, #1
     ba0:	e28d5010 	add	r5, sp, #16
     ba4:	ef000000 	svc	0x00000000
     ba8:	e8bd80e0 	pop	{r5, r6, r7, pc}

00000bac <utee_storage_obj_create>:
utee_storage_obj_create():
/home/zhangzj/secure/optee_gerrit/optee_os/lib/libutee/arch/arm/utee_syscalls_asm.S:120
     bac:	e92d40e0 	push	{r5, r6, r7, lr}
     bb0:	e3a0702b 	mov	r7, #43	; 0x2b
     bb4:	e3a06004 	mov	r6, #4
     bb8:	e28d5010 	add	r5, sp, #16
     bbc:	ef000000 	svc	0x00000000
     bc0:	e8bd80e0 	pop	{r5, r6, r7, pc}

00000bc4 <utee_storage_obj_del>:
utee_storage_obj_del():
/home/zhangzj/secure/optee_gerrit/optee_os/lib/libutee/arch/arm/utee_syscalls_asm.S:122
     bc4:	e92d40e0 	push	{r5, r6, r7, lr}
     bc8:	e3a0702c 	mov	r7, #44	; 0x2c
     bcc:	e3a06000 	mov	r6, #0
     bd0:	ef000000 	svc	0x00000000
     bd4:	e8bd80e0 	pop	{r5, r6, r7, pc}

00000bd8 <utee_storage_obj_rename>:
utee_storage_obj_rename():
/home/zhangzj/secure/optee_gerrit/optee_os/lib/libutee/arch/arm/utee_syscalls_asm.S:124
     bd8:	e92d40e0 	push	{r5, r6, r7, lr}
     bdc:	e3a0702d 	mov	r7, #45	; 0x2d
     be0:	e3a06000 	mov	r6, #0
     be4:	ef000000 	svc	0x00000000
     be8:	e8bd80e0 	pop	{r5, r6, r7, pc}

00000bec <utee_storage_alloc_enum>:
utee_storage_alloc_enum():
/home/zhangzj/secure/optee_gerrit/optee_os/lib/libutee/arch/arm/utee_syscalls_asm.S:126
     bec:	e92d40e0 	push	{r5, r6, r7, lr}
     bf0:	e3a0702e 	mov	r7, #46	; 0x2e
     bf4:	e3a06000 	mov	r6, #0
     bf8:	ef000000 	svc	0x00000000
     bfc:	e8bd80e0 	pop	{r5, r6, r7, pc}

00000c00 <utee_storage_free_enum>:
utee_storage_free_enum():
/home/zhangzj/secure/optee_gerrit/optee_os/lib/libutee/arch/arm/utee_syscalls_asm.S:128
     c00:	e92d40e0 	push	{r5, r6, r7, lr}
     c04:	e3a0702f 	mov	r7, #47	; 0x2f
     c08:	e3a06000 	mov	r6, #0
     c0c:	ef000000 	svc	0x00000000
     c10:	e8bd80e0 	pop	{r5, r6, r7, pc}

00000c14 <utee_storage_reset_enum>:
utee_storage_reset_enum():
/home/zhangzj/secure/optee_gerrit/optee_os/lib/libutee/arch/arm/utee_syscalls_asm.S:130
     c14:	e92d40e0 	push	{r5, r6, r7, lr}
     c18:	e3a07030 	mov	r7, #48	; 0x30
     c1c:	e3a06000 	mov	r6, #0
     c20:	ef000000 	svc	0x00000000
     c24:	e8bd80e0 	pop	{r5, r6, r7, pc}

00000c28 <utee_storage_start_enum>:
utee_storage_start_enum():
/home/zhangzj/secure/optee_gerrit/optee_os/lib/libutee/arch/arm/utee_syscalls_asm.S:132
     c28:	e92d40e0 	push	{r5, r6, r7, lr}
     c2c:	e3a07031 	mov	r7, #49	; 0x31
     c30:	e3a06000 	mov	r6, #0
     c34:	ef000000 	svc	0x00000000
     c38:	e8bd80e0 	pop	{r5, r6, r7, pc}

00000c3c <utee_storage_next_enum>:
utee_storage_next_enum():
/home/zhangzj/secure/optee_gerrit/optee_os/lib/libutee/arch/arm/utee_syscalls_asm.S:134
     c3c:	e92d40e0 	push	{r5, r6, r7, lr}
     c40:	e3a07032 	mov	r7, #50	; 0x32
     c44:	e3a06000 	mov	r6, #0
     c48:	ef000000 	svc	0x00000000
     c4c:	e8bd80e0 	pop	{r5, r6, r7, pc}

00000c50 <utee_storage_obj_read>:
utee_storage_obj_read():
/home/zhangzj/secure/optee_gerrit/optee_os/lib/libutee/arch/arm/utee_syscalls_asm.S:136
     c50:	e92d40e0 	push	{r5, r6, r7, lr}
     c54:	e3a07033 	mov	r7, #51	; 0x33
     c58:	e3a06000 	mov	r6, #0
     c5c:	ef000000 	svc	0x00000000
     c60:	e8bd80e0 	pop	{r5, r6, r7, pc}

00000c64 <utee_storage_obj_write>:
utee_storage_obj_write():
/home/zhangzj/secure/optee_gerrit/optee_os/lib/libutee/arch/arm/utee_syscalls_asm.S:138
     c64:	e92d40e0 	push	{r5, r6, r7, lr}
     c68:	e3a07034 	mov	r7, #52	; 0x34
     c6c:	e3a06000 	mov	r6, #0
     c70:	ef000000 	svc	0x00000000
     c74:	e8bd80e0 	pop	{r5, r6, r7, pc}

00000c78 <utee_storage_obj_trunc>:
utee_storage_obj_trunc():
/home/zhangzj/secure/optee_gerrit/optee_os/lib/libutee/arch/arm/utee_syscalls_asm.S:140
     c78:	e92d40e0 	push	{r5, r6, r7, lr}
     c7c:	e3a07035 	mov	r7, #53	; 0x35
     c80:	e3a06000 	mov	r6, #0
     c84:	ef000000 	svc	0x00000000
     c88:	e8bd80e0 	pop	{r5, r6, r7, pc}

00000c8c <utee_storage_obj_seek>:
utee_storage_obj_seek():
/home/zhangzj/secure/optee_gerrit/optee_os/lib/libutee/arch/arm/utee_syscalls_asm.S:142
     c8c:	e92d40e0 	push	{r5, r6, r7, lr}
     c90:	e3a07036 	mov	r7, #54	; 0x36
     c94:	e3a06000 	mov	r6, #0
     c98:	ef000000 	svc	0x00000000
     c9c:	e8bd80e0 	pop	{r5, r6, r7, pc}

00000ca0 <utee_cryp_obj_generate_key>:
utee_cryp_obj_generate_key():
/home/zhangzj/secure/optee_gerrit/optee_os/lib/libutee/arch/arm/utee_syscalls_asm.S:144
     ca0:	e92d40e0 	push	{r5, r6, r7, lr}
     ca4:	e3a07037 	mov	r7, #55	; 0x37
     ca8:	e3a06000 	mov	r6, #0
     cac:	ef000000 	svc	0x00000000
     cb0:	e8bd80e0 	pop	{r5, r6, r7, pc}

00000cb4 <utee_se_service_open>:
utee_se_service_open():
/home/zhangzj/secure/optee_gerrit/optee_os/lib/libutee/arch/arm/utee_syscalls_asm.S:147
     cb4:	e92d40e0 	push	{r5, r6, r7, lr}
     cb8:	e3a07038 	mov	r7, #56	; 0x38
     cbc:	e3a06000 	mov	r6, #0
     cc0:	ef000000 	svc	0x00000000
     cc4:	e8bd80e0 	pop	{r5, r6, r7, pc}

00000cc8 <utee_se_service_close>:
utee_se_service_close():
/home/zhangzj/secure/optee_gerrit/optee_os/lib/libutee/arch/arm/utee_syscalls_asm.S:149
     cc8:	e92d40e0 	push	{r5, r6, r7, lr}
     ccc:	e3a07039 	mov	r7, #57	; 0x39
     cd0:	e3a06000 	mov	r6, #0
     cd4:	ef000000 	svc	0x00000000
     cd8:	e8bd80e0 	pop	{r5, r6, r7, pc}

00000cdc <utee_se_service_get_readers>:
utee_se_service_get_readers():
/home/zhangzj/secure/optee_gerrit/optee_os/lib/libutee/arch/arm/utee_syscalls_asm.S:151
     cdc:	e92d40e0 	push	{r5, r6, r7, lr}
     ce0:	e3a0703a 	mov	r7, #58	; 0x3a
     ce4:	e3a06000 	mov	r6, #0
     ce8:	ef000000 	svc	0x00000000
     cec:	e8bd80e0 	pop	{r5, r6, r7, pc}

00000cf0 <utee_se_reader_get_prop>:
utee_se_reader_get_prop():
/home/zhangzj/secure/optee_gerrit/optee_os/lib/libutee/arch/arm/utee_syscalls_asm.S:154
     cf0:	e92d40e0 	push	{r5, r6, r7, lr}
     cf4:	e3a0703b 	mov	r7, #59	; 0x3b
     cf8:	e3a06000 	mov	r6, #0
     cfc:	ef000000 	svc	0x00000000
     d00:	e8bd80e0 	pop	{r5, r6, r7, pc}

00000d04 <utee_se_reader_get_name>:
utee_se_reader_get_name():
/home/zhangzj/secure/optee_gerrit/optee_os/lib/libutee/arch/arm/utee_syscalls_asm.S:157
     d04:	e92d40e0 	push	{r5, r6, r7, lr}
     d08:	e3a0703c 	mov	r7, #60	; 0x3c
     d0c:	e3a06000 	mov	r6, #0
     d10:	ef000000 	svc	0x00000000
     d14:	e8bd80e0 	pop	{r5, r6, r7, pc}

00000d18 <utee_se_reader_open_session>:
utee_se_reader_open_session():
/home/zhangzj/secure/optee_gerrit/optee_os/lib/libutee/arch/arm/utee_syscalls_asm.S:160
     d18:	e92d40e0 	push	{r5, r6, r7, lr}
     d1c:	e3a0703d 	mov	r7, #61	; 0x3d
     d20:	e3a06000 	mov	r6, #0
     d24:	ef000000 	svc	0x00000000
     d28:	e8bd80e0 	pop	{r5, r6, r7, pc}

00000d2c <utee_se_reader_close_sessions>:
utee_se_reader_close_sessions():
/home/zhangzj/secure/optee_gerrit/optee_os/lib/libutee/arch/arm/utee_syscalls_asm.S:163
     d2c:	e92d40e0 	push	{r5, r6, r7, lr}
     d30:	e3a0703e 	mov	r7, #62	; 0x3e
     d34:	e3a06000 	mov	r6, #0
     d38:	ef000000 	svc	0x00000000
     d3c:	e8bd80e0 	pop	{r5, r6, r7, pc}

00000d40 <utee_se_session_is_closed>:
utee_se_session_is_closed():
/home/zhangzj/secure/optee_gerrit/optee_os/lib/libutee/arch/arm/utee_syscalls_asm.S:166
     d40:	e92d40e0 	push	{r5, r6, r7, lr}
     d44:	e3a0703f 	mov	r7, #63	; 0x3f
     d48:	e3a06000 	mov	r6, #0
     d4c:	ef000000 	svc	0x00000000
     d50:	e8bd80e0 	pop	{r5, r6, r7, pc}

00000d54 <utee_se_session_get_atr>:
utee_se_session_get_atr():
/home/zhangzj/secure/optee_gerrit/optee_os/lib/libutee/arch/arm/utee_syscalls_asm.S:169
     d54:	e92d40e0 	push	{r5, r6, r7, lr}
     d58:	e3a07040 	mov	r7, #64	; 0x40
     d5c:	e3a06000 	mov	r6, #0
     d60:	ef000000 	svc	0x00000000
     d64:	e8bd80e0 	pop	{r5, r6, r7, pc}

00000d68 <utee_se_session_open_channel>:
utee_se_session_open_channel():
/home/zhangzj/secure/optee_gerrit/optee_os/lib/libutee/arch/arm/utee_syscalls_asm.S:172
     d68:	e92d40e0 	push	{r5, r6, r7, lr}
     d6c:	e3a07041 	mov	r7, #65	; 0x41
     d70:	e3a06001 	mov	r6, #1
     d74:	e28d5010 	add	r5, sp, #16
     d78:	ef000000 	svc	0x00000000
     d7c:	e8bd80e0 	pop	{r5, r6, r7, pc}

00000d80 <utee_se_session_close>:
utee_se_session_close():
/home/zhangzj/secure/optee_gerrit/optee_os/lib/libutee/arch/arm/utee_syscalls_asm.S:175
     d80:	e92d40e0 	push	{r5, r6, r7, lr}
     d84:	e3a07042 	mov	r7, #66	; 0x42
     d88:	e3a06000 	mov	r6, #0
     d8c:	ef000000 	svc	0x00000000
     d90:	e8bd80e0 	pop	{r5, r6, r7, pc}

00000d94 <utee_se_channel_select_next>:
utee_se_channel_select_next():
/home/zhangzj/secure/optee_gerrit/optee_os/lib/libutee/arch/arm/utee_syscalls_asm.S:178
     d94:	e92d40e0 	push	{r5, r6, r7, lr}
     d98:	e3a07043 	mov	r7, #67	; 0x43
     d9c:	e3a06000 	mov	r6, #0
     da0:	ef000000 	svc	0x00000000
     da4:	e8bd80e0 	pop	{r5, r6, r7, pc}

00000da8 <utee_se_channel_get_select_resp>:
utee_se_channel_get_select_resp():
/home/zhangzj/secure/optee_gerrit/optee_os/lib/libutee/arch/arm/utee_syscalls_asm.S:181
     da8:	e92d40e0 	push	{r5, r6, r7, lr}
     dac:	e3a07044 	mov	r7, #68	; 0x44
     db0:	e3a06000 	mov	r6, #0
     db4:	ef000000 	svc	0x00000000
     db8:	e8bd80e0 	pop	{r5, r6, r7, pc}

00000dbc <utee_se_channel_transmit>:
utee_se_channel_transmit():
/home/zhangzj/secure/optee_gerrit/optee_os/lib/libutee/arch/arm/utee_syscalls_asm.S:184
     dbc:	e92d40e0 	push	{r5, r6, r7, lr}
     dc0:	e3a07045 	mov	r7, #69	; 0x45
     dc4:	e3a06001 	mov	r6, #1
     dc8:	e28d5010 	add	r5, sp, #16
     dcc:	ef000000 	svc	0x00000000
     dd0:	e8bd80e0 	pop	{r5, r6, r7, pc}

00000dd4 <utee_se_channel_close>:
utee_se_channel_close():
/home/zhangzj/secure/optee_gerrit/optee_os/lib/libutee/arch/arm/utee_syscalls_asm.S:187
     dd4:	e92d40e0 	push	{r5, r6, r7, lr}
     dd8:	e3a07046 	mov	r7, #70	; 0x46
     ddc:	e3a06000 	mov	r6, #0
     de0:	ef000000 	svc	0x00000000
     de4:	e8bd80e0 	pop	{r5, r6, r7, pc}

00000de8 <utee_cache_operation>:
utee_cache_operation():
/home/zhangzj/secure/optee_gerrit/optee_os/lib/libutee/arch/arm/utee_syscalls_asm.S:190
     de8:	e92d40e0 	push	{r5, r6, r7, lr}
     dec:	e3a07047 	mov	r7, #71	; 0x47
     df0:	e3a06000 	mov	r6, #0
     df4:	ef000000 	svc	0x00000000
     df8:	e8bd80e0 	pop	{r5, r6, r7, pc}

00000dfc <utee_get_property>:
utee_get_property():
/home/zhangzj/secure/optee_gerrit/optee_os/lib/libutee/arch/arm/utee_syscalls_asm.S:192
     dfc:	e92d40e0 	push	{r5, r6, r7, lr}
     e00:	e3a07048 	mov	r7, #72	; 0x48
     e04:	e3a06003 	mov	r6, #3
     e08:	e28d5010 	add	r5, sp, #16
     e0c:	ef000000 	svc	0x00000000
     e10:	e8bd80e0 	pop	{r5, r6, r7, pc}

00000e14 <utee_get_property_name_to_index>:
utee_get_property_name_to_index():
/home/zhangzj/secure/optee_gerrit/optee_os/lib/libutee/arch/arm/utee_syscalls_asm.S:194
     e14:	e92d40e0 	push	{r5, r6, r7, lr}
     e18:	e3a07049 	mov	r7, #73	; 0x49
     e1c:	e3a06000 	mov	r6, #0
     e20:	ef000000 	svc	0x00000000
     e24:	e8bd80e0 	pop	{r5, r6, r7, pc}

00000e28 <utee_cryp_random_number_add_entropy>:
utee_cryp_random_number_add_entropy():
/home/zhangzj/secure/optee_gerrit/optee_os/lib/libutee/arch/arm/utee_syscalls_asm.S:197
     e28:	e92d40e0 	push	{r5, r6, r7, lr}
     e2c:	e3a0704a 	mov	r7, #74	; 0x4a
     e30:	e3a06000 	mov	r6, #0
     e34:	ef000000 	svc	0x00000000
     e38:	e8bd80e0 	pop	{r5, r6, r7, pc}

00000e3c <print_buf>:
print_buf():
/home/zhangzj/secure/optee_gerrit/optee_os/lib/libutee/tee_user_mem.c:164
     e3c:	b530      	push	{r4, r5, lr}
     e3e:	b089      	sub	sp, #36	; 0x24
     e40:	4604      	mov	r4, r0
/home/zhangzj/secure/optee_gerrit/optee_os/lib/libutee/tee_user_mem.c:165
     e42:	4d0b      	ldr	r5, [pc, #44]	; (e70 <print_buf+0x34>)
/home/zhangzj/secure/optee_gerrit/optee_os/lib/libutee/tee_user_mem.c:164
     e44:	980c      	ldr	r0, [sp, #48]	; 0x30
/home/zhangzj/secure/optee_gerrit/optee_os/lib/libutee/tee_user_mem.c:165
     e46:	9303      	str	r3, [sp, #12]
     e48:	9101      	str	r1, [sp, #4]
     e4a:	9202      	str	r2, [sp, #8]
     e4c:	4622      	mov	r2, r4
     e4e:	447d      	add	r5, pc
buf_addr():
/home/zhangzj/secure/optee_gerrit/optee_os/lib/libutee/tee_user_mem.c:130
     e50:	f100 0310 	add.w	r3, r0, #16
print_buf():
/home/zhangzj/secure/optee_gerrit/optee_os/lib/libutee/tee_user_mem.c:165
     e54:	9004      	str	r0, [sp, #16]
     e56:	9500      	str	r5, [sp, #0]
     e58:	9305      	str	r3, [sp, #20]
buf_size():
/home/zhangzj/secure/optee_gerrit/optee_os/lib/libutee/tee_user_mem.c:135
     e5a:	6883      	ldr	r3, [r0, #8]
print_buf():
/home/zhangzj/secure/optee_gerrit/optee_os/lib/libutee/tee_user_mem.c:165
     e5c:	2000      	movs	r0, #0
     e5e:	4601      	mov	r1, r0
buf_size():
/home/zhangzj/secure/optee_gerrit/optee_os/lib/libutee/tee_user_mem.c:135
     e60:	3b11      	subs	r3, #17
print_buf():
/home/zhangzj/secure/optee_gerrit/optee_os/lib/libutee/tee_user_mem.c:165
     e62:	9306      	str	r3, [sp, #24]
     e64:	2301      	movs	r3, #1
     e66:	f003 f8e9 	bl	403c <trace_printf>
/home/zhangzj/secure/optee_gerrit/optee_os/lib/libutee/tee_user_mem.c:168
     e6a:	b009      	add	sp, #36	; 0x24
     e6c:	bd30      	pop	{r4, r5, pc}
     e6e:	bf00      	nop
     e70:	00008fd6 	.word	0x00008fd6

00000e74 <check_elem>:
check_elem():
/home/zhangzj/secure/optee_gerrit/optee_os/lib/libutee/tee_user_mem.c:235
     e74:	b513      	push	{r0, r1, r4, lr}
/home/zhangzj/secure/optee_gerrit/optee_os/lib/libutee/tee_user_mem.c:239
     e76:	2800      	cmp	r0, #0
     e78:	d03f      	beq.n	efa <check_elem+0x86>
/home/zhangzj/secure/optee_gerrit/optee_os/lib/libutee/tee_user_mem.c:242
     e7a:	f010 0403 	ands.w	r4, r0, #3
     e7e:	d008      	beq.n	e92 <check_elem+0x1e>
     e80:	481f      	ldr	r0, [pc, #124]	; (f00 <check_elem+0x8c>)
     e82:	22f2      	movs	r2, #242	; 0xf2
     e84:	491f      	ldr	r1, [pc, #124]	; (f04 <check_elem+0x90>)
     e86:	4478      	add	r0, pc
     e88:	4479      	add	r1, pc
     e8a:	f000 f9b5 	bl	11f8 <_assert_log>
     e8e:	f000 f9c9 	bl	1224 <_assert_break>
/home/zhangzj/secure/optee_gerrit/optee_os/lib/libutee/tee_user_mem.c:244
     e92:	6803      	ldr	r3, [r0, #0]
/home/zhangzj/secure/optee_gerrit/optee_os/lib/libutee/tee_user_mem.c:245
     e94:	b163      	cbz	r3, eb0 <check_elem+0x3c>
/home/zhangzj/secure/optee_gerrit/optee_os/lib/libutee/tee_user_mem.c:245 (discriminator 1)
     e96:	685a      	ldr	r2, [r3, #4]
     e98:	6852      	ldr	r2, [r2, #4]
     e9a:	6812      	ldr	r2, [r2, #0]
     e9c:	4282      	cmp	r2, r0
     e9e:	d007      	beq.n	eb0 <check_elem+0x3c>
/home/zhangzj/secure/optee_gerrit/optee_os/lib/libutee/tee_user_mem.c:246
     ea0:	9300      	str	r3, [sp, #0]
     ea2:	4919      	ldr	r1, [pc, #100]	; (f08 <check_elem+0x94>)
     ea4:	2001      	movs	r0, #1
     ea6:	4b19      	ldr	r3, [pc, #100]	; (f0c <check_elem+0x98>)
     ea8:	22f6      	movs	r2, #246	; 0xf6
     eaa:	4479      	add	r1, pc
     eac:	447b      	add	r3, pc
     eae:	e01f      	b.n	ef0 <check_elem+0x7c>
/home/zhangzj/secure/optee_gerrit/optee_os/lib/libutee/tee_user_mem.c:250
     eb0:	6843      	ldr	r3, [r0, #4]
     eb2:	685b      	ldr	r3, [r3, #4]
     eb4:	681b      	ldr	r3, [r3, #0]
/home/zhangzj/secure/optee_gerrit/optee_os/lib/libutee/tee_user_mem.c:251
     eb6:	b153      	cbz	r3, ece <check_elem+0x5a>
/home/zhangzj/secure/optee_gerrit/optee_os/lib/libutee/tee_user_mem.c:251 (discriminator 1)
     eb8:	681a      	ldr	r2, [r3, #0]
     eba:	4282      	cmp	r2, r0
     ebc:	d007      	beq.n	ece <check_elem+0x5a>
/home/zhangzj/secure/optee_gerrit/optee_os/lib/libutee/tee_user_mem.c:252
     ebe:	9300      	str	r3, [sp, #0]
     ec0:	4913      	ldr	r1, [pc, #76]	; (f10 <check_elem+0x9c>)
     ec2:	2001      	movs	r0, #1
     ec4:	4b13      	ldr	r3, [pc, #76]	; (f14 <check_elem+0xa0>)
     ec6:	22fc      	movs	r2, #252	; 0xfc
     ec8:	4479      	add	r1, pc
     eca:	447b      	add	r3, pc
     ecc:	e010      	b.n	ef0 <check_elem+0x7c>
check_elem_end():
/home/zhangzj/secure/optee_gerrit/optee_os/lib/libutee/tee_user_mem.c:225
     ece:	6883      	ldr	r3, [r0, #8]
     ed0:	4403      	add	r3, r0
     ed2:	f813 2c01 	ldrb.w	r2, [r3, #-1]
/home/zhangzj/secure/optee_gerrit/optee_os/lib/libutee/tee_user_mem.c:226
     ed6:	b2c3      	uxtb	r3, r0
     ed8:	f083 03c5 	eor.w	r3, r3, #197	; 0xc5
/home/zhangzj/secure/optee_gerrit/optee_os/lib/libutee/tee_user_mem.c:225
     edc:	429a      	cmp	r2, r3
     ede:	d00b      	beq.n	ef8 <check_elem+0x84>
/home/zhangzj/secure/optee_gerrit/optee_os/lib/libutee/tee_user_mem.c:227
     ee0:	490d      	ldr	r1, [pc, #52]	; (f18 <check_elem+0xa4>)
     ee2:	9000      	str	r0, [sp, #0]
     ee4:	22e3      	movs	r2, #227	; 0xe3
     ee6:	4b0d      	ldr	r3, [pc, #52]	; (f1c <check_elem+0xa8>)
     ee8:	2001      	movs	r0, #1
     eea:	4479      	add	r1, pc
     eec:	310b      	adds	r1, #11
     eee:	447b      	add	r3, pc
     ef0:	f7ff ffa4 	bl	e3c <print_buf>
/home/zhangzj/secure/optee_gerrit/optee_os/lib/libutee/tee_user_mem.c:228
     ef4:	2000      	movs	r0, #0
     ef6:	e000      	b.n	efa <check_elem+0x86>
/home/zhangzj/secure/optee_gerrit/optee_os/lib/libutee/tee_user_mem.c:231
     ef8:	2001      	movs	r0, #1
check_elem():
/home/zhangzj/secure/optee_gerrit/optee_os/lib/libutee/tee_user_mem.c:257
     efa:	b002      	add	sp, #8
     efc:	bd10      	pop	{r4, pc}
     efe:	bf00      	nop
     f00:	00008fc0 	.word	0x00008fc0
     f04:	00008fda 	.word	0x00008fda
     f08:	00008f0f 	.word	0x00008f0f
     f0c:	00008fd1 	.word	0x00008fd1
     f10:	00008ef1 	.word	0x00008ef1
     f14:	00008fb3 	.word	0x00008fb3
     f18:	00008ecf 	.word	0x00008ecf
     f1c:	00008f9a 	.word	0x00008f9a

00000f20 <tee_user_mem_alloc>:
tee_user_mem_alloc():
/home/zhangzj/secure/optee_gerrit/optee_os/lib/libutee/tee_user_mem.c:293
     f20:	b5f7      	push	{r0, r1, r2, r4, r5, r6, r7, lr}
/home/zhangzj/secure/optee_gerrit/optee_os/lib/libutee/tee_user_mem.c:302
     f22:	1e06      	subs	r6, r0, #0
/home/zhangzj/secure/optee_gerrit/optee_os/lib/libutee/tee_user_mem.c:293
     f24:	460d      	mov	r5, r1
/home/zhangzj/secure/optee_gerrit/optee_os/lib/libutee/tee_user_mem.c:302
     f26:	db11      	blt.n	f4c <tee_user_mem_alloc+0x2c>
/home/zhangzj/secure/optee_gerrit/optee_os/lib/libutee/tee_user_mem.c:307
     f28:	d04f      	beq.n	fca <tee_user_mem_alloc+0xaa>
/home/zhangzj/secure/optee_gerrit/optee_os/lib/libutee/tee_user_mem.c:313
     f2a:	b189      	cbz	r1, f50 <tee_user_mem_alloc+0x30>
     f2c:	f1b1 4f00 	cmp.w	r1, #2147483648	; 0x80000000
     f30:	d00e      	beq.n	f50 <tee_user_mem_alloc+0x30>
/home/zhangzj/secure/optee_gerrit/optee_os/lib/libutee/tee_user_mem.c:318
     f32:	4b27      	ldr	r3, [pc, #156]	; (fd0 <tee_user_mem_alloc+0xb0>)
     f34:	2201      	movs	r2, #1
     f36:	4827      	ldr	r0, [pc, #156]	; (fd4 <tee_user_mem_alloc+0xb4>)
     f38:	447b      	add	r3, pc
     f3a:	4478      	add	r0, pc
     f3c:	e9cd 3100 	strd	r3, r1, [sp]
     f40:	301a      	adds	r0, #26
     f42:	f44f 719f 	mov.w	r1, #318	; 0x13e
     f46:	4613      	mov	r3, r2
     f48:	f003 f878 	bl	403c <trace_printf>
/home/zhangzj/secure/optee_gerrit/optee_os/lib/libutee/tee_user_mem.c:320
     f4c:	2000      	movs	r0, #0
     f4e:	e03d      	b.n	fcc <tee_user_mem_alloc+0xac>
/home/zhangzj/secure/optee_gerrit/optee_os/lib/libutee/tee_user_mem.c:296
     f50:	f106 0711 	add.w	r7, r6, #17
/home/zhangzj/secure/optee_gerrit/optee_os/lib/libutee/tee_user_mem.c:323
     f54:	4638      	mov	r0, r7
     f56:	f007 fc79 	bl	884c <utee_malloc>
/home/zhangzj/secure/optee_gerrit/optee_os/lib/libutee/tee_user_mem.c:324
     f5a:	4604      	mov	r4, r0
     f5c:	2800      	cmp	r0, #0
     f5e:	d0f5      	beq.n	f4c <tee_user_mem_alloc+0x2c>
heap_inc():
/home/zhangzj/secure/optee_gerrit/optee_os/lib/libutee/tee_user_mem.c:196
     f60:	4b1d      	ldr	r3, [pc, #116]	; (fd8 <tee_user_mem_alloc+0xb8>)
tee_user_mem_alloc():
/home/zhangzj/secure/optee_gerrit/optee_os/lib/libutee/tee_user_mem.c:326
     f62:	6087      	str	r7, [r0, #8]
buf_addr():
/home/zhangzj/secure/optee_gerrit/optee_os/lib/libutee/tee_user_mem.c:130
     f64:	3410      	adds	r4, #16
tee_user_mem_alloc():
/home/zhangzj/secure/optee_gerrit/optee_os/lib/libutee/tee_user_mem.c:327
     f66:	60c5      	str	r5, [r0, #12]
/home/zhangzj/secure/optee_gerrit/optee_os/lib/libutee/tee_user_mem.c:339
     f68:	491c      	ldr	r1, [pc, #112]	; (fdc <tee_user_mem_alloc+0xbc>)
heap_inc():
/home/zhangzj/secure/optee_gerrit/optee_os/lib/libutee/tee_user_mem.c:196
     f6a:	447b      	add	r3, pc
     f6c:	681a      	ldr	r2, [r3, #0]
tee_user_mem_alloc():
/home/zhangzj/secure/optee_gerrit/optee_os/lib/libutee/tee_user_mem.c:339
     f6e:	4479      	add	r1, pc
     f70:	311a      	adds	r1, #26
heap_inc():
/home/zhangzj/secure/optee_gerrit/optee_os/lib/libutee/tee_user_mem.c:196
     f72:	443a      	add	r2, r7
     f74:	601a      	str	r2, [r3, #0]
/home/zhangzj/secure/optee_gerrit/optee_os/lib/libutee/tee_user_mem.c:198
     f76:	685a      	ldr	r2, [r3, #4]
     f78:	3201      	adds	r2, #1
     f7a:	605a      	str	r2, [r3, #4]
/home/zhangzj/secure/optee_gerrit/optee_os/lib/libutee/tee_user_mem.c:199
     f7c:	689a      	ldr	r2, [r3, #8]
     f7e:	4417      	add	r7, r2
     f80:	609f      	str	r7, [r3, #8]
tee_user_mem_alloc():
/home/zhangzj/secure/optee_gerrit/optee_os/lib/libutee/tee_user_mem.c:331
     f82:	2300      	movs	r3, #0
     f84:	6003      	str	r3, [r0, #0]
     f86:	4b16      	ldr	r3, [pc, #88]	; (fe0 <tee_user_mem_alloc+0xc0>)
     f88:	447b      	add	r3, pc
     f8a:	685a      	ldr	r2, [r3, #4]
     f8c:	6042      	str	r2, [r0, #4]
     f8e:	6010      	str	r0, [r2, #0]
/home/zhangzj/secure/optee_gerrit/optee_os/lib/libutee/tee_user_mem.c:335
     f90:	f080 02c5 	eor.w	r2, r0, #197	; 0xc5
/home/zhangzj/secure/optee_gerrit/optee_os/lib/libutee/tee_user_mem.c:331
     f94:	6058      	str	r0, [r3, #4]
/home/zhangzj/secure/optee_gerrit/optee_os/lib/libutee/tee_user_mem.c:335
     f96:	1983      	adds	r3, r0, r6
     f98:	741a      	strb	r2, [r3, #16]
/home/zhangzj/secure/optee_gerrit/optee_os/lib/libutee/tee_user_mem.c:339
     f9a:	4b12      	ldr	r3, [pc, #72]	; (fe4 <tee_user_mem_alloc+0xc4>)
     f9c:	f240 1253 	movw	r2, #339	; 0x153
     fa0:	9000      	str	r0, [sp, #0]
     fa2:	2003      	movs	r0, #3
     fa4:	447b      	add	r3, pc
     fa6:	f7ff ff49 	bl	e3c <print_buf>
/home/zhangzj/secure/optee_gerrit/optee_os/lib/libutee/tee_user_mem.c:344
     faa:	4620      	mov	r0, r4
/home/zhangzj/secure/optee_gerrit/optee_os/lib/libutee/tee_user_mem.c:343
     fac:	b925      	cbnz	r5, fb8 <tee_user_mem_alloc+0x98>
/home/zhangzj/secure/optee_gerrit/optee_os/lib/libutee/tee_user_mem.c:344
     fae:	4629      	mov	r1, r5
     fb0:	4632      	mov	r2, r6
     fb2:	f001 ffe5 	bl	2f80 <memset>
     fb6:	e006      	b.n	fc6 <tee_user_mem_alloc+0xa6>
/home/zhangzj/secure/optee_gerrit/optee_os/lib/libutee/tee_user_mem.c:346
     fb8:	f1b5 4f00 	cmp.w	r5, #2147483648	; 0x80000000
     fbc:	d106      	bne.n	fcc <tee_user_mem_alloc+0xac>
/home/zhangzj/secure/optee_gerrit/optee_os/lib/libutee/tee_user_mem.c:348
     fbe:	21bb      	movs	r1, #187	; 0xbb
     fc0:	4632      	mov	r2, r6
     fc2:	f001 ffdd 	bl	2f80 <memset>
     fc6:	4620      	mov	r0, r4
     fc8:	e000      	b.n	fcc <tee_user_mem_alloc+0xac>
/home/zhangzj/secure/optee_gerrit/optee_os/lib/libutee/tee_user_mem.c:309
     fca:	2010      	movs	r0, #16
/home/zhangzj/secure/optee_gerrit/optee_os/lib/libutee/tee_user_mem.c:354
     fcc:	b003      	add	sp, #12
     fce:	bdf0      	pop	{r4, r5, r6, r7, pc}
     fd0:	00008f5c 	.word	0x00008f5c
     fd4:	00008e7f 	.word	0x00008e7f
     fd8:	00012166 	.word	0x00012166
     fdc:	00008e4b 	.word	0x00008e4b
     fe0:	0000a100 	.word	0x0000a100
     fe4:	00008f0a 	.word	0x00008f0a

00000fe8 <tee_user_mem_free>:
tee_user_mem_free():
/home/zhangzj/secure/optee_gerrit/optee_os/lib/libutee/tee_user_mem.c:419
     fe8:	b537      	push	{r0, r1, r2, r4, r5, lr}
/home/zhangzj/secure/optee_gerrit/optee_os/lib/libutee/tee_user_mem.c:426
     fea:	4605      	mov	r5, r0
     fec:	2800      	cmp	r0, #0
     fee:	d056      	beq.n	109e <tee_user_mem_free+0xb6>
/home/zhangzj/secure/optee_gerrit/optee_os/lib/libutee/tee_user_mem.c:426 (discriminator 1)
     ff0:	2810      	cmp	r0, #16
     ff2:	d054      	beq.n	109e <tee_user_mem_free+0xb6>
is_buffer_valid():
/home/zhangzj/secure/optee_gerrit/optee_os/lib/libutee/tee_user_mem.c:150
     ff4:	4b2b      	ldr	r3, [pc, #172]	; (10a4 <tee_user_mem_free+0xbc>)
     ff6:	447b      	add	r3, pc
     ff8:	681c      	ldr	r4, [r3, #0]
     ffa:	b12c      	cbz	r4, 1008 <tee_user_mem_free+0x20>
buf_addr():
/home/zhangzj/secure/optee_gerrit/optee_os/lib/libutee/tee_user_mem.c:130
     ffc:	f104 0310 	add.w	r3, r4, #16
is_buffer_valid():
/home/zhangzj/secure/optee_gerrit/optee_os/lib/libutee/tee_user_mem.c:151
    1000:	429d      	cmp	r5, r3
    1002:	d00f      	beq.n	1024 <tee_user_mem_free+0x3c>
/home/zhangzj/secure/optee_gerrit/optee_os/lib/libutee/tee_user_mem.c:150
    1004:	6824      	ldr	r4, [r4, #0]
    1006:	e7f8      	b.n	ffa <tee_user_mem_free+0x12>
tee_user_mem_free():
/home/zhangzj/secure/optee_gerrit/optee_os/lib/libutee/tee_user_mem.c:431
    1008:	4b27      	ldr	r3, [pc, #156]	; (10a8 <tee_user_mem_free+0xc0>)
    100a:	2201      	movs	r2, #1
    100c:	f240 11af 	movw	r1, #431	; 0x1af
    1010:	4826      	ldr	r0, [pc, #152]	; (10ac <tee_user_mem_free+0xc4>)
    1012:	447b      	add	r3, pc
    1014:	4478      	add	r0, pc
    1016:	e9cd 3500 	strd	r3, r5, [sp]
    101a:	302d      	adds	r0, #45	; 0x2d
    101c:	4613      	mov	r3, r2
    101e:	f003 f80d 	bl	403c <trace_printf>
/home/zhangzj/secure/optee_gerrit/optee_os/lib/libutee/tee_user_mem.c:432
    1022:	e03c      	b.n	109e <tee_user_mem_free+0xb6>
/home/zhangzj/secure/optee_gerrit/optee_os/lib/libutee/tee_user_mem.c:438
    1024:	4922      	ldr	r1, [pc, #136]	; (10b0 <tee_user_mem_free+0xc8>)
    1026:	2003      	movs	r0, #3
    1028:	9400      	str	r4, [sp, #0]
    102a:	4b22      	ldr	r3, [pc, #136]	; (10b4 <tee_user_mem_free+0xcc>)
    102c:	f44f 72db 	mov.w	r2, #438	; 0x1b6
    1030:	4479      	add	r1, pc
    1032:	312d      	adds	r1, #45	; 0x2d
    1034:	447b      	add	r3, pc
    1036:	f7ff ff01 	bl	e3c <print_buf>
/home/zhangzj/secure/optee_gerrit/optee_os/lib/libutee/tee_user_mem.c:441
    103a:	4620      	mov	r0, r4
    103c:	f7ff ff1a 	bl	e74 <check_elem>
    1040:	b948      	cbnz	r0, 1056 <tee_user_mem_free+0x6e>
    1042:	481d      	ldr	r0, [pc, #116]	; (10b8 <tee_user_mem_free+0xd0>)
    1044:	f240 12b9 	movw	r2, #441	; 0x1b9
    1048:	491c      	ldr	r1, [pc, #112]	; (10bc <tee_user_mem_free+0xd4>)
    104a:	4478      	add	r0, pc
    104c:	4479      	add	r1, pc
    104e:	f000 f8d3 	bl	11f8 <_assert_log>
    1052:	f000 f8e7 	bl	1224 <_assert_break>
/home/zhangzj/secure/optee_gerrit/optee_os/lib/libutee/tee_user_mem.c:444
    1056:	f855 3c10 	ldr.w	r3, [r5, #-16]
    105a:	f855 2c0c 	ldr.w	r2, [r5, #-12]
    105e:	b10b      	cbz	r3, 1064 <tee_user_mem_free+0x7c>
    1060:	605a      	str	r2, [r3, #4]
    1062:	e002      	b.n	106a <tee_user_mem_free+0x82>
    1064:	4916      	ldr	r1, [pc, #88]	; (10c0 <tee_user_mem_free+0xd8>)
    1066:	4479      	add	r1, pc
    1068:	604a      	str	r2, [r1, #4]
    106a:	f855 2c0c 	ldr.w	r2, [r5, #-12]
/home/zhangzj/secure/optee_gerrit/optee_os/lib/libutee/tee_user_mem.c:455
    106e:	4620      	mov	r0, r4
/home/zhangzj/secure/optee_gerrit/optee_os/lib/libutee/tee_user_mem.c:444
    1070:	6013      	str	r3, [r2, #0]
heap_dec():
/home/zhangzj/secure/optee_gerrit/optee_os/lib/libutee/tee_user_mem.c:206
    1072:	4b14      	ldr	r3, [pc, #80]	; (10c4 <tee_user_mem_free+0xdc>)
tee_user_mem_free():
/home/zhangzj/secure/optee_gerrit/optee_os/lib/libutee/tee_user_mem.c:446
    1074:	f855 2c08 	ldr.w	r2, [r5, #-8]
heap_dec():
/home/zhangzj/secure/optee_gerrit/optee_os/lib/libutee/tee_user_mem.c:206
    1078:	447b      	add	r3, pc
    107a:	6819      	ldr	r1, [r3, #0]
    107c:	1a89      	subs	r1, r1, r2
    107e:	6019      	str	r1, [r3, #0]
/home/zhangzj/secure/optee_gerrit/optee_os/lib/libutee/tee_user_mem.c:208
    1080:	6859      	ldr	r1, [r3, #4]
    1082:	3901      	subs	r1, #1
    1084:	6059      	str	r1, [r3, #4]
/home/zhangzj/secure/optee_gerrit/optee_os/lib/libutee/tee_user_mem.c:209
    1086:	6899      	ldr	r1, [r3, #8]
    1088:	1a89      	subs	r1, r1, r2
    108a:	6099      	str	r1, [r3, #8]
tee_user_mem_free():
/home/zhangzj/secure/optee_gerrit/optee_os/lib/libutee/tee_user_mem.c:455
    108c:	21aa      	movs	r1, #170	; 0xaa
    108e:	f001 ff77 	bl	2f80 <memset>
/home/zhangzj/secure/optee_gerrit/optee_os/lib/libutee/tee_user_mem.c:458
    1092:	4620      	mov	r0, r4
/home/zhangzj/secure/optee_gerrit/optee_os/lib/libutee/tee_user_mem.c:461
    1094:	b003      	add	sp, #12
    1096:	e8bd 4030 	ldmia.w	sp!, {r4, r5, lr}
/home/zhangzj/secure/optee_gerrit/optee_os/lib/libutee/tee_user_mem.c:458
    109a:	f007 bbe0 	b.w	885e <utee_free>
/home/zhangzj/secure/optee_gerrit/optee_os/lib/libutee/tee_user_mem.c:461
    109e:	b003      	add	sp, #12
    10a0:	bd30      	pop	{r4, r5, pc}
    10a2:	bf00      	nop
    10a4:	0000a092 	.word	0x0000a092
    10a8:	00008eb5 	.word	0x00008eb5
    10ac:	00008da5 	.word	0x00008da5
    10b0:	00008d89 	.word	0x00008d89
    10b4:	00008ead 	.word	0x00008ead
    10b8:	00008e6f 	.word	0x00008e6f
    10bc:	00008e16 	.word	0x00008e16
    10c0:	0000a022 	.word	0x0000a022
    10c4:	00012058 	.word	0x00012058

000010c8 <tee_user_mem_realloc>:
tee_user_mem_realloc():
/home/zhangzj/secure/optee_gerrit/optee_os/lib/libutee/tee_user_mem.c:363
    10c8:	b5f8      	push	{r3, r4, r5, r6, r7, lr}
/home/zhangzj/secure/optee_gerrit/optee_os/lib/libutee/tee_user_mem.c:370
    10ca:	1e0f      	subs	r7, r1, #0
/home/zhangzj/secure/optee_gerrit/optee_os/lib/libutee/tee_user_mem.c:363
    10cc:	4605      	mov	r5, r0
/home/zhangzj/secure/optee_gerrit/optee_os/lib/libutee/tee_user_mem.c:370
    10ce:	db11      	blt.n	10f4 <tee_user_mem_realloc+0x2c>
/home/zhangzj/secure/optee_gerrit/optee_os/lib/libutee/tee_user_mem.c:380
    10d0:	b150      	cbz	r0, 10e8 <tee_user_mem_realloc+0x20>
/home/zhangzj/secure/optee_gerrit/optee_os/lib/libutee/tee_user_mem.c:380 (discriminator 1)
    10d2:	2810      	cmp	r0, #16
    10d4:	d008      	beq.n	10e8 <tee_user_mem_realloc+0x20>
is_buffer_valid():
/home/zhangzj/secure/optee_gerrit/optee_os/lib/libutee/tee_user_mem.c:150
    10d6:	4b15      	ldr	r3, [pc, #84]	; (112c <tee_user_mem_realloc+0x64>)
    10d8:	447b      	add	r3, pc
    10da:	681b      	ldr	r3, [r3, #0]
    10dc:	b123      	cbz	r3, 10e8 <tee_user_mem_realloc+0x20>
buf_addr():
/home/zhangzj/secure/optee_gerrit/optee_os/lib/libutee/tee_user_mem.c:130
    10de:	f103 0010 	add.w	r0, r3, #16
is_buffer_valid():
/home/zhangzj/secure/optee_gerrit/optee_os/lib/libutee/tee_user_mem.c:151
    10e2:	42a8      	cmp	r0, r5
    10e4:	d1f9      	bne.n	10da <tee_user_mem_realloc+0x12>
    10e6:	e007      	b.n	10f8 <tee_user_mem_realloc+0x30>
tee_user_mem_realloc():
/home/zhangzj/secure/optee_gerrit/optee_os/lib/libutee/tee_user_mem.c:381
    10e8:	4638      	mov	r0, r7
    10ea:	2100      	movs	r1, #0
/home/zhangzj/secure/optee_gerrit/optee_os/lib/libutee/tee_user_mem.c:412
    10ec:	e8bd 40f8 	ldmia.w	sp!, {r3, r4, r5, r6, r7, lr}
/home/zhangzj/secure/optee_gerrit/optee_os/lib/libutee/tee_user_mem.c:381
    10f0:	f7ff bf16 	b.w	f20 <tee_user_mem_alloc>
/home/zhangzj/secure/optee_gerrit/optee_os/lib/libutee/tee_user_mem.c:372
    10f4:	2000      	movs	r0, #0
    10f6:	bdf8      	pop	{r3, r4, r5, r6, r7, pc}
buf_size():
/home/zhangzj/secure/optee_gerrit/optee_os/lib/libutee/tee_user_mem.c:135
    10f8:	f855 6c08 	ldr.w	r6, [r5, #-8]
    10fc:	3e11      	subs	r6, #17
tee_user_mem_realloc():
/home/zhangzj/secure/optee_gerrit/optee_os/lib/libutee/tee_user_mem.c:392
    10fe:	42b7      	cmp	r7, r6
    1100:	d012      	beq.n	1128 <tee_user_mem_realloc+0x60>
/home/zhangzj/secure/optee_gerrit/optee_os/lib/libutee/tee_user_mem.c:402
    1102:	4638      	mov	r0, r7
    1104:	f855 1c04 	ldr.w	r1, [r5, #-4]
    1108:	f7ff ff0a 	bl	f20 <tee_user_mem_alloc>
/home/zhangzj/secure/optee_gerrit/optee_os/lib/libutee/tee_user_mem.c:403
    110c:	4604      	mov	r4, r0
    110e:	b148      	cbz	r0, 1124 <tee_user_mem_realloc+0x5c>
/home/zhangzj/secure/optee_gerrit/optee_os/lib/libutee/tee_user_mem.c:404
    1110:	42be      	cmp	r6, r7
    1112:	4632      	mov	r2, r6
    1114:	4629      	mov	r1, r5
    1116:	bf28      	it	cs
    1118:	463a      	movcs	r2, r7
    111a:	f001 fe3d 	bl	2d98 <memcpy>
/home/zhangzj/secure/optee_gerrit/optee_os/lib/libutee/tee_user_mem.c:407
    111e:	4628      	mov	r0, r5
    1120:	f7ff ff62 	bl	fe8 <tee_user_mem_free>
    1124:	4620      	mov	r0, r4
    1126:	bdf8      	pop	{r3, r4, r5, r6, r7, pc}
/home/zhangzj/secure/optee_gerrit/optee_os/lib/libutee/tee_user_mem.c:412
    1128:	bdf8      	pop	{r3, r4, r5, r6, r7, pc}
    112a:	bf00      	nop
    112c:	00009fb0 	.word	0x00009fb0

00001130 <tee_user_mem_mark_heap>:
tee_user_mem_mark_heap():
/home/zhangzj/secure/optee_gerrit/optee_os/lib/libutee/tee_user_mem.c:471
    1130:	4b02      	ldr	r3, [pc, #8]	; (113c <tee_user_mem_mark_heap+0xc>)
    1132:	2200      	movs	r2, #0
    1134:	447b      	add	r3, pc
    1136:	601a      	str	r2, [r3, #0]
    1138:	4770      	bx	lr
    113a:	bf00      	nop
    113c:	00011f9c 	.word	0x00011f9c

00001140 <tee_user_mem_check_heap>:
tee_user_mem_check_heap():
/home/zhangzj/secure/optee_gerrit/optee_os/lib/libutee/tee_user_mem.c:481
    1140:	b537      	push	{r0, r1, r2, r4, r5, lr}
/home/zhangzj/secure/optee_gerrit/optee_os/lib/libutee/tee_user_mem.c:485
    1142:	4d15      	ldr	r5, [pc, #84]	; (1198 <tee_user_mem_check_heap+0x58>)
    1144:	447d      	add	r5, pc
    1146:	682c      	ldr	r4, [r5, #0]
    1148:	b174      	cbz	r4, 1168 <tee_user_mem_check_heap+0x28>
/home/zhangzj/secure/optee_gerrit/optee_os/lib/libutee/tee_user_mem.c:486
    114a:	4b14      	ldr	r3, [pc, #80]	; (119c <tee_user_mem_check_heap+0x5c>)
    114c:	2201      	movs	r2, #1
    114e:	f44f 71f3 	mov.w	r1, #486	; 0x1e6
    1152:	4813      	ldr	r0, [pc, #76]	; (11a0 <tee_user_mem_check_heap+0x60>)
    1154:	447b      	add	r3, pc
    1156:	4478      	add	r0, pc
    1158:	e9cd 3400 	strd	r3, r4, [sp]
    115c:	303f      	adds	r0, #63	; 0x3f
    115e:	4613      	mov	r3, r2
    1160:	f002 ff6c 	bl	403c <trace_printf>
/home/zhangzj/secure/optee_gerrit/optee_os/lib/libutee/tee_user_mem.c:488
    1164:	682c      	ldr	r4, [r5, #0]
    1166:	e013      	b.n	1190 <tee_user_mem_check_heap+0x50>
is_mem_coherent():
/home/zhangzj/secure/optee_gerrit/optee_os/lib/libutee/tee_user_mem.c:264
    1168:	4b0e      	ldr	r3, [pc, #56]	; (11a4 <tee_user_mem_check_heap+0x64>)
    116a:	447b      	add	r3, pc
    116c:	681d      	ldr	r5, [r3, #0]
    116e:	b17d      	cbz	r5, 1190 <tee_user_mem_check_heap+0x50>
/home/zhangzj/secure/optee_gerrit/optee_os/lib/libutee/tee_user_mem.c:265
    1170:	4628      	mov	r0, r5
    1172:	f7ff fe7f 	bl	e74 <check_elem>
    1176:	b948      	cbnz	r0, 118c <tee_user_mem_check_heap+0x4c>
/home/zhangzj/secure/optee_gerrit/optee_os/lib/libutee/tee_user_mem.c:266
    1178:	480b      	ldr	r0, [pc, #44]	; (11a8 <tee_user_mem_check_heap+0x68>)
    117a:	f44f 7285 	mov.w	r2, #266	; 0x10a
    117e:	490b      	ldr	r1, [pc, #44]	; (11ac <tee_user_mem_check_heap+0x6c>)
    1180:	4478      	add	r0, pc
    1182:	4479      	add	r1, pc
    1184:	f000 f838 	bl	11f8 <_assert_log>
    1188:	f000 f84c 	bl	1224 <_assert_break>
/home/zhangzj/secure/optee_gerrit/optee_os/lib/libutee/tee_user_mem.c:264
    118c:	682d      	ldr	r5, [r5, #0]
    118e:	e7ee      	b.n	116e <tee_user_mem_check_heap+0x2e>
tee_user_mem_check_heap():
/home/zhangzj/secure/optee_gerrit/optee_os/lib/libutee/tee_user_mem.c:495
    1190:	4620      	mov	r0, r4
    1192:	b003      	add	sp, #12
    1194:	bd30      	pop	{r4, r5, pc}
    1196:	bf00      	nop
    1198:	00011f8c 	.word	0x00011f8c
    119c:	00008d94 	.word	0x00008d94
    11a0:	00008c63 	.word	0x00008c63
    11a4:	00009f1e 	.word	0x00009f1e
    11a8:	00008ce0 	.word	0x00008ce0
    11ac:	00008ce0 	.word	0x00008ce0

000011b0 <tee_user_mem_garbage>:
tee_user_mem_status():
/home/zhangzj/secure/optee_gerrit/optee_os/lib/libutee/tee_user_mem.c:511
    11b0:	4b0d      	ldr	r3, [pc, #52]	; (11e8 <tee_user_mem_garbage+0x38>)
tee_user_mem_garbage():
/home/zhangzj/secure/optee_gerrit/optee_os/lib/libutee/tee_user_mem.c:530
    11b2:	b513      	push	{r0, r1, r4, lr}
tee_user_mem_status():
/home/zhangzj/secure/optee_gerrit/optee_os/lib/libutee/tee_user_mem.c:511
    11b4:	447b      	add	r3, pc
    11b6:	681c      	ldr	r4, [r3, #0]
    11b8:	b164      	cbz	r4, 11d4 <tee_user_mem_garbage+0x24>
/home/zhangzj/secure/optee_gerrit/optee_os/lib/libutee/tee_user_mem.c:512
    11ba:	490c      	ldr	r1, [pc, #48]	; (11ec <tee_user_mem_garbage+0x3c>)
    11bc:	9400      	str	r4, [sp, #0]
    11be:	2001      	movs	r0, #1
    11c0:	4b0b      	ldr	r3, [pc, #44]	; (11f0 <tee_user_mem_garbage+0x40>)
    11c2:	f44f 7200 	mov.w	r2, #512	; 0x200
    11c6:	4479      	add	r1, pc
    11c8:	3157      	adds	r1, #87	; 0x57
    11ca:	447b      	add	r3, pc
    11cc:	f7ff fe36 	bl	e3c <print_buf>
/home/zhangzj/secure/optee_gerrit/optee_os/lib/libutee/tee_user_mem.c:511
    11d0:	6824      	ldr	r4, [r4, #0]
    11d2:	e7f1      	b.n	11b8 <tee_user_mem_garbage+0x8>
tee_user_mem_garbage():
/home/zhangzj/secure/optee_gerrit/optee_os/lib/libutee/tee_user_mem.c:535
    11d4:	4b07      	ldr	r3, [pc, #28]	; (11f4 <tee_user_mem_garbage+0x44>)
    11d6:	447b      	add	r3, pc
    11d8:	6818      	ldr	r0, [r3, #0]
    11da:	b118      	cbz	r0, 11e4 <tee_user_mem_garbage+0x34>
/home/zhangzj/secure/optee_gerrit/optee_os/lib/libutee/tee_user_mem.c:536
    11dc:	3010      	adds	r0, #16
    11de:	f7ff ff03 	bl	fe8 <tee_user_mem_free>
    11e2:	e7f7      	b.n	11d4 <tee_user_mem_garbage+0x24>
/home/zhangzj/secure/optee_gerrit/optee_os/lib/libutee/tee_user_mem.c:537
    11e4:	b002      	add	sp, #8
    11e6:	bd10      	pop	{r4, pc}
    11e8:	00009ed4 	.word	0x00009ed4
    11ec:	00008bf3 	.word	0x00008bf3
    11f0:	00008e10 	.word	0x00008e10
    11f4:	00009eb2 	.word	0x00009eb2

000011f8 <_assert_log>:
_assert_log():
/home/zhangzj/secure/optee_gerrit/optee_os/lib/libutee/assert.c:35
    11f8:	b51f      	push	{r0, r1, r2, r3, r4, lr}
/home/zhangzj/secure/optee_gerrit/optee_os/lib/libutee/assert.c:36
    11fa:	4b08      	ldr	r3, [pc, #32]	; (121c <_assert_log+0x24>)
    11fc:	9001      	str	r0, [sp, #4]
    11fe:	4808      	ldr	r0, [pc, #32]	; (1220 <_assert_log+0x28>)
    1200:	9203      	str	r2, [sp, #12]
    1202:	2201      	movs	r2, #1
    1204:	9102      	str	r1, [sp, #8]
    1206:	2124      	movs	r1, #36	; 0x24
    1208:	447b      	add	r3, pc
    120a:	4478      	add	r0, pc
    120c:	9300      	str	r3, [sp, #0]
    120e:	4613      	mov	r3, r2
    1210:	f002 ff14 	bl	403c <trace_printf>
/home/zhangzj/secure/optee_gerrit/optee_os/lib/libutee/assert.c:37
    1214:	b005      	add	sp, #20
    1216:	f85d fb04 	ldr.w	pc, [sp], #4
    121a:	bf00      	nop
    121c:	00008d09 	.word	0x00008d09
    1220:	00008cfb 	.word	0x00008cfb

00001224 <_assert_break>:
_assert_break():
/home/zhangzj/secure/optee_gerrit/optee_os/lib/libutee/assert.c:40
    1224:	b508      	push	{r3, lr}
/home/zhangzj/secure/optee_gerrit/optee_os/lib/libutee/assert.c:41
    1226:	4801      	ldr	r0, [pc, #4]	; (122c <_assert_break+0x8>)
    1228:	f7ff eb0a 	blx	840 <utee_panic>
    122c:	ffff0000 	.word	0xffff0000

00001230 <_TEE_MathAPI_Init>:
_TEE_MathAPI_Init():
/home/zhangzj/secure/optee_gerrit/optee_os/lib/libutee/tee_api_arith.c:78
    1230:	b513      	push	{r0, r1, r4, lr}
/home/zhangzj/secure/optee_gerrit/optee_os/lib/libutee/tee_api_arith.c:79
    1232:	f44f 6200 	mov.w	r2, #2048	; 0x800
    1236:	4808      	ldr	r0, [pc, #32]	; (1258 <_TEE_MathAPI_Init+0x28>)
    1238:	f44f 51d8 	mov.w	r1, #6912	; 0x1b00
/home/zhangzj/secure/optee_gerrit/optee_os/lib/libutee/tee_api_arith.c:78
    123c:	4c07      	ldr	r4, [pc, #28]	; (125c <_TEE_MathAPI_Init+0x2c>)
/home/zhangzj/secure/optee_gerrit/optee_os/lib/libutee/tee_api_arith.c:79
    123e:	4478      	add	r0, pc
    1240:	f005 f87c 	bl	633c <mpa_init_scratch_mem>
/home/zhangzj/secure/optee_gerrit/optee_os/lib/libutee/tee_api_arith.c:81
    1244:	4b06      	ldr	r3, [pc, #24]	; (1260 <_TEE_MathAPI_Init+0x30>)
/home/zhangzj/secure/optee_gerrit/optee_os/lib/libutee/tee_api_arith.c:78
    1246:	447c      	add	r4, pc
/home/zhangzj/secure/optee_gerrit/optee_os/lib/libutee/tee_api_arith.c:81
    1248:	58e3      	ldr	r3, [r4, r3]
    124a:	4618      	mov	r0, r3
    124c:	9301      	str	r3, [sp, #4]
/home/zhangzj/secure/optee_gerrit/optee_os/lib/libutee/tee_api_arith.c:82
    124e:	b002      	add	sp, #8
    1250:	e8bd 4010 	ldmia.w	sp!, {r4, lr}
/home/zhangzj/secure/optee_gerrit/optee_os/lib/libutee/tee_api_arith.c:81
    1254:	f005 bb50 	b.w	68f8 <mpa_set_random_generator>
    1258:	00011e9e 	.word	0x00011e9e
    125c:	00008d96 	.word	0x00008d96
    1260:	00000014 	.word	0x00000014

00001264 <TEE_BigIntInit>:
TEE_BigIntInit():
/home/zhangzj/secure/optee_gerrit/optee_os/lib/libutee/tee_api_arith.c:89
    1264:	f006 bd1a 	b.w	7c9c <mpa_init_static>

00001268 <TEE_BigIntInitFMM>:
TEE_BigIntInitFMM():
/home/zhangzj/secure/optee_gerrit/optee_os/lib/libutee/tee_api_arith.c:99
    1268:	0089      	lsls	r1, r1, #2
/home/zhangzj/secure/optee_gerrit/optee_os/lib/libutee/tee_api_arith.c:100
    126a:	2300      	movs	r3, #0
/home/zhangzj/secure/optee_gerrit/optee_os/lib/libutee/tee_api_arith.c:99
    126c:	3905      	subs	r1, #5
/home/zhangzj/secure/optee_gerrit/optee_os/lib/libutee/tee_api_arith.c:100
    126e:	6043      	str	r3, [r0, #4]
/home/zhangzj/secure/optee_gerrit/optee_os/lib/libutee/tee_api_arith.c:99
    1270:	0889      	lsrs	r1, r1, #2
    1272:	6001      	str	r1, [r0, #0]
/home/zhangzj/secure/optee_gerrit/optee_os/lib/libutee/tee_api_arith.c:100
    1274:	4770      	bx	lr

00001276 <TEE_BigIntInitFMMContext>:
TEE_BigIntInitFMMContext():
/home/zhangzj/secure/optee_gerrit/optee_os/lib/libutee/tee_api_arith.c:108
    1276:	b537      	push	{r0, r1, r2, r4, r5, lr}
    1278:	4604      	mov	r4, r0
    127a:	4615      	mov	r5, r2
/home/zhangzj/secure/optee_gerrit/optee_os/lib/libutee/tee_api_arith.c:112
    127c:	f006 fd2c 	bl	7cd8 <mpa_init_static_fmm_context>
/home/zhangzj/secure/optee_gerrit/optee_os/lib/libutee/tee_api_arith.c:113
    1280:	4b05      	ldr	r3, [pc, #20]	; (1298 <TEE_BigIntInitFMMContext+0x22>)
    1282:	4628      	mov	r0, r5
    1284:	e9d4 1200 	ldrd	r1, r2, [r4]
    1288:	447b      	add	r3, pc
    128a:	9300      	str	r3, [sp, #0]
    128c:	f104 0308 	add.w	r3, r4, #8
    1290:	f003 fc34 	bl	4afc <mpa_compute_fmm_context>
/home/zhangzj/secure/optee_gerrit/optee_os/lib/libutee/tee_api_arith.c:116
    1294:	b003      	add	sp, #12
    1296:	bd30      	pop	{r4, r5, pc}
    1298:	00011e54 	.word	0x00011e54

0000129c <TEE_BigIntFMMSizeInU32>:
TEE_BigIntFMMSizeInU32():
/home/zhangzj/secure/optee_gerrit/optee_os/lib/libutee/tee_api_arith.c:127
    129c:	301f      	adds	r0, #31
    129e:	0940      	lsrs	r0, r0, #5
/home/zhangzj/secure/optee_gerrit/optee_os/lib/libutee/tee_api_arith.c:128
    12a0:	3003      	adds	r0, #3
    12a2:	4770      	bx	lr

000012a4 <TEE_BigIntFMMContextSizeInU32>:
TEE_BigIntFMMContextSizeInU32():
/home/zhangzj/secure/optee_gerrit/optee_os/lib/libutee/tee_api_arith.c:135
    12a4:	301f      	adds	r0, #31
    12a6:	0940      	lsrs	r0, r0, #5
    12a8:	0040      	lsls	r0, r0, #1
/home/zhangzj/secure/optee_gerrit/optee_os/lib/libutee/tee_api_arith.c:136
    12aa:	300b      	adds	r0, #11
    12ac:	4770      	bx	lr

000012ae <TEE_BigIntConvertFromOctetString>:
TEE_BigIntConvertFromOctetString():
/home/zhangzj/secure/optee_gerrit/optee_os/lib/libutee/tee_api_arith.c:149
    12ae:	b508      	push	{r3, lr}
/home/zhangzj/secure/optee_gerrit/optee_os/lib/libutee/tee_api_arith.c:154
    12b0:	0fdb      	lsrs	r3, r3, #31
    12b2:	f007 f8cb 	bl	844c <mpa_set_oct_str>
    12b6:	2800      	cmp	r0, #0
/home/zhangzj/secure/optee_gerrit/optee_os/lib/libutee/tee_api_arith.c:164
    12b8:	4801      	ldr	r0, [pc, #4]	; (12c0 <TEE_BigIntConvertFromOctetString+0x12>)
    12ba:	bf08      	it	eq
    12bc:	2000      	moveq	r0, #0
    12be:	bd08      	pop	{r3, pc}
    12c0:	ffff300f 	.word	0xffff300f

000012c4 <TEE_BigIntConvertToOctetString>:
TEE_BigIntConvertToOctetString():
/home/zhangzj/secure/optee_gerrit/optee_os/lib/libutee/tee_api_arith.c:174
    12c4:	680b      	ldr	r3, [r1, #0]
/home/zhangzj/secure/optee_gerrit/optee_os/lib/libutee/tee_api_arith.c:172
    12c6:	b530      	push	{r4, r5, lr}
    12c8:	b085      	sub	sp, #20
    12ca:	460d      	mov	r5, r1
/home/zhangzj/secure/optee_gerrit/optee_os/lib/libutee/tee_api_arith.c:174
    12cc:	a904      	add	r1, sp, #16
    12ce:	f841 3d04 	str.w	r3, [r1, #-4]!
/home/zhangzj/secure/optee_gerrit/optee_os/lib/libutee/tee_api_arith.c:177
    12d2:	f007 f93f 	bl	8554 <mpa_get_oct_str>
/home/zhangzj/secure/optee_gerrit/optee_os/lib/libutee/tee_api_arith.c:180
    12d6:	4b0e      	ldr	r3, [pc, #56]	; (1310 <TEE_BigIntConvertToOctetString+0x4c>)
    12d8:	2800      	cmp	r0, #0
/home/zhangzj/secure/optee_gerrit/optee_os/lib/libutee/tee_api_arith.c:182
    12da:	9a03      	ldr	r2, [sp, #12]
/home/zhangzj/secure/optee_gerrit/optee_os/lib/libutee/tee_api_arith.c:180
    12dc:	bf0c      	ite	eq
    12de:	2400      	moveq	r4, #0
    12e0:	461c      	movne	r4, r3
/home/zhangzj/secure/optee_gerrit/optee_os/lib/libutee/tee_api_arith.c:182
    12e2:	602a      	str	r2, [r5, #0]
/home/zhangzj/secure/optee_gerrit/optee_os/lib/libutee/tee_api_arith.c:184
    12e4:	b184      	cbz	r4, 1308 <TEE_BigIntConvertToOctetString+0x44>
/home/zhangzj/secure/optee_gerrit/optee_os/lib/libutee/tee_api_arith.c:184 (discriminator 1)
    12e6:	429c      	cmp	r4, r3
    12e8:	d00e      	beq.n	1308 <TEE_BigIntConvertToOctetString+0x44>
/home/zhangzj/secure/optee_gerrit/optee_os/lib/libutee/tee_api_arith.c:186
    12ea:	4b0a      	ldr	r3, [pc, #40]	; (1314 <TEE_BigIntConvertToOctetString+0x50>)
    12ec:	2201      	movs	r2, #1
    12ee:	21ba      	movs	r1, #186	; 0xba
    12f0:	4809      	ldr	r0, [pc, #36]	; (1318 <TEE_BigIntConvertToOctetString+0x54>)
    12f2:	447b      	add	r3, pc
    12f4:	4478      	add	r0, pc
    12f6:	e9cd 3400 	strd	r3, r4, [sp]
    12fa:	3011      	adds	r0, #17
    12fc:	4613      	mov	r3, r2
    12fe:	f002 fe9d 	bl	403c <trace_printf>
    1302:	4620      	mov	r0, r4
    1304:	f007 fa9a 	bl	883c <__TEE_Panic>
/home/zhangzj/secure/optee_gerrit/optee_os/lib/libutee/tee_api_arith.c:189
    1308:	4620      	mov	r0, r4
    130a:	b005      	add	sp, #20
    130c:	bd30      	pop	{r4, r5, pc}
    130e:	bf00      	nop
    1310:	ffff0010 	.word	0xffff0010
    1314:	00008aaf 	.word	0x00008aaf
    1318:	00008c3c 	.word	0x00008c3c

0000131c <TEE_BigIntConvertFromS32>:
TEE_BigIntConvertFromS32():
/home/zhangzj/secure/optee_gerrit/optee_os/lib/libutee/tee_api_arith.c:199
    131c:	f003 bea2 	b.w	5064 <mpa_set_S32>

00001320 <TEE_BigIntConvertToS32>:
TEE_BigIntConvertToS32():
/home/zhangzj/secure/optee_gerrit/optee_os/lib/libutee/tee_api_arith.c:209
    1320:	b508      	push	{r3, lr}
/home/zhangzj/secure/optee_gerrit/optee_os/lib/libutee/tee_api_arith.c:213
    1322:	f003 fec1 	bl	50a8 <mpa_get_S32>
    1326:	2800      	cmp	r0, #0
/home/zhangzj/secure/optee_gerrit/optee_os/lib/libutee/tee_api_arith.c:223
    1328:	4801      	ldr	r0, [pc, #4]	; (1330 <TEE_BigIntConvertToS32+0x10>)
    132a:	bf08      	it	eq
    132c:	2000      	moveq	r0, #0
    132e:	bd08      	pop	{r3, pc}
    1330:	ffff300f 	.word	0xffff300f

00001334 <TEE_BigIntCmp>:
TEE_BigIntCmp():
/home/zhangzj/secure/optee_gerrit/optee_os/lib/libutee/tee_api_arith.c:237
    1334:	f006 bb8a 	b.w	7a4c <mpa_cmp>

00001338 <TEE_BigIntCmpS32>:
TEE_BigIntCmpS32():
/home/zhangzj/secure/optee_gerrit/optee_os/lib/libutee/tee_api_arith.c:247
    1338:	f006 bbc8 	b.w	7acc <mpa_cmp_short>

0000133c <TEE_BigIntShiftRight>:
TEE_BigIntShiftRight():
/home/zhangzj/secure/optee_gerrit/optee_os/lib/libutee/tee_api_arith.c:259
    133c:	f005 bd1c 	b.w	6d78 <mpa_shift_right>

00001340 <TEE_BigIntGetBit>:
TEE_BigIntGetBit():
/home/zhangzj/secure/optee_gerrit/optee_os/lib/libutee/tee_api_arith.c:266
    1340:	b508      	push	{r3, lr}
/home/zhangzj/secure/optee_gerrit/optee_os/lib/libutee/tee_api_arith.c:269
    1342:	f003 f9db 	bl	46fc <mpa_get_bit>
/home/zhangzj/secure/optee_gerrit/optee_os/lib/libutee/tee_api_arith.c:270
    1346:	3000      	adds	r0, #0
    1348:	bf18      	it	ne
    134a:	2001      	movne	r0, #1
    134c:	bd08      	pop	{r3, pc}

0000134e <TEE_BigIntGetBitCount>:
TEE_BigIntGetBitCount():
/home/zhangzj/secure/optee_gerrit/optee_os/lib/libutee/tee_api_arith.c:276
    134e:	b508      	push	{r3, lr}
/home/zhangzj/secure/optee_gerrit/optee_os/lib/libutee/tee_api_arith.c:279
    1350:	f003 f99c 	bl	468c <mpa_highest_bit_index>
/home/zhangzj/secure/optee_gerrit/optee_os/lib/libutee/tee_api_arith.c:280
    1354:	3001      	adds	r0, #1
    1356:	bd08      	pop	{r3, pc}

00001358 <TEE_BigIntAdd>:
TEE_BigIntAdd():
/home/zhangzj/secure/optee_gerrit/optee_os/lib/libutee/tee_api_arith.c:296
    1358:	4b01      	ldr	r3, [pc, #4]	; (1360 <TEE_BigIntAdd+0x8>)
    135a:	447b      	add	r3, pc
    135c:	f005 bfc4 	b.w	72e8 <mpa_add>
    1360:	00011d82 	.word	0x00011d82

00001364 <TEE_BigIntSub>:
TEE_BigIntSub():
/home/zhangzj/secure/optee_gerrit/optee_os/lib/libutee/tee_api_arith.c:309
    1364:	4b01      	ldr	r3, [pc, #4]	; (136c <TEE_BigIntSub+0x8>)
    1366:	447b      	add	r3, pc
    1368:	f006 b89e 	b.w	74a8 <mpa_sub>
    136c:	00011d76 	.word	0x00011d76

00001370 <TEE_BigIntNeg>:
TEE_BigIntNeg():
/home/zhangzj/secure/optee_gerrit/optee_os/lib/libutee/tee_api_arith.c:320
    1370:	f006 b98c 	b.w	768c <mpa_neg>

00001374 <TEE_BigIntMul>:
TEE_BigIntMul():
/home/zhangzj/secure/optee_gerrit/optee_os/lib/libutee/tee_api_arith.c:333
    1374:	4b01      	ldr	r3, [pc, #4]	; (137c <TEE_BigIntMul+0x8>)
    1376:	447b      	add	r3, pc
    1378:	f005 ba10 	b.w	679c <mpa_mul>
    137c:	00011d66 	.word	0x00011d66

00001380 <TEE_BigIntSquare>:
TEE_BigIntSquare():
/home/zhangzj/secure/optee_gerrit/optee_os/lib/libutee/tee_api_arith.c:344
    1380:	4b02      	ldr	r3, [pc, #8]	; (138c <TEE_BigIntSquare+0xc>)
    1382:	460a      	mov	r2, r1
    1384:	447b      	add	r3, pc
    1386:	f005 ba09 	b.w	679c <mpa_mul>
    138a:	bf00      	nop
    138c:	00011d58 	.word	0x00011d58

00001390 <TEE_BigIntDiv>:
TEE_BigIntDiv():
/home/zhangzj/secure/optee_gerrit/optee_os/lib/libutee/tee_api_arith.c:352
    1390:	b5f7      	push	{r0, r1, r2, r4, r5, r6, r7, lr}
    1392:	4607      	mov	r7, r0
    1394:	460e      	mov	r6, r1
TEE_BigIntCmpS32():
/home/zhangzj/secure/optee_gerrit/optee_os/lib/libutee/tee_api_arith.c:247
    1396:	4618      	mov	r0, r3
    1398:	2100      	movs	r1, #0
TEE_BigIntDiv():
/home/zhangzj/secure/optee_gerrit/optee_os/lib/libutee/tee_api_arith.c:352
    139a:	4615      	mov	r5, r2
    139c:	461c      	mov	r4, r3
TEE_BigIntCmpS32():
/home/zhangzj/secure/optee_gerrit/optee_os/lib/libutee/tee_api_arith.c:247
    139e:	f006 fb95 	bl	7acc <mpa_cmp_short>
TEE_BigIntDiv():
/home/zhangzj/secure/optee_gerrit/optee_os/lib/libutee/tee_api_arith.c:358
    13a2:	b918      	cbnz	r0, 13ac <TEE_BigIntDiv+0x1c>
/home/zhangzj/secure/optee_gerrit/optee_os/lib/libutee/tee_api_arith.c:359
    13a4:	4807      	ldr	r0, [pc, #28]	; (13c4 <TEE_BigIntDiv+0x34>)
    13a6:	4478      	add	r0, pc
    13a8:	f000 f982 	bl	16b0 <TEE_BigInt_Panic>
/home/zhangzj/secure/optee_gerrit/optee_os/lib/libutee/tee_api_arith.c:361
    13ac:	4b06      	ldr	r3, [pc, #24]	; (13c8 <TEE_BigIntDiv+0x38>)
    13ae:	4638      	mov	r0, r7
    13b0:	4631      	mov	r1, r6
    13b2:	462a      	mov	r2, r5
    13b4:	447b      	add	r3, pc
    13b6:	9300      	str	r3, [sp, #0]
    13b8:	4623      	mov	r3, r4
    13ba:	f004 fb5f 	bl	5a7c <mpa_div>
/home/zhangzj/secure/optee_gerrit/optee_os/lib/libutee/tee_api_arith.c:362
    13be:	b003      	add	sp, #12
    13c0:	bdf0      	pop	{r4, r5, r6, r7, pc}
    13c2:	bf00      	nop
    13c4:	00008bc5 	.word	0x00008bc5
    13c8:	00011d28 	.word	0x00011d28

000013cc <TEE_BigIntMod>:
TEE_BigIntMod():
/home/zhangzj/secure/optee_gerrit/optee_os/lib/libutee/tee_api_arith.c:373
    13cc:	e92d 41f0 	stmdb	sp!, {r4, r5, r6, r7, r8, lr}
    13d0:	4605      	mov	r5, r0
    13d2:	460f      	mov	r7, r1
TEE_BigIntCmpS32():
/home/zhangzj/secure/optee_gerrit/optee_os/lib/libutee/tee_api_arith.c:247
    13d4:	4610      	mov	r0, r2
    13d6:	2102      	movs	r1, #2
TEE_BigIntMod():
/home/zhangzj/secure/optee_gerrit/optee_os/lib/libutee/tee_api_arith.c:373
    13d8:	4614      	mov	r4, r2
TEE_BigIntCmpS32():
/home/zhangzj/secure/optee_gerrit/optee_os/lib/libutee/tee_api_arith.c:247
    13da:	f006 fb77 	bl	7acc <mpa_cmp_short>
TEE_BigIntMod():
/home/zhangzj/secure/optee_gerrit/optee_os/lib/libutee/tee_api_arith.c:378
    13de:	2800      	cmp	r0, #0
    13e0:	da03      	bge.n	13ea <TEE_BigIntMod+0x1e>
/home/zhangzj/secure/optee_gerrit/optee_os/lib/libutee/tee_api_arith.c:379
    13e2:	480e      	ldr	r0, [pc, #56]	; (141c <TEE_BigIntMod+0x50>)
    13e4:	4478      	add	r0, pc
    13e6:	f000 f963 	bl	16b0 <TEE_BigInt_Panic>
/home/zhangzj/secure/optee_gerrit/optee_os/lib/libutee/tee_api_arith.c:381
    13ea:	4e0d      	ldr	r6, [pc, #52]	; (1420 <TEE_BigIntMod+0x54>)
    13ec:	4628      	mov	r0, r5
    13ee:	4639      	mov	r1, r7
    13f0:	4622      	mov	r2, r4
    13f2:	447e      	add	r6, pc
    13f4:	4633      	mov	r3, r6
    13f6:	f007 f92d 	bl	8654 <mpa_mod>
/home/zhangzj/secure/optee_gerrit/optee_os/lib/libutee/tee_api_arith.c:383
    13fa:	4628      	mov	r0, r5
    13fc:	2100      	movs	r1, #0
    13fe:	f006 fb65 	bl	7acc <mpa_cmp_short>
    1402:	2800      	cmp	r0, #0
    1404:	da07      	bge.n	1416 <TEE_BigIntMod+0x4a>
/home/zhangzj/secure/optee_gerrit/optee_os/lib/libutee/tee_api_arith.c:384
    1406:	4628      	mov	r0, r5
    1408:	4629      	mov	r1, r5
    140a:	4622      	mov	r2, r4
    140c:	4633      	mov	r3, r6
/home/zhangzj/secure/optee_gerrit/optee_os/lib/libutee/tee_api_arith.c:385
    140e:	e8bd 41f0 	ldmia.w	sp!, {r4, r5, r6, r7, r8, lr}
/home/zhangzj/secure/optee_gerrit/optee_os/lib/libutee/tee_api_arith.c:384
    1412:	f005 bf69 	b.w	72e8 <mpa_add>
    1416:	e8bd 81f0 	ldmia.w	sp!, {r4, r5, r6, r7, r8, pc}
    141a:	bf00      	nop
    141c:	00008b97 	.word	0x00008b97
    1420:	00011cea 	.word	0x00011cea

00001424 <TEE_BigIntAddMod>:
TEE_BigIntAddMod():
/home/zhangzj/secure/optee_gerrit/optee_os/lib/libutee/tee_api_arith.c:392
    1424:	e92d 41f3 	stmdb	sp!, {r0, r1, r4, r5, r6, r7, r8, lr}
    1428:	4605      	mov	r5, r0
    142a:	4688      	mov	r8, r1
TEE_BigIntCmpS32():
/home/zhangzj/secure/optee_gerrit/optee_os/lib/libutee/tee_api_arith.c:247
    142c:	4618      	mov	r0, r3
    142e:	2102      	movs	r1, #2
TEE_BigIntAddMod():
/home/zhangzj/secure/optee_gerrit/optee_os/lib/libutee/tee_api_arith.c:392
    1430:	4617      	mov	r7, r2
    1432:	461c      	mov	r4, r3
TEE_BigIntCmpS32():
/home/zhangzj/secure/optee_gerrit/optee_os/lib/libutee/tee_api_arith.c:247
    1434:	f006 fb4a 	bl	7acc <mpa_cmp_short>
TEE_BigIntAddMod():
/home/zhangzj/secure/optee_gerrit/optee_os/lib/libutee/tee_api_arith.c:398
    1438:	2800      	cmp	r0, #0
    143a:	da03      	bge.n	1444 <TEE_BigIntAddMod+0x20>
/home/zhangzj/secure/optee_gerrit/optee_os/lib/libutee/tee_api_arith.c:399
    143c:	480f      	ldr	r0, [pc, #60]	; (147c <TEE_BigIntAddMod+0x58>)
    143e:	4478      	add	r0, pc
    1440:	f000 f936 	bl	16b0 <TEE_BigInt_Panic>
/home/zhangzj/secure/optee_gerrit/optee_os/lib/libutee/tee_api_arith.c:401
    1444:	4e0e      	ldr	r6, [pc, #56]	; (1480 <TEE_BigIntAddMod+0x5c>)
    1446:	4628      	mov	r0, r5
    1448:	4641      	mov	r1, r8
    144a:	463a      	mov	r2, r7
    144c:	4623      	mov	r3, r4
    144e:	447e      	add	r6, pc
    1450:	9600      	str	r6, [sp, #0]
    1452:	f007 f913 	bl	867c <mpa_add_mod>
/home/zhangzj/secure/optee_gerrit/optee_os/lib/libutee/tee_api_arith.c:402
    1456:	4628      	mov	r0, r5
    1458:	2100      	movs	r1, #0
    145a:	f006 fb37 	bl	7acc <mpa_cmp_short>
    145e:	2800      	cmp	r0, #0
    1460:	da08      	bge.n	1474 <TEE_BigIntAddMod+0x50>
/home/zhangzj/secure/optee_gerrit/optee_os/lib/libutee/tee_api_arith.c:403
    1462:	4628      	mov	r0, r5
    1464:	4629      	mov	r1, r5
    1466:	4622      	mov	r2, r4
    1468:	4633      	mov	r3, r6
/home/zhangzj/secure/optee_gerrit/optee_os/lib/libutee/tee_api_arith.c:404
    146a:	b002      	add	sp, #8
    146c:	e8bd 41f0 	ldmia.w	sp!, {r4, r5, r6, r7, r8, lr}
/home/zhangzj/secure/optee_gerrit/optee_os/lib/libutee/tee_api_arith.c:403
    1470:	f005 bf3a 	b.w	72e8 <mpa_add>
/home/zhangzj/secure/optee_gerrit/optee_os/lib/libutee/tee_api_arith.c:404
    1474:	b002      	add	sp, #8
    1476:	e8bd 81f0 	ldmia.w	sp!, {r4, r5, r6, r7, r8, pc}
    147a:	bf00      	nop
    147c:	00008b3d 	.word	0x00008b3d
    1480:	00011c8e 	.word	0x00011c8e

00001484 <TEE_BigIntSubMod>:
TEE_BigIntSubMod():
/home/zhangzj/secure/optee_gerrit/optee_os/lib/libutee/tee_api_arith.c:411
    1484:	e92d 41f3 	stmdb	sp!, {r0, r1, r4, r5, r6, r7, r8, lr}
    1488:	4605      	mov	r5, r0
    148a:	4688      	mov	r8, r1
TEE_BigIntCmpS32():
/home/zhangzj/secure/optee_gerrit/optee_os/lib/libutee/tee_api_arith.c:247
    148c:	4618      	mov	r0, r3
    148e:	2102      	movs	r1, #2
TEE_BigIntSubMod():
/home/zhangzj/secure/optee_gerrit/optee_os/lib/libutee/tee_api_arith.c:411
    1490:	4617      	mov	r7, r2
    1492:	461c      	mov	r4, r3
TEE_BigIntCmpS32():
/home/zhangzj/secure/optee_gerrit/optee_os/lib/libutee/tee_api_arith.c:247
    1494:	f006 fb1a 	bl	7acc <mpa_cmp_short>
TEE_BigIntSubMod():
/home/zhangzj/secure/optee_gerrit/optee_os/lib/libutee/tee_api_arith.c:417
    1498:	2800      	cmp	r0, #0
    149a:	da03      	bge.n	14a4 <TEE_BigIntSubMod+0x20>
/home/zhangzj/secure/optee_gerrit/optee_os/lib/libutee/tee_api_arith.c:418
    149c:	480f      	ldr	r0, [pc, #60]	; (14dc <TEE_BigIntSubMod+0x58>)
    149e:	4478      	add	r0, pc
    14a0:	f000 f906 	bl	16b0 <TEE_BigInt_Panic>
/home/zhangzj/secure/optee_gerrit/optee_os/lib/libutee/tee_api_arith.c:420
    14a4:	4e0e      	ldr	r6, [pc, #56]	; (14e0 <TEE_BigIntSubMod+0x5c>)
    14a6:	4628      	mov	r0, r5
    14a8:	4641      	mov	r1, r8
    14aa:	463a      	mov	r2, r7
    14ac:	4623      	mov	r3, r4
    14ae:	447e      	add	r6, pc
    14b0:	9600      	str	r6, [sp, #0]
    14b2:	f007 f909 	bl	86c8 <mpa_sub_mod>
/home/zhangzj/secure/optee_gerrit/optee_os/lib/libutee/tee_api_arith.c:421
    14b6:	4628      	mov	r0, r5
    14b8:	2100      	movs	r1, #0
    14ba:	f006 fb07 	bl	7acc <mpa_cmp_short>
    14be:	2800      	cmp	r0, #0
    14c0:	da08      	bge.n	14d4 <TEE_BigIntSubMod+0x50>
/home/zhangzj/secure/optee_gerrit/optee_os/lib/libutee/tee_api_arith.c:422
    14c2:	4628      	mov	r0, r5
    14c4:	4629      	mov	r1, r5
    14c6:	4622      	mov	r2, r4
    14c8:	4633      	mov	r3, r6
/home/zhangzj/secure/optee_gerrit/optee_os/lib/libutee/tee_api_arith.c:423
    14ca:	b002      	add	sp, #8
    14cc:	e8bd 41f0 	ldmia.w	sp!, {r4, r5, r6, r7, r8, lr}
/home/zhangzj/secure/optee_gerrit/optee_os/lib/libutee/tee_api_arith.c:422
    14d0:	f005 bf0a 	b.w	72e8 <mpa_add>
/home/zhangzj/secure/optee_gerrit/optee_os/lib/libutee/tee_api_arith.c:423
    14d4:	b002      	add	sp, #8
    14d6:	e8bd 81f0 	ldmia.w	sp!, {r4, r5, r6, r7, r8, pc}
    14da:	bf00      	nop
    14dc:	00008add 	.word	0x00008add
    14e0:	00011c2e 	.word	0x00011c2e

000014e4 <TEE_BigIntMulMod>:
TEE_BigIntMulMod():
/home/zhangzj/secure/optee_gerrit/optee_os/lib/libutee/tee_api_arith.c:430
    14e4:	e92d 43f0 	stmdb	sp!, {r4, r5, r6, r7, r8, r9, lr}
    14e8:	4607      	mov	r7, r0
    14ea:	b085      	sub	sp, #20
    14ec:	4689      	mov	r9, r1
TEE_BigIntCmpS32():
/home/zhangzj/secure/optee_gerrit/optee_os/lib/libutee/tee_api_arith.c:247
    14ee:	4618      	mov	r0, r3
    14f0:	2102      	movs	r1, #2
TEE_BigIntMulMod():
/home/zhangzj/secure/optee_gerrit/optee_os/lib/libutee/tee_api_arith.c:430
    14f2:	4690      	mov	r8, r2
    14f4:	461d      	mov	r5, r3
TEE_BigIntCmpS32():
/home/zhangzj/secure/optee_gerrit/optee_os/lib/libutee/tee_api_arith.c:247
    14f6:	f006 fae9 	bl	7acc <mpa_cmp_short>
TEE_BigIntMulMod():
/home/zhangzj/secure/optee_gerrit/optee_os/lib/libutee/tee_api_arith.c:437
    14fa:	2800      	cmp	r0, #0
    14fc:	da03      	bge.n	1506 <TEE_BigIntMulMod+0x22>
/home/zhangzj/secure/optee_gerrit/optee_os/lib/libutee/tee_api_arith.c:438
    14fe:	4815      	ldr	r0, [pc, #84]	; (1554 <TEE_BigIntMulMod+0x70>)
    1500:	4478      	add	r0, pc
    1502:	f000 f8d5 	bl	16b0 <TEE_BigInt_Panic>
/home/zhangzj/secure/optee_gerrit/optee_os/lib/libutee/tee_api_arith.c:448
    1506:	4c14      	ldr	r4, [pc, #80]	; (1558 <TEE_BigIntMulMod+0x74>)
    1508:	ae03      	add	r6, sp, #12
    150a:	4630      	mov	r0, r6
    150c:	447c      	add	r4, pc
    150e:	4621      	mov	r1, r4
    1510:	f004 ffb4 	bl	647c <mpa_alloc_static_temp_var>
/home/zhangzj/secure/optee_gerrit/optee_os/lib/libutee/tee_api_arith.c:449
    1514:	9803      	ldr	r0, [sp, #12]
    1516:	4649      	mov	r1, r9
    1518:	4642      	mov	r2, r8
    151a:	462b      	mov	r3, r5
    151c:	9400      	str	r4, [sp, #0]
    151e:	f007 f8f9 	bl	8714 <mpa_mul_mod>
/home/zhangzj/secure/optee_gerrit/optee_os/lib/libutee/tee_api_arith.c:450
    1522:	9803      	ldr	r0, [sp, #12]
    1524:	2100      	movs	r1, #0
    1526:	f006 fad1 	bl	7acc <mpa_cmp_short>
    152a:	2800      	cmp	r0, #0
    152c:	da05      	bge.n	153a <TEE_BigIntMulMod+0x56>
/home/zhangzj/secure/optee_gerrit/optee_os/lib/libutee/tee_api_arith.c:451
    152e:	9803      	ldr	r0, [sp, #12]
    1530:	462a      	mov	r2, r5
    1532:	4623      	mov	r3, r4
    1534:	4601      	mov	r1, r0
    1536:	f005 fed7 	bl	72e8 <mpa_add>
/home/zhangzj/secure/optee_gerrit/optee_os/lib/libutee/tee_api_arith.c:452
    153a:	4638      	mov	r0, r7
    153c:	9903      	ldr	r1, [sp, #12]
    153e:	f003 f86b 	bl	4618 <mpa_copy>
/home/zhangzj/secure/optee_gerrit/optee_os/lib/libutee/tee_api_arith.c:453
    1542:	4906      	ldr	r1, [pc, #24]	; (155c <TEE_BigIntMulMod+0x78>)
    1544:	4630      	mov	r0, r6
    1546:	4479      	add	r1, pc
    1548:	f004 ffaa 	bl	64a0 <mpa_free_static_temp_var>
/home/zhangzj/secure/optee_gerrit/optee_os/lib/libutee/tee_api_arith.c:454
    154c:	b005      	add	sp, #20
    154e:	e8bd 83f0 	ldmia.w	sp!, {r4, r5, r6, r7, r8, r9, pc}
    1552:	bf00      	nop
    1554:	00008a7b 	.word	0x00008a7b
    1558:	00011bd0 	.word	0x00011bd0
    155c:	00011b96 	.word	0x00011b96

00001560 <TEE_BigIntSquareMod>:
TEE_BigIntSquareMod():
/home/zhangzj/secure/optee_gerrit/optee_os/lib/libutee/tee_api_arith.c:461
    1560:	4613      	mov	r3, r2
/home/zhangzj/secure/optee_gerrit/optee_os/lib/libutee/tee_api_arith.c:462
    1562:	460a      	mov	r2, r1
    1564:	f7ff bfbe 	b.w	14e4 <TEE_BigIntMulMod>

00001568 <TEE_BigIntInvMod>:
TEE_BigIntInvMod():
/home/zhangzj/secure/optee_gerrit/optee_os/lib/libutee/tee_api_arith.c:470
    1568:	b570      	push	{r4, r5, r6, lr}
    156a:	4606      	mov	r6, r0
    156c:	460d      	mov	r5, r1
TEE_BigIntCmpS32():
/home/zhangzj/secure/optee_gerrit/optee_os/lib/libutee/tee_api_arith.c:247
    156e:	4610      	mov	r0, r2
    1570:	2102      	movs	r1, #2
TEE_BigIntInvMod():
/home/zhangzj/secure/optee_gerrit/optee_os/lib/libutee/tee_api_arith.c:470
    1572:	4614      	mov	r4, r2
TEE_BigIntCmpS32():
/home/zhangzj/secure/optee_gerrit/optee_os/lib/libutee/tee_api_arith.c:247
    1574:	f006 faaa 	bl	7acc <mpa_cmp_short>
TEE_BigIntInvMod():
/home/zhangzj/secure/optee_gerrit/optee_os/lib/libutee/tee_api_arith.c:475
    1578:	2800      	cmp	r0, #0
    157a:	da03      	bge.n	1584 <TEE_BigIntInvMod+0x1c>
/home/zhangzj/secure/optee_gerrit/optee_os/lib/libutee/tee_api_arith.c:476
    157c:	4809      	ldr	r0, [pc, #36]	; (15a4 <TEE_BigIntInvMod+0x3c>)
    157e:	4478      	add	r0, pc
    1580:	f000 f896 	bl	16b0 <TEE_BigInt_Panic>
TEE_BigIntCmpS32():
/home/zhangzj/secure/optee_gerrit/optee_os/lib/libutee/tee_api_arith.c:247
    1584:	4628      	mov	r0, r5
    1586:	2100      	movs	r1, #0
    1588:	f006 faa0 	bl	7acc <mpa_cmp_short>
TEE_BigIntInvMod():
/home/zhangzj/secure/optee_gerrit/optee_os/lib/libutee/tee_api_arith.c:475
    158c:	2800      	cmp	r0, #0
    158e:	d0f5      	beq.n	157c <TEE_BigIntInvMod+0x14>
/home/zhangzj/secure/optee_gerrit/optee_os/lib/libutee/tee_api_arith.c:478
    1590:	4b05      	ldr	r3, [pc, #20]	; (15a8 <TEE_BigIntInvMod+0x40>)
    1592:	4630      	mov	r0, r6
    1594:	4629      	mov	r1, r5
    1596:	4622      	mov	r2, r4
/home/zhangzj/secure/optee_gerrit/optee_os/lib/libutee/tee_api_arith.c:479
    1598:	e8bd 4070 	ldmia.w	sp!, {r4, r5, r6, lr}
/home/zhangzj/secure/optee_gerrit/optee_os/lib/libutee/tee_api_arith.c:478
    159c:	447b      	add	r3, pc
    159e:	f007 b8df 	b.w	8760 <mpa_inv_mod>
    15a2:	bf00      	nop
    15a4:	00008a12 	.word	0x00008a12
    15a8:	00011b40 	.word	0x00011b40

000015ac <TEE_BigIntRelativePrime>:
TEE_BigIntRelativePrime():
/home/zhangzj/secure/optee_gerrit/optee_os/lib/libutee/tee_api_arith.c:489
    15ac:	b5f7      	push	{r0, r1, r2, r4, r5, r6, r7, lr}
/home/zhangzj/secure/optee_gerrit/optee_os/lib/libutee/tee_api_arith.c:495
    15ae:	ad01      	add	r5, sp, #4
    15b0:	4c0d      	ldr	r4, [pc, #52]	; (15e8 <TEE_BigIntRelativePrime+0x3c>)
/home/zhangzj/secure/optee_gerrit/optee_os/lib/libutee/tee_api_arith.c:489
    15b2:	4607      	mov	r7, r0
    15b4:	460e      	mov	r6, r1
/home/zhangzj/secure/optee_gerrit/optee_os/lib/libutee/tee_api_arith.c:495
    15b6:	4628      	mov	r0, r5
    15b8:	447c      	add	r4, pc
    15ba:	4621      	mov	r1, r4
    15bc:	f004 ff5e 	bl	647c <mpa_alloc_static_temp_var>
/home/zhangzj/secure/optee_gerrit/optee_os/lib/libutee/tee_api_arith.c:497
    15c0:	4632      	mov	r2, r6
    15c2:	4623      	mov	r3, r4
    15c4:	9801      	ldr	r0, [sp, #4]
    15c6:	4639      	mov	r1, r7
    15c8:	f004 fd4e 	bl	6068 <mpa_gcd>
/home/zhangzj/secure/optee_gerrit/optee_os/lib/libutee/tee_api_arith.c:498
    15cc:	9801      	ldr	r0, [sp, #4]
    15ce:	2101      	movs	r1, #1
    15d0:	f006 fa7c 	bl	7acc <mpa_cmp_short>
    15d4:	4606      	mov	r6, r0
/home/zhangzj/secure/optee_gerrit/optee_os/lib/libutee/tee_api_arith.c:500
    15d6:	4621      	mov	r1, r4
    15d8:	4628      	mov	r0, r5
    15da:	f004 ff61 	bl	64a0 <mpa_free_static_temp_var>
/home/zhangzj/secure/optee_gerrit/optee_os/lib/libutee/tee_api_arith.c:503
    15de:	fab6 f086 	clz	r0, r6
    15e2:	0940      	lsrs	r0, r0, #5
    15e4:	b003      	add	sp, #12
    15e6:	bdf0      	pop	{r4, r5, r6, r7, pc}
    15e8:	00011b24 	.word	0x00011b24

000015ec <TEE_BigIntComputeExtendedGcd>:
TEE_BigIntComputeExtendedGcd():
/home/zhangzj/secure/optee_gerrit/optee_os/lib/libutee/tee_api_arith.c:511
    15ec:	b513      	push	{r0, r1, r4, lr}
/home/zhangzj/secure/optee_gerrit/optee_os/lib/libutee/tee_api_arith.c:518
    15ee:	9c04      	ldr	r4, [sp, #16]
    15f0:	9400      	str	r4, [sp, #0]
    15f2:	4c03      	ldr	r4, [pc, #12]	; (1600 <TEE_BigIntComputeExtendedGcd+0x14>)
    15f4:	447c      	add	r4, pc
    15f6:	9401      	str	r4, [sp, #4]
    15f8:	f004 fda2 	bl	6140 <mpa_extended_gcd>
/home/zhangzj/secure/optee_gerrit/optee_os/lib/libutee/tee_api_arith.c:519
    15fc:	b002      	add	sp, #8
    15fe:	bd10      	pop	{r4, pc}
    1600:	00011ae8 	.word	0x00011ae8

00001604 <TEE_BigIntIsProbablePrime>:
TEE_BigIntIsProbablePrime():
/home/zhangzj/secure/optee_gerrit/optee_os/lib/libutee/tee_api_arith.c:529
    1604:	294f      	cmp	r1, #79	; 0x4f
    1606:	d905      	bls.n	1614 <TEE_BigIntIsProbablePrime+0x10>
/home/zhangzj/secure/optee_gerrit/optee_os/lib/libutee/tee_api_arith.c:532
    1608:	f5b1 7f80 	cmp.w	r1, #256	; 0x100
/home/zhangzj/secure/optee_gerrit/optee_os/lib/libutee/tee_api_arith.c:533
    160c:	bf88      	it	hi
    160e:	f44f 7180 	movhi.w	r1, #256	; 0x100
    1612:	e000      	b.n	1616 <TEE_BigIntIsProbablePrime+0x12>
/home/zhangzj/secure/optee_gerrit/optee_os/lib/libutee/tee_api_arith.c:530
    1614:	2150      	movs	r1, #80	; 0x50
/home/zhangzj/secure/optee_gerrit/optee_os/lib/libutee/tee_api_arith.c:535
    1616:	4a02      	ldr	r2, [pc, #8]	; (1620 <TEE_BigIntIsProbablePrime+0x1c>)
    1618:	447a      	add	r2, pc
    161a:	f003 bb21 	b.w	4c60 <mpa_is_prob_prime>
    161e:	bf00      	nop
    1620:	00011ac4 	.word	0x00011ac4

00001624 <TEE_BigIntConvertToFMM>:
TEE_BigIntConvertToFMM():
/home/zhangzj/secure/optee_gerrit/optee_os/lib/libutee/tee_api_arith.c:549
    1624:	b513      	push	{r0, r1, r4, lr}
    1626:	4614      	mov	r4, r2
/home/zhangzj/secure/optee_gerrit/optee_os/lib/libutee/tee_api_arith.c:556
    1628:	689a      	ldr	r2, [r3, #8]
    162a:	9200      	str	r2, [sp, #0]
    162c:	4a04      	ldr	r2, [pc, #16]	; (1640 <TEE_BigIntConvertToFMM+0x1c>)
    162e:	447a      	add	r2, pc
    1630:	9201      	str	r2, [sp, #4]
    1632:	685a      	ldr	r2, [r3, #4]
    1634:	4623      	mov	r3, r4
    1636:	f003 faed 	bl	4c14 <mpa_montgomery_mul>
/home/zhangzj/secure/optee_gerrit/optee_os/lib/libutee/tee_api_arith.c:558
    163a:	b002      	add	sp, #8
    163c:	bd10      	pop	{r4, pc}
    163e:	bf00      	nop
    1640:	00011aae 	.word	0x00011aae

00001644 <TEE_BigIntConvertFromFMM>:
TEE_BigIntConvertFromFMM():
/home/zhangzj/secure/optee_gerrit/optee_os/lib/libutee/tee_api_arith.c:567
    1644:	e92d 47ff 	stmdb	sp!, {r0, r1, r2, r3, r4, r5, r6, r7, r8, r9, sl, lr}
/home/zhangzj/secure/optee_gerrit/optee_os/lib/libutee/tee_api_arith.c:579
    1648:	ad03      	add	r5, sp, #12
    164a:	4c11      	ldr	r4, [pc, #68]	; (1690 <TEE_BigIntConvertFromFMM+0x4c>)
/home/zhangzj/secure/optee_gerrit/optee_os/lib/libutee/tee_api_arith.c:567
    164c:	469a      	mov	sl, r3
    164e:	4606      	mov	r6, r0
    1650:	4688      	mov	r8, r1
/home/zhangzj/secure/optee_gerrit/optee_os/lib/libutee/tee_api_arith.c:579
    1652:	4628      	mov	r0, r5
/home/zhangzj/secure/optee_gerrit/optee_os/lib/libutee/tee_api_arith.c:567
    1654:	4617      	mov	r7, r2
/home/zhangzj/secure/optee_gerrit/optee_os/lib/libutee/tee_api_arith.c:579
    1656:	447c      	add	r4, pc
    1658:	4621      	mov	r1, r4
    165a:	f004 ff0f 	bl	647c <mpa_alloc_static_temp_var>
/home/zhangzj/secure/optee_gerrit/optee_os/lib/libutee/tee_api_arith.c:582
    165e:	f8dd 900c 	ldr.w	r9, [sp, #12]
    1662:	f003 f8a7 	bl	47b4 <mpa_constant_one>
    1666:	f8da 3008 	ldr.w	r3, [sl, #8]
    166a:	4642      	mov	r2, r8
    166c:	4601      	mov	r1, r0
    166e:	4648      	mov	r0, r9
    1670:	e9cd 3400 	strd	r3, r4, [sp]
    1674:	463b      	mov	r3, r7
    1676:	f003 facd 	bl	4c14 <mpa_montgomery_mul>
/home/zhangzj/secure/optee_gerrit/optee_os/lib/libutee/tee_api_arith.c:585
    167a:	4630      	mov	r0, r6
    167c:	9903      	ldr	r1, [sp, #12]
    167e:	f002 ffcb 	bl	4618 <mpa_copy>
/home/zhangzj/secure/optee_gerrit/optee_os/lib/libutee/tee_api_arith.c:586
    1682:	4628      	mov	r0, r5
    1684:	4621      	mov	r1, r4
    1686:	f004 ff0b 	bl	64a0 <mpa_free_static_temp_var>
/home/zhangzj/secure/optee_gerrit/optee_os/lib/libutee/tee_api_arith.c:587
    168a:	b004      	add	sp, #16
    168c:	e8bd 87f0 	ldmia.w	sp!, {r4, r5, r6, r7, r8, r9, sl, pc}
    1690:	00011a86 	.word	0x00011a86

00001694 <TEE_BigIntComputeFMM>:
TEE_BigIntComputeFMM():
/home/zhangzj/secure/optee_gerrit/optee_os/lib/libutee/tee_api_arith.c:597
    1694:	b513      	push	{r0, r1, r4, lr}
/home/zhangzj/secure/optee_gerrit/optee_os/lib/libutee/tee_api_arith.c:604
    1696:	9c04      	ldr	r4, [sp, #16]
    1698:	68a4      	ldr	r4, [r4, #8]
    169a:	9400      	str	r4, [sp, #0]
    169c:	4c03      	ldr	r4, [pc, #12]	; (16ac <TEE_BigIntComputeFMM+0x18>)
    169e:	447c      	add	r4, pc
    16a0:	9401      	str	r4, [sp, #4]
    16a2:	f003 fab7 	bl	4c14 <mpa_montgomery_mul>
/home/zhangzj/secure/optee_gerrit/optee_os/lib/libutee/tee_api_arith.c:606
    16a6:	b002      	add	sp, #8
    16a8:	bd10      	pop	{r4, pc}
    16aa:	bf00      	nop
    16ac:	00011a3e 	.word	0x00011a3e

000016b0 <TEE_BigInt_Panic>:
TEE_BigInt_Panic():
/home/zhangzj/secure/optee_gerrit/optee_os/lib/libutee/tee_api_arith.c:63
    16b0:	b507      	push	{r0, r1, r2, lr}
    16b2:	4601      	mov	r1, r0
/home/zhangzj/secure/optee_gerrit/optee_os/lib/libutee/tee_api_arith.c:64
    16b4:	480a      	ldr	r0, [pc, #40]	; (16e0 <TEE_BigInt_Panic+0x30>)
/home/zhangzj/secure/optee_gerrit/optee_os/lib/libutee/tee_api_arith.c:65
    16b6:	4c09      	ldr	r4, [pc, #36]	; (16dc <TEE_BigInt_Panic+0x2c>)
/home/zhangzj/secure/optee_gerrit/optee_os/lib/libutee/tee_api_arith.c:64
    16b8:	4478      	add	r0, pc
    16ba:	f000 f82f 	bl	171c <printf>
/home/zhangzj/secure/optee_gerrit/optee_os/lib/libutee/tee_api_arith.c:65
    16be:	4b09      	ldr	r3, [pc, #36]	; (16e4 <TEE_BigInt_Panic+0x34>)
    16c0:	2201      	movs	r2, #1
    16c2:	9401      	str	r4, [sp, #4]
    16c4:	4808      	ldr	r0, [pc, #32]	; (16e8 <TEE_BigInt_Panic+0x38>)
    16c6:	2141      	movs	r1, #65	; 0x41
    16c8:	447b      	add	r3, pc
    16ca:	4478      	add	r0, pc
    16cc:	9300      	str	r3, [sp, #0]
    16ce:	4613      	mov	r3, r2
    16d0:	f002 fcb4 	bl	403c <trace_printf>
    16d4:	4620      	mov	r0, r4
    16d6:	f007 f8b1 	bl	883c <__TEE_Panic>
/home/zhangzj/secure/optee_gerrit/optee_os/lib/libutee/tee_api_arith.c:67 (discriminator 1)
    16da:	e7fe      	b.n	16da <TEE_BigInt_Panic+0x2a>
    16dc:	00b16127 	.word	0x00b16127
    16e0:	000088a8 	.word	0x000088a8
    16e4:	000086d9 	.word	0x000086d9
    16e8:	00008866 	.word	0x00008866

000016ec <trace_ext_puts>:
trace_ext_puts():
/home/zhangzj/secure/optee_gerrit/optee_os/lib/libutee/trace_ext.c:39
    16ec:	b510      	push	{r4, lr}
    16ee:	4604      	mov	r4, r0
/home/zhangzj/secure/optee_gerrit/optee_os/lib/libutee/trace_ext.c:40
    16f0:	f001 fcc2 	bl	3078 <strlen>
    16f4:	4601      	mov	r1, r0
    16f6:	4620      	mov	r0, r4
/home/zhangzj/secure/optee_gerrit/optee_os/lib/libutee/trace_ext.c:41
    16f8:	e8bd 4010 	ldmia.w	sp!, {r4, lr}
/home/zhangzj/secure/optee_gerrit/optee_os/lib/libutee/trace_ext.c:40
    16fc:	f007 b8cc 	b.w	8898 <__utee_log_from_thumb>

00001700 <trace_ext_get_thread_id>:
trace_ext_get_thread_id():
/home/zhangzj/secure/optee_gerrit/optee_os/lib/libutee/trace_ext.c:46
    1700:	f04f 30ff 	mov.w	r0, #4294967295	; 0xffffffff
    1704:	4770      	bx	lr

00001706 <puts>:
puts():
/home/zhangzj/secure/optee_gerrit/optee_os/lib/libutee/trace_ext.c:93
    1706:	b510      	push	{r4, lr}
    1708:	4604      	mov	r4, r0
/home/zhangzj/secure/optee_gerrit/optee_os/lib/libutee/trace_ext.c:94
    170a:	f002 fc5b 	bl	3fc4 <trace_get_level>
    170e:	2800      	cmp	r0, #0
    1710:	dd02      	ble.n	1718 <puts+0x12>
/home/zhangzj/secure/optee_gerrit/optee_os/lib/libutee/trace_ext.c:95
    1712:	4620      	mov	r0, r4
    1714:	f7ff ffea 	bl	16ec <trace_ext_puts>
/home/zhangzj/secure/optee_gerrit/optee_os/lib/libutee/trace_ext.c:97
    1718:	2001      	movs	r0, #1
    171a:	bd10      	pop	{r4, pc}

0000171c <printf>:
printf():
/home/zhangzj/secure/optee_gerrit/optee_os/lib/libutee/trace_ext.c:56
    171c:	b40f      	push	{r0, r1, r2, r3}
    171e:	b570      	push	{r4, r5, r6, lr}
    1720:	b0c2      	sub	sp, #264	; 0x108
/home/zhangzj/secure/optee_gerrit/optee_os/lib/libutee/trace_ext.c:64
    1722:	f002 fc4f 	bl	3fc4 <trace_get_level>
    1726:	2800      	cmp	r0, #0
    1728:	dd2c      	ble.n	1784 <printf+0x68>
/home/zhangzj/secure/optee_gerrit/optee_os/lib/libutee/trace_ext.c:67
    172a:	4e19      	ldr	r6, [pc, #100]	; (1790 <printf+0x74>)
    172c:	ad02      	add	r5, sp, #8
    172e:	f44f 7280 	mov.w	r2, #256	; 0x100
    1732:	4628      	mov	r0, r5
    1734:	447e      	add	r6, pc
    1736:	4631      	mov	r1, r6
    1738:	f002 fbea 	bl	3f10 <strlcpy>
/home/zhangzj/secure/optee_gerrit/optee_os/lib/libutee/trace_ext.c:68
    173c:	28ff      	cmp	r0, #255	; 0xff
/home/zhangzj/secure/optee_gerrit/optee_os/lib/libutee/trace_ext.c:67
    173e:	4601      	mov	r1, r0
/home/zhangzj/secure/optee_gerrit/optee_os/lib/libutee/trace_ext.c:68
    1740:	d904      	bls.n	174c <printf+0x30>
/home/zhangzj/secure/optee_gerrit/optee_os/lib/libutee/trace_ext.c:69
    1742:	f106 000a 	add.w	r0, r6, #10
    1746:	f7ff ffde 	bl	1706 <puts>
    174a:	e01b      	b.n	1784 <printf+0x68>
/home/zhangzj/secure/optee_gerrit/optee_os/lib/libutee/trace_ext.c:73
    174c:	ab47      	add	r3, sp, #284	; 0x11c
/home/zhangzj/secure/optee_gerrit/optee_os/lib/libutee/trace_ext.c:74
    174e:	1828      	adds	r0, r5, r0
    1750:	9a46      	ldr	r2, [sp, #280]	; 0x118
    1752:	f5c1 7180 	rsb	r1, r1, #256	; 0x100
/home/zhangzj/secure/optee_gerrit/optee_os/lib/libutee/trace_ext.c:73
    1756:	9301      	str	r3, [sp, #4]
/home/zhangzj/secure/optee_gerrit/optee_os/lib/libutee/trace_ext.c:74
    1758:	f001 fab6 	bl	2cc8 <vsnprintf>
/home/zhangzj/secure/optee_gerrit/optee_os/lib/libutee/trace_ext.c:77
    175c:	1e04      	subs	r4, r0, #0
    175e:	da02      	bge.n	1766 <printf+0x4a>
/home/zhangzj/secure/optee_gerrit/optee_os/lib/libutee/trace_ext.c:78
    1760:	f106 000a 	add.w	r0, r6, #10
    1764:	e00a      	b.n	177c <printf+0x60>
/home/zhangzj/secure/optee_gerrit/optee_os/lib/libutee/trace_ext.c:81
    1766:	2cf6      	cmp	r4, #246	; 0xf6
    1768:	dd07      	ble.n	177a <printf+0x5e>
/home/zhangzj/secure/optee_gerrit/optee_os/lib/libutee/trace_ext.c:82
    176a:	490a      	ldr	r1, [pc, #40]	; (1794 <printf+0x78>)
    176c:	f20d 1003 	addw	r0, sp, #259	; 0x103
    1770:	2205      	movs	r2, #5
/home/zhangzj/secure/optee_gerrit/optee_os/lib/libutee/trace_ext.c:84
    1772:	24f1      	movs	r4, #241	; 0xf1
/home/zhangzj/secure/optee_gerrit/optee_os/lib/libutee/trace_ext.c:82
    1774:	4479      	add	r1, pc
    1776:	f001 fb0f 	bl	2d98 <memcpy>
/home/zhangzj/secure/optee_gerrit/optee_os/lib/libutee/trace_ext.c:87
    177a:	4628      	mov	r0, r5
    177c:	f7ff ffc3 	bl	1706 <puts>
/home/zhangzj/secure/optee_gerrit/optee_os/lib/libutee/trace_ext.c:89
    1780:	4620      	mov	r0, r4
    1782:	e000      	b.n	1786 <printf+0x6a>
/home/zhangzj/secure/optee_gerrit/optee_os/lib/libutee/trace_ext.c:65
    1784:	2000      	movs	r0, #0
/home/zhangzj/secure/optee_gerrit/optee_os/lib/libutee/trace_ext.c:90
    1786:	b042      	add	sp, #264	; 0x108
    1788:	e8bd 4070 	ldmia.w	sp!, {r4, r5, r6, lr}
    178c:	b004      	add	sp, #16
    178e:	4770      	bx	lr
    1790:	00008887 	.word	0x00008887
    1794:	00008862 	.word	0x00008862

00001798 <bget>:
bget():
/home/csx/share/gerrit/optee_os/lib/libutils/isoc/bget.c:575
    1798:	e96d 7e02 	strd	r7, lr, [sp, #-8]!
    179c:	b088      	sub	sp, #32
    179e:	af00      	add	r7, sp, #0
    17a0:	6078      	str	r0, [r7, #4]
/home/csx/share/gerrit/optee_os/lib/libutils/isoc/bget.c:576
    17a2:	687b      	ldr	r3, [r7, #4]
    17a4:	61fb      	str	r3, [r7, #28]
/home/csx/share/gerrit/optee_os/lib/libutils/isoc/bget.c:586
    17a6:	69fb      	ldr	r3, [r7, #28]
    17a8:	2b00      	cmp	r3, #0
    17aa:	dc0b      	bgt.n	17c4 <bget+0x2c>
/home/csx/share/gerrit/optee_os/lib/libutils/isoc/bget.c:586 (discriminator 1)
    17ac:	4b6e      	ldr	r3, [pc, #440]	; (1968 <bget+0x1d0>)
    17ae:	447b      	add	r3, pc
    17b0:	4618      	mov	r0, r3
    17b2:	4b6e      	ldr	r3, [pc, #440]	; (196c <bget+0x1d4>)
    17b4:	447b      	add	r3, pc
    17b6:	4619      	mov	r1, r3
    17b8:	f240 224a 	movw	r2, #586	; 0x24a
    17bc:	f7ff fd1c 	bl	11f8 <_assert_log>
    17c0:	f7ff fd30 	bl	1224 <_assert_break>
/home/csx/share/gerrit/optee_os/lib/libutils/isoc/bget.c:588
    17c4:	69fb      	ldr	r3, [r7, #28]
    17c6:	2b07      	cmp	r3, #7
    17c8:	d801      	bhi.n	17ce <bget+0x36>
/home/csx/share/gerrit/optee_os/lib/libutils/isoc/bget.c:589
    17ca:	2308      	movs	r3, #8
    17cc:	61fb      	str	r3, [r7, #28]
/home/csx/share/gerrit/optee_os/lib/libutils/isoc/bget.c:593
    17ce:	69fb      	ldr	r3, [r7, #28]
    17d0:	3307      	adds	r3, #7
    17d2:	f023 0307 	bic.w	r3, r3, #7
    17d6:	61fb      	str	r3, [r7, #28]
/home/csx/share/gerrit/optee_os/lib/libutils/isoc/bget.c:597
    17d8:	69fb      	ldr	r3, [r7, #28]
    17da:	3308      	adds	r3, #8
    17dc:	61fb      	str	r3, [r7, #28]
/home/csx/share/gerrit/optee_os/lib/libutils/isoc/bget.c:607
    17de:	4b64      	ldr	r3, [pc, #400]	; (1970 <bget+0x1d8>)
    17e0:	447b      	add	r3, pc
    17e2:	689b      	ldr	r3, [r3, #8]
    17e4:	61bb      	str	r3, [r7, #24]
/home/csx/share/gerrit/optee_os/lib/libutils/isoc/bget.c:628
    17e6:	e0b4      	b.n	1952 <bget+0x1ba>
/home/csx/share/gerrit/optee_os/lib/libutils/isoc/bget.c:629
    17e8:	69bb      	ldr	r3, [r7, #24]
    17ea:	685a      	ldr	r2, [r3, #4]
    17ec:	69fb      	ldr	r3, [r7, #28]
    17ee:	429a      	cmp	r2, r3
    17f0:	f2c0 80ac 	blt.w	194c <bget+0x1b4>
/home/csx/share/gerrit/optee_os/lib/libutils/isoc/bget.c:640
    17f4:	69bb      	ldr	r3, [r7, #24]
    17f6:	685a      	ldr	r2, [r3, #4]
    17f8:	69fb      	ldr	r3, [r7, #28]
    17fa:	1ad3      	subs	r3, r2, r3
    17fc:	2b10      	cmp	r3, #16
    17fe:	d942      	bls.n	1886 <bget+0xee>
/home/csx/share/gerrit/optee_os/lib/libutils/isoc/bget.c:643
    1800:	69bb      	ldr	r3, [r7, #24]
    1802:	685a      	ldr	r2, [r3, #4]
    1804:	69fb      	ldr	r3, [r7, #28]
    1806:	1ad3      	subs	r3, r2, r3
    1808:	461a      	mov	r2, r3
    180a:	69bb      	ldr	r3, [r7, #24]
    180c:	4413      	add	r3, r2
    180e:	617b      	str	r3, [r7, #20]
/home/csx/share/gerrit/optee_os/lib/libutils/isoc/bget.c:644
    1810:	69fb      	ldr	r3, [r7, #28]
    1812:	697a      	ldr	r2, [r7, #20]
    1814:	4413      	add	r3, r2
    1816:	613b      	str	r3, [r7, #16]
/home/csx/share/gerrit/optee_os/lib/libutils/isoc/bget.c:645
    1818:	693b      	ldr	r3, [r7, #16]
    181a:	681a      	ldr	r2, [r3, #0]
    181c:	69bb      	ldr	r3, [r7, #24]
    181e:	685b      	ldr	r3, [r3, #4]
    1820:	429a      	cmp	r2, r3
    1822:	d00b      	beq.n	183c <bget+0xa4>
/home/csx/share/gerrit/optee_os/lib/libutils/isoc/bget.c:645 (discriminator 1)
    1824:	4b53      	ldr	r3, [pc, #332]	; (1974 <bget+0x1dc>)
    1826:	447b      	add	r3, pc
    1828:	4618      	mov	r0, r3
    182a:	4b53      	ldr	r3, [pc, #332]	; (1978 <bget+0x1e0>)
    182c:	447b      	add	r3, pc
    182e:	4619      	mov	r1, r3
    1830:	f240 2285 	movw	r2, #645	; 0x285
    1834:	f7ff fce0 	bl	11f8 <_assert_log>
    1838:	f7ff fcf4 	bl	1224 <_assert_break>
/home/csx/share/gerrit/optee_os/lib/libutils/isoc/bget.c:647
    183c:	69bb      	ldr	r3, [r7, #24]
    183e:	685a      	ldr	r2, [r3, #4]
    1840:	69fb      	ldr	r3, [r7, #28]
    1842:	1ad2      	subs	r2, r2, r3
    1844:	69bb      	ldr	r3, [r7, #24]
    1846:	605a      	str	r2, [r3, #4]
/home/csx/share/gerrit/optee_os/lib/libutils/isoc/bget.c:649
    1848:	69bb      	ldr	r3, [r7, #24]
    184a:	685a      	ldr	r2, [r3, #4]
    184c:	697b      	ldr	r3, [r7, #20]
    184e:	601a      	str	r2, [r3, #0]
/home/csx/share/gerrit/optee_os/lib/libutils/isoc/bget.c:651
    1850:	69fb      	ldr	r3, [r7, #28]
    1852:	425a      	negs	r2, r3
    1854:	697b      	ldr	r3, [r7, #20]
    1856:	605a      	str	r2, [r3, #4]
/home/csx/share/gerrit/optee_os/lib/libutils/isoc/bget.c:653
    1858:	693b      	ldr	r3, [r7, #16]
    185a:	2200      	movs	r2, #0
    185c:	601a      	str	r2, [r3, #0]
/home/csx/share/gerrit/optee_os/lib/libutils/isoc/bget.c:656
    185e:	4b47      	ldr	r3, [pc, #284]	; (197c <bget+0x1e4>)
    1860:	447b      	add	r3, pc
    1862:	681a      	ldr	r2, [r3, #0]
    1864:	69fb      	ldr	r3, [r7, #28]
    1866:	4413      	add	r3, r2
    1868:	4a45      	ldr	r2, [pc, #276]	; (1980 <bget+0x1e8>)
    186a:	447a      	add	r2, pc
    186c:	6013      	str	r3, [r2, #0]
/home/csx/share/gerrit/optee_os/lib/libutils/isoc/bget.c:657
    186e:	4b45      	ldr	r3, [pc, #276]	; (1984 <bget+0x1ec>)
    1870:	447b      	add	r3, pc
    1872:	681b      	ldr	r3, [r3, #0]
    1874:	3301      	adds	r3, #1
    1876:	4a44      	ldr	r2, [pc, #272]	; (1988 <bget+0x1f0>)
    1878:	447a      	add	r2, pc
    187a:	6013      	str	r3, [r2, #0]
/home/csx/share/gerrit/optee_os/lib/libutils/isoc/bget.c:659
    187c:	697b      	ldr	r3, [r7, #20]
    187e:	3308      	adds	r3, #8
    1880:	60fb      	str	r3, [r7, #12]
/home/csx/share/gerrit/optee_os/lib/libutils/isoc/bget.c:660
    1882:	68fb      	ldr	r3, [r7, #12]
    1884:	e06c      	b.n	1960 <bget+0x1c8>
/home/csx/share/gerrit/optee_os/lib/libutils/isoc/bget.c:664
    1886:	69bb      	ldr	r3, [r7, #24]
    1888:	685b      	ldr	r3, [r3, #4]
    188a:	461a      	mov	r2, r3
    188c:	69bb      	ldr	r3, [r7, #24]
    188e:	4413      	add	r3, r2
    1890:	60bb      	str	r3, [r7, #8]
/home/csx/share/gerrit/optee_os/lib/libutils/isoc/bget.c:665
    1892:	68bb      	ldr	r3, [r7, #8]
    1894:	681a      	ldr	r2, [r3, #0]
    1896:	69bb      	ldr	r3, [r7, #24]
    1898:	685b      	ldr	r3, [r3, #4]
    189a:	429a      	cmp	r2, r3
    189c:	d00b      	beq.n	18b6 <bget+0x11e>
/home/csx/share/gerrit/optee_os/lib/libutils/isoc/bget.c:665 (discriminator 1)
    189e:	4b3b      	ldr	r3, [pc, #236]	; (198c <bget+0x1f4>)
    18a0:	447b      	add	r3, pc
    18a2:	4618      	mov	r0, r3
    18a4:	4b3a      	ldr	r3, [pc, #232]	; (1990 <bget+0x1f8>)
    18a6:	447b      	add	r3, pc
    18a8:	4619      	mov	r1, r3
    18aa:	f240 2299 	movw	r2, #665	; 0x299
    18ae:	f7ff fca3 	bl	11f8 <_assert_log>
    18b2:	f7ff fcb7 	bl	1224 <_assert_break>
/home/csx/share/gerrit/optee_os/lib/libutils/isoc/bget.c:670
    18b6:	69bb      	ldr	r3, [r7, #24]
    18b8:	68db      	ldr	r3, [r3, #12]
    18ba:	689a      	ldr	r2, [r3, #8]
    18bc:	69bb      	ldr	r3, [r7, #24]
    18be:	429a      	cmp	r2, r3
    18c0:	d00b      	beq.n	18da <bget+0x142>
/home/csx/share/gerrit/optee_os/lib/libutils/isoc/bget.c:670 (discriminator 1)
    18c2:	4b34      	ldr	r3, [pc, #208]	; (1994 <bget+0x1fc>)
    18c4:	447b      	add	r3, pc
    18c6:	4618      	mov	r0, r3
    18c8:	4b33      	ldr	r3, [pc, #204]	; (1998 <bget+0x200>)
    18ca:	447b      	add	r3, pc
    18cc:	4619      	mov	r1, r3
    18ce:	f240 229e 	movw	r2, #670	; 0x29e
    18d2:	f7ff fc91 	bl	11f8 <_assert_log>
    18d6:	f7ff fca5 	bl	1224 <_assert_break>
/home/csx/share/gerrit/optee_os/lib/libutils/isoc/bget.c:671
    18da:	69bb      	ldr	r3, [r7, #24]
    18dc:	689b      	ldr	r3, [r3, #8]
    18de:	68da      	ldr	r2, [r3, #12]
    18e0:	69bb      	ldr	r3, [r7, #24]
    18e2:	429a      	cmp	r2, r3
    18e4:	d00b      	beq.n	18fe <bget+0x166>
/home/csx/share/gerrit/optee_os/lib/libutils/isoc/bget.c:671 (discriminator 1)
    18e6:	4b2d      	ldr	r3, [pc, #180]	; (199c <bget+0x204>)
    18e8:	447b      	add	r3, pc
    18ea:	4618      	mov	r0, r3
    18ec:	4b2c      	ldr	r3, [pc, #176]	; (19a0 <bget+0x208>)
    18ee:	447b      	add	r3, pc
    18f0:	4619      	mov	r1, r3
    18f2:	f240 229f 	movw	r2, #671	; 0x29f
    18f6:	f7ff fc7f 	bl	11f8 <_assert_log>
    18fa:	f7ff fc93 	bl	1224 <_assert_break>
/home/csx/share/gerrit/optee_os/lib/libutils/isoc/bget.c:672
    18fe:	69bb      	ldr	r3, [r7, #24]
    1900:	68db      	ldr	r3, [r3, #12]
    1902:	69ba      	ldr	r2, [r7, #24]
    1904:	6892      	ldr	r2, [r2, #8]
    1906:	609a      	str	r2, [r3, #8]
/home/csx/share/gerrit/optee_os/lib/libutils/isoc/bget.c:673
    1908:	69bb      	ldr	r3, [r7, #24]
    190a:	689b      	ldr	r3, [r3, #8]
    190c:	69ba      	ldr	r2, [r7, #24]
    190e:	68d2      	ldr	r2, [r2, #12]
    1910:	60da      	str	r2, [r3, #12]
/home/csx/share/gerrit/optee_os/lib/libutils/isoc/bget.c:676
    1912:	69bb      	ldr	r3, [r7, #24]
    1914:	685a      	ldr	r2, [r3, #4]
    1916:	4b23      	ldr	r3, [pc, #140]	; (19a4 <bget+0x20c>)
    1918:	447b      	add	r3, pc
    191a:	681b      	ldr	r3, [r3, #0]
    191c:	4413      	add	r3, r2
    191e:	4a22      	ldr	r2, [pc, #136]	; (19a8 <bget+0x210>)
    1920:	447a      	add	r2, pc
    1922:	6013      	str	r3, [r2, #0]
/home/csx/share/gerrit/optee_os/lib/libutils/isoc/bget.c:677
    1924:	4b21      	ldr	r3, [pc, #132]	; (19ac <bget+0x214>)
    1926:	447b      	add	r3, pc
    1928:	681b      	ldr	r3, [r3, #0]
    192a:	3301      	adds	r3, #1
    192c:	4a20      	ldr	r2, [pc, #128]	; (19b0 <bget+0x218>)
    192e:	447a      	add	r2, pc
    1930:	6013      	str	r3, [r2, #0]
/home/csx/share/gerrit/optee_os/lib/libutils/isoc/bget.c:680
    1932:	69bb      	ldr	r3, [r7, #24]
    1934:	685b      	ldr	r3, [r3, #4]
    1936:	425a      	negs	r2, r3
    1938:	69bb      	ldr	r3, [r7, #24]
    193a:	605a      	str	r2, [r3, #4]
/home/csx/share/gerrit/optee_os/lib/libutils/isoc/bget.c:684
    193c:	68bb      	ldr	r3, [r7, #8]
    193e:	2200      	movs	r2, #0
    1940:	601a      	str	r2, [r3, #0]
/home/csx/share/gerrit/optee_os/lib/libutils/isoc/bget.c:687
    1942:	69bb      	ldr	r3, [r7, #24]
    1944:	3308      	adds	r3, #8
    1946:	60fb      	str	r3, [r7, #12]
/home/csx/share/gerrit/optee_os/lib/libutils/isoc/bget.c:688
    1948:	68fb      	ldr	r3, [r7, #12]
    194a:	e009      	b.n	1960 <bget+0x1c8>
/home/csx/share/gerrit/optee_os/lib/libutils/isoc/bget.c:691
    194c:	69bb      	ldr	r3, [r7, #24]
    194e:	689b      	ldr	r3, [r3, #8]
    1950:	61bb      	str	r3, [r7, #24]
/home/csx/share/gerrit/optee_os/lib/libutils/isoc/bget.c:628
    1952:	69bb      	ldr	r3, [r7, #24]
    1954:	4a17      	ldr	r2, [pc, #92]	; (19b4 <bget+0x21c>)
    1956:	447a      	add	r2, pc
    1958:	4293      	cmp	r3, r2
    195a:	f47f af45 	bne.w	17e8 <bget+0x50>
/home/csx/share/gerrit/optee_os/lib/libutils/isoc/bget.c:752
    195e:	2300      	movs	r3, #0
/home/csx/share/gerrit/optee_os/lib/libutils/isoc/bget.c:753
    1960:	4618      	mov	r0, r3
    1962:	3720      	adds	r7, #32
    1964:	46bd      	mov	sp, r7
    1966:	bd80      	pop	{r7, pc}
    1968:	000072a6 	.word	0x000072a6
    196c:	000072ac 	.word	0x000072ac
    1970:	000098b0 	.word	0x000098b0
    1974:	00007256 	.word	0x00007256
    1978:	00007234 	.word	0x00007234
    197c:	0001337c 	.word	0x0001337c
    1980:	00013372 	.word	0x00013372
    1984:	00013370 	.word	0x00013370
    1988:	00013368 	.word	0x00013368
    198c:	000071f8 	.word	0x000071f8
    1990:	000071ba 	.word	0x000071ba
    1994:	000071f0 	.word	0x000071f0
    1998:	00007196 	.word	0x00007196
    199c:	000071e8 	.word	0x000071e8
    19a0:	00007172 	.word	0x00007172
    19a4:	000132c4 	.word	0x000132c4
    19a8:	000132bc 	.word	0x000132bc
    19ac:	000132ba 	.word	0x000132ba
    19b0:	000132b2 	.word	0x000132b2
    19b4:	0000973a 	.word	0x0000973a

000019b8 <bgetz>:
bgetz():
/home/csx/share/gerrit/optee_os/lib/libutils/isoc/bget.c:761
    19b8:	e96d 7e02 	strd	r7, lr, [sp, #-8]!
    19bc:	b086      	sub	sp, #24
    19be:	af00      	add	r7, sp, #0
    19c0:	6078      	str	r0, [r7, #4]
/home/csx/share/gerrit/optee_os/lib/libutils/isoc/bget.c:762
    19c2:	6878      	ldr	r0, [r7, #4]
    19c4:	f7ff fee8 	bl	1798 <bget>
    19c8:	6138      	str	r0, [r7, #16]
/home/csx/share/gerrit/optee_os/lib/libutils/isoc/bget.c:764
    19ca:	693b      	ldr	r3, [r7, #16]
    19cc:	2b00      	cmp	r3, #0
    19ce:	d02a      	beq.n	1a26 <bgetz+0x6e>
/home/csx/share/gerrit/optee_os/lib/libutils/isoc/bget.c:768
    19d0:	693b      	ldr	r3, [r7, #16]
    19d2:	3b08      	subs	r3, #8
    19d4:	60fb      	str	r3, [r7, #12]
/home/csx/share/gerrit/optee_os/lib/libutils/isoc/bget.c:769
    19d6:	68fb      	ldr	r3, [r7, #12]
    19d8:	685b      	ldr	r3, [r3, #4]
    19da:	425b      	negs	r3, r3
    19dc:	617b      	str	r3, [r7, #20]
/home/csx/share/gerrit/optee_os/lib/libutils/isoc/bget.c:770
    19de:	697b      	ldr	r3, [r7, #20]
    19e0:	2b00      	cmp	r3, #0
    19e2:	d107      	bne.n	19f4 <bgetz+0x3c>
/home/csx/share/gerrit/optee_os/lib/libutils/isoc/bget.c:773
    19e4:	693b      	ldr	r3, [r7, #16]
    19e6:	3b0c      	subs	r3, #12
    19e8:	60bb      	str	r3, [r7, #8]
/home/csx/share/gerrit/optee_os/lib/libutils/isoc/bget.c:774
    19ea:	68bb      	ldr	r3, [r7, #8]
    19ec:	681b      	ldr	r3, [r3, #0]
    19ee:	3b0c      	subs	r3, #12
    19f0:	617b      	str	r3, [r7, #20]
    19f2:	e002      	b.n	19fa <bgetz+0x42>
/home/csx/share/gerrit/optee_os/lib/libutils/isoc/bget.c:776
    19f4:	697b      	ldr	r3, [r7, #20]
    19f6:	3b08      	subs	r3, #8
    19f8:	617b      	str	r3, [r7, #20]
/home/csx/share/gerrit/optee_os/lib/libutils/isoc/bget.c:778
    19fa:	697a      	ldr	r2, [r7, #20]
    19fc:	687b      	ldr	r3, [r7, #4]
    19fe:	429a      	cmp	r2, r3
    1a00:	da0b      	bge.n	1a1a <bgetz+0x62>
/home/csx/share/gerrit/optee_os/lib/libutils/isoc/bget.c:778 (discriminator 1)
    1a02:	4b0b      	ldr	r3, [pc, #44]	; (1a30 <bgetz+0x78>)
    1a04:	447b      	add	r3, pc
    1a06:	4618      	mov	r0, r3
    1a08:	4b0a      	ldr	r3, [pc, #40]	; (1a34 <bgetz+0x7c>)
    1a0a:	447b      	add	r3, pc
    1a0c:	4619      	mov	r1, r3
    1a0e:	f240 320a 	movw	r2, #778	; 0x30a
    1a12:	f7ff fbf1 	bl	11f8 <_assert_log>
    1a16:	f7ff fc05 	bl	1224 <_assert_break>
/home/csx/share/gerrit/optee_os/lib/libutils/isoc/bget.c:779
    1a1a:	697b      	ldr	r3, [r7, #20]
    1a1c:	6938      	ldr	r0, [r7, #16]
    1a1e:	2100      	movs	r1, #0
    1a20:	461a      	mov	r2, r3
    1a22:	f001 faad 	bl	2f80 <memset>
/home/csx/share/gerrit/optee_os/lib/libutils/isoc/bget.c:781
    1a26:	693b      	ldr	r3, [r7, #16]
/home/csx/share/gerrit/optee_os/lib/libutils/isoc/bget.c:782
    1a28:	4618      	mov	r0, r3
    1a2a:	3718      	adds	r7, #24
    1a2c:	46bd      	mov	sp, r7
    1a2e:	bd80      	pop	{r7, pc}
    1a30:	000070e8 	.word	0x000070e8
    1a34:	00007056 	.word	0x00007056

00001a38 <bgetr>:
bgetr():
/home/csx/share/gerrit/optee_os/lib/libutils/isoc/bget.c:792
    1a38:	e96d 7e02 	strd	r7, lr, [sp, #-8]!
    1a3c:	b086      	sub	sp, #24
    1a3e:	af00      	add	r7, sp, #0
    1a40:	6078      	str	r0, [r7, #4]
    1a42:	6039      	str	r1, [r7, #0]
/home/csx/share/gerrit/optee_os/lib/libutils/isoc/bget.c:797
    1a44:	6838      	ldr	r0, [r7, #0]
    1a46:	f7ff fea7 	bl	1798 <bget>
    1a4a:	6178      	str	r0, [r7, #20]
    1a4c:	697b      	ldr	r3, [r7, #20]
    1a4e:	2b00      	cmp	r3, #0
    1a50:	d101      	bne.n	1a56 <bgetr+0x1e>
/home/csx/share/gerrit/optee_os/lib/libutils/isoc/bget.c:798
    1a52:	2300      	movs	r3, #0
    1a54:	e02b      	b.n	1aae <bgetr+0x76>
/home/csx/share/gerrit/optee_os/lib/libutils/isoc/bget.c:800
    1a56:	687b      	ldr	r3, [r7, #4]
    1a58:	2b00      	cmp	r3, #0
    1a5a:	d101      	bne.n	1a60 <bgetr+0x28>
/home/csx/share/gerrit/optee_os/lib/libutils/isoc/bget.c:801
    1a5c:	697b      	ldr	r3, [r7, #20]
    1a5e:	e026      	b.n	1aae <bgetr+0x76>
/home/csx/share/gerrit/optee_os/lib/libutils/isoc/bget.c:803
    1a60:	687b      	ldr	r3, [r7, #4]
    1a62:	3b08      	subs	r3, #8
    1a64:	613b      	str	r3, [r7, #16]
/home/csx/share/gerrit/optee_os/lib/libutils/isoc/bget.c:804
    1a66:	693b      	ldr	r3, [r7, #16]
    1a68:	685b      	ldr	r3, [r3, #4]
    1a6a:	425b      	negs	r3, r3
    1a6c:	60fb      	str	r3, [r7, #12]
/home/csx/share/gerrit/optee_os/lib/libutils/isoc/bget.c:814
    1a6e:	68fb      	ldr	r3, [r7, #12]
    1a70:	3b08      	subs	r3, #8
    1a72:	60fb      	str	r3, [r7, #12]
/home/csx/share/gerrit/optee_os/lib/libutils/isoc/bget.c:815
    1a74:	68fb      	ldr	r3, [r7, #12]
    1a76:	2b00      	cmp	r3, #0
    1a78:	dc0b      	bgt.n	1a92 <bgetr+0x5a>
/home/csx/share/gerrit/optee_os/lib/libutils/isoc/bget.c:815 (discriminator 1)
    1a7a:	4b0f      	ldr	r3, [pc, #60]	; (1ab8 <bgetr+0x80>)
    1a7c:	447b      	add	r3, pc
    1a7e:	4618      	mov	r0, r3
    1a80:	4b0e      	ldr	r3, [pc, #56]	; (1abc <bgetr+0x84>)
    1a82:	447b      	add	r3, pc
    1a84:	4619      	mov	r1, r3
    1a86:	f240 322f 	movw	r2, #815	; 0x32f
    1a8a:	f7ff fbb5 	bl	11f8 <_assert_log>
    1a8e:	f7ff fbc9 	bl	1224 <_assert_break>
/home/csx/share/gerrit/optee_os/lib/libutils/isoc/bget.c:817
    1a92:	68fa      	ldr	r2, [r7, #12]
    1a94:	683b      	ldr	r3, [r7, #0]
    1a96:	4293      	cmp	r3, r2
    1a98:	bfa8      	it	ge
    1a9a:	4613      	movge	r3, r2
/home/csx/share/gerrit/optee_os/lib/libutils/isoc/bget.c:816
    1a9c:	6978      	ldr	r0, [r7, #20]
    1a9e:	6879      	ldr	r1, [r7, #4]
    1aa0:	461a      	mov	r2, r3
    1aa2:	f001 f979 	bl	2d98 <memcpy>
/home/csx/share/gerrit/optee_os/lib/libutils/isoc/bget.c:818
    1aa6:	6878      	ldr	r0, [r7, #4]
    1aa8:	f000 f80a 	bl	1ac0 <brel>
/home/csx/share/gerrit/optee_os/lib/libutils/isoc/bget.c:819
    1aac:	697b      	ldr	r3, [r7, #20]
/home/csx/share/gerrit/optee_os/lib/libutils/isoc/bget.c:820
    1aae:	4618      	mov	r0, r3
    1ab0:	3718      	adds	r7, #24
    1ab2:	46bd      	mov	sp, r7
    1ab4:	bd80      	pop	{r7, pc}
    1ab6:	bf00      	nop
    1ab8:	00007080 	.word	0x00007080
    1abc:	00006fde 	.word	0x00006fde

00001ac0 <brel>:
brel():
/home/csx/share/gerrit/optee_os/lib/libutils/isoc/bget.c:826
    1ac0:	f84d 4d0c 	str.w	r4, [sp, #-12]!
    1ac4:	e9cd 7e01 	strd	r7, lr, [sp, #4]
    1ac8:	b085      	sub	sp, #20
    1aca:	af00      	add	r7, sp, #0
    1acc:	6078      	str	r0, [r7, #4]
/home/csx/share/gerrit/optee_os/lib/libutils/isoc/bget.c:829
    1ace:	687b      	ldr	r3, [r7, #4]
    1ad0:	3b08      	subs	r3, #8
    1ad2:	60fb      	str	r3, [r7, #12]
/home/csx/share/gerrit/optee_os/lib/libutils/isoc/bget.c:831
    1ad4:	4b9b      	ldr	r3, [pc, #620]	; (1d44 <brel+0x284>)
    1ad6:	447b      	add	r3, pc
    1ad8:	681b      	ldr	r3, [r3, #0]
    1ada:	3301      	adds	r3, #1
    1adc:	4a9a      	ldr	r2, [pc, #616]	; (1d48 <brel+0x288>)
    1ade:	447a      	add	r2, pc
    1ae0:	6013      	str	r3, [r2, #0]
/home/csx/share/gerrit/optee_os/lib/libutils/isoc/bget.c:833
    1ae2:	687b      	ldr	r3, [r7, #4]
    1ae4:	2b00      	cmp	r3, #0
    1ae6:	d10b      	bne.n	1b00 <brel+0x40>
/home/csx/share/gerrit/optee_os/lib/libutils/isoc/bget.c:833 (discriminator 1)
    1ae8:	4b98      	ldr	r3, [pc, #608]	; (1d4c <brel+0x28c>)
    1aea:	447b      	add	r3, pc
    1aec:	4618      	mov	r0, r3
    1aee:	4b98      	ldr	r3, [pc, #608]	; (1d50 <brel+0x290>)
    1af0:	447b      	add	r3, pc
    1af2:	4619      	mov	r1, r3
    1af4:	f240 3241 	movw	r2, #833	; 0x341
    1af8:	f7ff fb7e 	bl	11f8 <_assert_log>
    1afc:	f7ff fb92 	bl	1224 <_assert_break>
/home/csx/share/gerrit/optee_os/lib/libutils/isoc/bget.c:859
    1b00:	68fb      	ldr	r3, [r7, #12]
    1b02:	685b      	ldr	r3, [r3, #4]
    1b04:	2b00      	cmp	r3, #0
    1b06:	db01      	blt.n	1b0c <brel+0x4c>
/home/csx/share/gerrit/optee_os/lib/libutils/isoc/bget.c:860
    1b08:	2300      	movs	r3, #0
    1b0a:	60bb      	str	r3, [r7, #8]
/home/csx/share/gerrit/optee_os/lib/libutils/isoc/bget.c:862
    1b0c:	68fb      	ldr	r3, [r7, #12]
    1b0e:	685b      	ldr	r3, [r3, #4]
    1b10:	2b00      	cmp	r3, #0
    1b12:	db0b      	blt.n	1b2c <brel+0x6c>
/home/csx/share/gerrit/optee_os/lib/libutils/isoc/bget.c:862 (discriminator 1)
    1b14:	4b8f      	ldr	r3, [pc, #572]	; (1d54 <brel+0x294>)
    1b16:	447b      	add	r3, pc
    1b18:	4618      	mov	r0, r3
    1b1a:	4b8f      	ldr	r3, [pc, #572]	; (1d58 <brel+0x298>)
    1b1c:	447b      	add	r3, pc
    1b1e:	4619      	mov	r1, r3
    1b20:	f240 325e 	movw	r2, #862	; 0x35e
    1b24:	f7ff fb68 	bl	11f8 <_assert_log>
    1b28:	f7ff fb7c 	bl	1224 <_assert_break>
/home/csx/share/gerrit/optee_os/lib/libutils/isoc/bget.c:867
    1b2c:	68fb      	ldr	r3, [r7, #12]
    1b2e:	685b      	ldr	r3, [r3, #4]
    1b30:	425b      	negs	r3, r3
    1b32:	68fa      	ldr	r2, [r7, #12]
    1b34:	4413      	add	r3, r2
    1b36:	681b      	ldr	r3, [r3, #0]
    1b38:	2b00      	cmp	r3, #0
    1b3a:	d00b      	beq.n	1b54 <brel+0x94>
/home/csx/share/gerrit/optee_os/lib/libutils/isoc/bget.c:867 (discriminator 1)
    1b3c:	4b87      	ldr	r3, [pc, #540]	; (1d5c <brel+0x29c>)
    1b3e:	447b      	add	r3, pc
    1b40:	4618      	mov	r0, r3
    1b42:	4b87      	ldr	r3, [pc, #540]	; (1d60 <brel+0x2a0>)
    1b44:	447b      	add	r3, pc
    1b46:	4619      	mov	r1, r3
    1b48:	f240 3263 	movw	r2, #867	; 0x363
    1b4c:	f7ff fb54 	bl	11f8 <_assert_log>
    1b50:	f7ff fb68 	bl	1224 <_assert_break>
/home/csx/share/gerrit/optee_os/lib/libutils/isoc/bget.c:870
    1b54:	68fb      	ldr	r3, [r7, #12]
    1b56:	685a      	ldr	r2, [r3, #4]
    1b58:	4b82      	ldr	r3, [pc, #520]	; (1d64 <brel+0x2a4>)
    1b5a:	447b      	add	r3, pc
    1b5c:	681b      	ldr	r3, [r3, #0]
    1b5e:	4413      	add	r3, r2
    1b60:	4a81      	ldr	r2, [pc, #516]	; (1d68 <brel+0x2a8>)
    1b62:	447a      	add	r2, pc
    1b64:	6013      	str	r3, [r2, #0]
/home/csx/share/gerrit/optee_os/lib/libutils/isoc/bget.c:871
    1b66:	4b81      	ldr	r3, [pc, #516]	; (1d6c <brel+0x2ac>)
    1b68:	447b      	add	r3, pc
    1b6a:	681b      	ldr	r3, [r3, #0]
    1b6c:	2b00      	cmp	r3, #0
    1b6e:	da0b      	bge.n	1b88 <brel+0xc8>
/home/csx/share/gerrit/optee_os/lib/libutils/isoc/bget.c:871 (discriminator 1)
    1b70:	4b7f      	ldr	r3, [pc, #508]	; (1d70 <brel+0x2b0>)
    1b72:	447b      	add	r3, pc
    1b74:	4618      	mov	r0, r3
    1b76:	4b7f      	ldr	r3, [pc, #508]	; (1d74 <brel+0x2b4>)
    1b78:	447b      	add	r3, pc
    1b7a:	4619      	mov	r1, r3
    1b7c:	f240 3267 	movw	r2, #871	; 0x367
    1b80:	f7ff fb3a 	bl	11f8 <_assert_log>
    1b84:	f7ff fb4e 	bl	1224 <_assert_break>
/home/csx/share/gerrit/optee_os/lib/libutils/isoc/bget.c:876
    1b88:	68fb      	ldr	r3, [r7, #12]
    1b8a:	681b      	ldr	r3, [r3, #0]
    1b8c:	2b00      	cmp	r3, #0
    1b8e:	d023      	beq.n	1bd8 <brel+0x118>
/home/csx/share/gerrit/optee_os/lib/libutils/isoc/bget.c:884
    1b90:	68fb      	ldr	r3, [r7, #12]
    1b92:	685c      	ldr	r4, [r3, #4]
/home/csx/share/gerrit/optee_os/lib/libutils/isoc/bget.c:887
    1b94:	68fb      	ldr	r3, [r7, #12]
    1b96:	681b      	ldr	r3, [r3, #0]
    1b98:	425b      	negs	r3, r3
    1b9a:	68fa      	ldr	r2, [r7, #12]
    1b9c:	4413      	add	r3, r2
    1b9e:	685a      	ldr	r2, [r3, #4]
    1ba0:	68fb      	ldr	r3, [r7, #12]
    1ba2:	681b      	ldr	r3, [r3, #0]
    1ba4:	429a      	cmp	r2, r3
    1ba6:	d00b      	beq.n	1bc0 <brel+0x100>
/home/csx/share/gerrit/optee_os/lib/libutils/isoc/bget.c:887 (discriminator 1)
    1ba8:	4b73      	ldr	r3, [pc, #460]	; (1d78 <brel+0x2b8>)
    1baa:	447b      	add	r3, pc
    1bac:	4618      	mov	r0, r3
    1bae:	4b73      	ldr	r3, [pc, #460]	; (1d7c <brel+0x2bc>)
    1bb0:	447b      	add	r3, pc
    1bb2:	4619      	mov	r1, r3
    1bb4:	f240 3277 	movw	r2, #887	; 0x377
    1bb8:	f7ff fb1e 	bl	11f8 <_assert_log>
    1bbc:	f7ff fb32 	bl	1224 <_assert_break>
/home/csx/share/gerrit/optee_os/lib/libutils/isoc/bget.c:888
    1bc0:	68fb      	ldr	r3, [r7, #12]
    1bc2:	681b      	ldr	r3, [r3, #0]
    1bc4:	425b      	negs	r3, r3
    1bc6:	68fa      	ldr	r2, [r7, #12]
    1bc8:	4413      	add	r3, r2
    1bca:	60fb      	str	r3, [r7, #12]
/home/csx/share/gerrit/optee_os/lib/libutils/isoc/bget.c:889
    1bcc:	68fb      	ldr	r3, [r7, #12]
    1bce:	685b      	ldr	r3, [r3, #4]
    1bd0:	1b1a      	subs	r2, r3, r4
    1bd2:	68fb      	ldr	r3, [r7, #12]
    1bd4:	605a      	str	r2, [r3, #4]
    1bd6:	e03e      	b.n	1c56 <brel+0x196>
/home/csx/share/gerrit/optee_os/lib/libutils/isoc/bget.c:895
    1bd8:	4b69      	ldr	r3, [pc, #420]	; (1d80 <brel+0x2c0>)
    1bda:	447b      	add	r3, pc
    1bdc:	68db      	ldr	r3, [r3, #12]
    1bde:	689b      	ldr	r3, [r3, #8]
    1be0:	4a68      	ldr	r2, [pc, #416]	; (1d84 <brel+0x2c4>)
    1be2:	447a      	add	r2, pc
    1be4:	4293      	cmp	r3, r2
    1be6:	d00b      	beq.n	1c00 <brel+0x140>
/home/csx/share/gerrit/optee_os/lib/libutils/isoc/bget.c:895 (discriminator 1)
    1be8:	4b67      	ldr	r3, [pc, #412]	; (1d88 <brel+0x2c8>)
    1bea:	447b      	add	r3, pc
    1bec:	4618      	mov	r0, r3
    1bee:	4b67      	ldr	r3, [pc, #412]	; (1d8c <brel+0x2cc>)
    1bf0:	447b      	add	r3, pc
    1bf2:	4619      	mov	r1, r3
    1bf4:	f240 327f 	movw	r2, #895	; 0x37f
    1bf8:	f7ff fafe 	bl	11f8 <_assert_log>
    1bfc:	f7ff fb12 	bl	1224 <_assert_break>
/home/csx/share/gerrit/optee_os/lib/libutils/isoc/bget.c:896
    1c00:	4b63      	ldr	r3, [pc, #396]	; (1d90 <brel+0x2d0>)
    1c02:	447b      	add	r3, pc
    1c04:	689b      	ldr	r3, [r3, #8]
    1c06:	68db      	ldr	r3, [r3, #12]
    1c08:	4a62      	ldr	r2, [pc, #392]	; (1d94 <brel+0x2d4>)
    1c0a:	447a      	add	r2, pc
    1c0c:	4293      	cmp	r3, r2
    1c0e:	d00b      	beq.n	1c28 <brel+0x168>
/home/csx/share/gerrit/optee_os/lib/libutils/isoc/bget.c:896 (discriminator 1)
    1c10:	4b61      	ldr	r3, [pc, #388]	; (1d98 <brel+0x2d8>)
    1c12:	447b      	add	r3, pc
    1c14:	4618      	mov	r0, r3
    1c16:	4b61      	ldr	r3, [pc, #388]	; (1d9c <brel+0x2dc>)
    1c18:	447b      	add	r3, pc
    1c1a:	4619      	mov	r1, r3
    1c1c:	f44f 7260 	mov.w	r2, #896	; 0x380
    1c20:	f7ff faea 	bl	11f8 <_assert_log>
    1c24:	f7ff fafe 	bl	1224 <_assert_break>
/home/csx/share/gerrit/optee_os/lib/libutils/isoc/bget.c:897
    1c28:	68fb      	ldr	r3, [r7, #12]
    1c2a:	4a5d      	ldr	r2, [pc, #372]	; (1da0 <brel+0x2e0>)
    1c2c:	447a      	add	r2, pc
    1c2e:	609a      	str	r2, [r3, #8]
/home/csx/share/gerrit/optee_os/lib/libutils/isoc/bget.c:898
    1c30:	4b5c      	ldr	r3, [pc, #368]	; (1da4 <brel+0x2e4>)
    1c32:	447b      	add	r3, pc
    1c34:	68da      	ldr	r2, [r3, #12]
    1c36:	68fb      	ldr	r3, [r7, #12]
    1c38:	60da      	str	r2, [r3, #12]
/home/csx/share/gerrit/optee_os/lib/libutils/isoc/bget.c:899
    1c3a:	4b5b      	ldr	r3, [pc, #364]	; (1da8 <brel+0x2e8>)
    1c3c:	447b      	add	r3, pc
    1c3e:	461a      	mov	r2, r3
    1c40:	68fb      	ldr	r3, [r7, #12]
    1c42:	60d3      	str	r3, [r2, #12]
/home/csx/share/gerrit/optee_os/lib/libutils/isoc/bget.c:900
    1c44:	68fb      	ldr	r3, [r7, #12]
    1c46:	68db      	ldr	r3, [r3, #12]
    1c48:	68fa      	ldr	r2, [r7, #12]
    1c4a:	609a      	str	r2, [r3, #8]
/home/csx/share/gerrit/optee_os/lib/libutils/isoc/bget.c:901
    1c4c:	68fb      	ldr	r3, [r7, #12]
    1c4e:	685b      	ldr	r3, [r3, #4]
    1c50:	425a      	negs	r2, r3
    1c52:	68fb      	ldr	r3, [r7, #12]
    1c54:	605a      	str	r2, [r3, #4]
/home/csx/share/gerrit/optee_os/lib/libutils/isoc/bget.c:909
    1c56:	68fb      	ldr	r3, [r7, #12]
    1c58:	685b      	ldr	r3, [r3, #4]
    1c5a:	461a      	mov	r2, r3
    1c5c:	68fb      	ldr	r3, [r7, #12]
    1c5e:	4413      	add	r3, r2
    1c60:	60bb      	str	r3, [r7, #8]
/home/csx/share/gerrit/optee_os/lib/libutils/isoc/bget.c:910
    1c62:	68bb      	ldr	r3, [r7, #8]
    1c64:	685b      	ldr	r3, [r3, #4]
    1c66:	2b00      	cmp	r3, #0
    1c68:	dd50      	ble.n	1d0c <brel+0x24c>
/home/csx/share/gerrit/optee_os/lib/libutils/isoc/bget.c:915
    1c6a:	68bb      	ldr	r3, [r7, #8]
    1c6c:	685b      	ldr	r3, [r3, #4]
    1c6e:	461a      	mov	r2, r3
    1c70:	68bb      	ldr	r3, [r7, #8]
    1c72:	4413      	add	r3, r2
    1c74:	681a      	ldr	r2, [r3, #0]
    1c76:	68bb      	ldr	r3, [r7, #8]
    1c78:	685b      	ldr	r3, [r3, #4]
    1c7a:	429a      	cmp	r2, r3
    1c7c:	d00b      	beq.n	1c96 <brel+0x1d6>
/home/csx/share/gerrit/optee_os/lib/libutils/isoc/bget.c:915 (discriminator 1)
    1c7e:	4b4b      	ldr	r3, [pc, #300]	; (1dac <brel+0x2ec>)
    1c80:	447b      	add	r3, pc
    1c82:	4618      	mov	r0, r3
    1c84:	4b4a      	ldr	r3, [pc, #296]	; (1db0 <brel+0x2f0>)
    1c86:	447b      	add	r3, pc
    1c88:	4619      	mov	r1, r3
    1c8a:	f240 3293 	movw	r2, #915	; 0x393
    1c8e:	f7ff fab3 	bl	11f8 <_assert_log>
    1c92:	f7ff fac7 	bl	1224 <_assert_break>
/home/csx/share/gerrit/optee_os/lib/libutils/isoc/bget.c:916
    1c96:	68bb      	ldr	r3, [r7, #8]
    1c98:	68db      	ldr	r3, [r3, #12]
    1c9a:	689a      	ldr	r2, [r3, #8]
    1c9c:	68bb      	ldr	r3, [r7, #8]
    1c9e:	429a      	cmp	r2, r3
    1ca0:	d00b      	beq.n	1cba <brel+0x1fa>
/home/csx/share/gerrit/optee_os/lib/libutils/isoc/bget.c:916 (discriminator 1)
    1ca2:	4b44      	ldr	r3, [pc, #272]	; (1db4 <brel+0x2f4>)
    1ca4:	447b      	add	r3, pc
    1ca6:	4618      	mov	r0, r3
    1ca8:	4b43      	ldr	r3, [pc, #268]	; (1db8 <brel+0x2f8>)
    1caa:	447b      	add	r3, pc
    1cac:	4619      	mov	r1, r3
    1cae:	f44f 7265 	mov.w	r2, #916	; 0x394
    1cb2:	f7ff faa1 	bl	11f8 <_assert_log>
    1cb6:	f7ff fab5 	bl	1224 <_assert_break>
/home/csx/share/gerrit/optee_os/lib/libutils/isoc/bget.c:917
    1cba:	68bb      	ldr	r3, [r7, #8]
    1cbc:	689b      	ldr	r3, [r3, #8]
    1cbe:	68da      	ldr	r2, [r3, #12]
    1cc0:	68bb      	ldr	r3, [r7, #8]
    1cc2:	429a      	cmp	r2, r3
    1cc4:	d00b      	beq.n	1cde <brel+0x21e>
/home/csx/share/gerrit/optee_os/lib/libutils/isoc/bget.c:917 (discriminator 1)
    1cc6:	4b3d      	ldr	r3, [pc, #244]	; (1dbc <brel+0x2fc>)
    1cc8:	447b      	add	r3, pc
    1cca:	4618      	mov	r0, r3
    1ccc:	4b3c      	ldr	r3, [pc, #240]	; (1dc0 <brel+0x300>)
    1cce:	447b      	add	r3, pc
    1cd0:	4619      	mov	r1, r3
    1cd2:	f240 3295 	movw	r2, #917	; 0x395
    1cd6:	f7ff fa8f 	bl	11f8 <_assert_log>
    1cda:	f7ff faa3 	bl	1224 <_assert_break>
/home/csx/share/gerrit/optee_os/lib/libutils/isoc/bget.c:918
    1cde:	68bb      	ldr	r3, [r7, #8]
    1ce0:	68db      	ldr	r3, [r3, #12]
    1ce2:	68ba      	ldr	r2, [r7, #8]
    1ce4:	6892      	ldr	r2, [r2, #8]
    1ce6:	609a      	str	r2, [r3, #8]
/home/csx/share/gerrit/optee_os/lib/libutils/isoc/bget.c:919
    1ce8:	68bb      	ldr	r3, [r7, #8]
    1cea:	689b      	ldr	r3, [r3, #8]
    1cec:	68ba      	ldr	r2, [r7, #8]
    1cee:	68d2      	ldr	r2, [r2, #12]
    1cf0:	60da      	str	r2, [r3, #12]
/home/csx/share/gerrit/optee_os/lib/libutils/isoc/bget.c:920
    1cf2:	68fb      	ldr	r3, [r7, #12]
    1cf4:	685a      	ldr	r2, [r3, #4]
    1cf6:	68bb      	ldr	r3, [r7, #8]
    1cf8:	685b      	ldr	r3, [r3, #4]
    1cfa:	441a      	add	r2, r3
    1cfc:	68fb      	ldr	r3, [r7, #12]
    1cfe:	605a      	str	r2, [r3, #4]
/home/csx/share/gerrit/optee_os/lib/libutils/isoc/bget.c:929
    1d00:	68fb      	ldr	r3, [r7, #12]
    1d02:	685b      	ldr	r3, [r3, #4]
    1d04:	461a      	mov	r2, r3
    1d06:	68fb      	ldr	r3, [r7, #12]
    1d08:	4413      	add	r3, r2
    1d0a:	60bb      	str	r3, [r7, #8]
/home/csx/share/gerrit/optee_os/lib/libutils/isoc/bget.c:935
    1d0c:	68bb      	ldr	r3, [r7, #8]
    1d0e:	685b      	ldr	r3, [r3, #4]
    1d10:	2b00      	cmp	r3, #0
    1d12:	db0b      	blt.n	1d2c <brel+0x26c>
/home/csx/share/gerrit/optee_os/lib/libutils/isoc/bget.c:935 (discriminator 1)
    1d14:	4b2b      	ldr	r3, [pc, #172]	; (1dc4 <brel+0x304>)
    1d16:	447b      	add	r3, pc
    1d18:	4618      	mov	r0, r3
    1d1a:	4b2b      	ldr	r3, [pc, #172]	; (1dc8 <brel+0x308>)
    1d1c:	447b      	add	r3, pc
    1d1e:	4619      	mov	r1, r3
    1d20:	f240 32a7 	movw	r2, #935	; 0x3a7
    1d24:	f7ff fa68 	bl	11f8 <_assert_log>
    1d28:	f7ff fa7c 	bl	1224 <_assert_break>
/home/csx/share/gerrit/optee_os/lib/libutils/isoc/bget.c:940
    1d2c:	68fb      	ldr	r3, [r7, #12]
    1d2e:	685a      	ldr	r2, [r3, #4]
    1d30:	68bb      	ldr	r3, [r7, #8]
    1d32:	601a      	str	r2, [r3, #0]
/home/csx/share/gerrit/optee_os/lib/libutils/isoc/bget.c:967
    1d34:	3714      	adds	r7, #20
    1d36:	46bd      	mov	sp, r7
    1d38:	e9dd 4700 	ldrd	r4, r7, [sp]
    1d3c:	b002      	add	sp, #8
    1d3e:	f85d fb04 	ldr.w	pc, [sp], #4
    1d42:	bf00      	nop
    1d44:	0001310e 	.word	0x0001310e
    1d48:	00013106 	.word	0x00013106
    1d4c:	0000701e 	.word	0x0000701e
    1d50:	00006f70 	.word	0x00006f70
    1d54:	00006ffe 	.word	0x00006ffe
    1d58:	00006f44 	.word	0x00006f44
    1d5c:	00006fe6 	.word	0x00006fe6
    1d60:	00006f1c 	.word	0x00006f1c
    1d64:	00013082 	.word	0x00013082
    1d68:	0001307a 	.word	0x0001307a
    1d6c:	00013074 	.word	0x00013074
    1d70:	00006fde 	.word	0x00006fde
    1d74:	00006ee8 	.word	0x00006ee8
    1d78:	00006fb6 	.word	0x00006fb6
    1d7c:	00006eb0 	.word	0x00006eb0
    1d80:	000094b6 	.word	0x000094b6
    1d84:	000094ae 	.word	0x000094ae
    1d88:	00006fb2 	.word	0x00006fb2
    1d8c:	00006e70 	.word	0x00006e70
    1d90:	0000948e 	.word	0x0000948e
    1d94:	00009486 	.word	0x00009486
    1d98:	00006fb6 	.word	0x00006fb6
    1d9c:	00006e48 	.word	0x00006e48
    1da0:	00009464 	.word	0x00009464
    1da4:	0000945e 	.word	0x0000945e
    1da8:	00009454 	.word	0x00009454
    1dac:	00006f74 	.word	0x00006f74
    1db0:	00006dda 	.word	0x00006dda
    1db4:	00006f8c 	.word	0x00006f8c
    1db8:	00006db6 	.word	0x00006db6
    1dbc:	00006f88 	.word	0x00006f88
    1dc0:	00006d92 	.word	0x00006d92
    1dc4:	00006f5a 	.word	0x00006f5a
    1dc8:	00006d44 	.word	0x00006d44

00001dcc <bpool>:
bpool():
/home/csx/share/gerrit/optee_os/lib/libutils/isoc/bget.c:991
    1dcc:	e96d 7e02 	strd	r7, lr, [sp, #-8]!
    1dd0:	b084      	sub	sp, #16
    1dd2:	af00      	add	r7, sp, #0
    1dd4:	6078      	str	r0, [r7, #4]
    1dd6:	6039      	str	r1, [r7, #0]
/home/csx/share/gerrit/optee_os/lib/libutils/isoc/bget.c:992
    1dd8:	687b      	ldr	r3, [r7, #4]
    1dda:	60fb      	str	r3, [r7, #12]
/home/csx/share/gerrit/optee_os/lib/libutils/isoc/bget.c:996
    1ddc:	683b      	ldr	r3, [r7, #0]
    1dde:	f023 0307 	bic.w	r3, r3, #7
    1de2:	603b      	str	r3, [r7, #0]
/home/csx/share/gerrit/optee_os/lib/libutils/isoc/bget.c:1015
    1de4:	683b      	ldr	r3, [r7, #0]
    1de6:	3b08      	subs	r3, #8
    1de8:	2b00      	cmp	r3, #0
    1dea:	da0b      	bge.n	1e04 <bpool+0x38>
/home/csx/share/gerrit/optee_os/lib/libutils/isoc/bget.c:1015 (discriminator 1)
    1dec:	4b2e      	ldr	r3, [pc, #184]	; (1ea8 <bpool+0xdc>)
    1dee:	447b      	add	r3, pc
    1df0:	4618      	mov	r0, r3
    1df2:	4b2e      	ldr	r3, [pc, #184]	; (1eac <bpool+0xe0>)
    1df4:	447b      	add	r3, pc
    1df6:	4619      	mov	r1, r3
    1df8:	f240 32f7 	movw	r2, #1015	; 0x3f7
    1dfc:	f7ff f9fc 	bl	11f8 <_assert_log>
    1e00:	f7ff fa10 	bl	1224 <_assert_break>
/home/csx/share/gerrit/optee_os/lib/libutils/isoc/bget.c:1021
    1e04:	68fb      	ldr	r3, [r7, #12]
    1e06:	2200      	movs	r2, #0
    1e08:	601a      	str	r2, [r3, #0]
/home/csx/share/gerrit/optee_os/lib/libutils/isoc/bget.c:1025
    1e0a:	4b29      	ldr	r3, [pc, #164]	; (1eb0 <bpool+0xe4>)
    1e0c:	447b      	add	r3, pc
    1e0e:	68db      	ldr	r3, [r3, #12]
    1e10:	689b      	ldr	r3, [r3, #8]
    1e12:	4a28      	ldr	r2, [pc, #160]	; (1eb4 <bpool+0xe8>)
    1e14:	447a      	add	r2, pc
    1e16:	4293      	cmp	r3, r2
    1e18:	d00b      	beq.n	1e32 <bpool+0x66>
/home/csx/share/gerrit/optee_os/lib/libutils/isoc/bget.c:1025 (discriminator 1)
    1e1a:	4b27      	ldr	r3, [pc, #156]	; (1eb8 <bpool+0xec>)
    1e1c:	447b      	add	r3, pc
    1e1e:	4618      	mov	r0, r3
    1e20:	4b26      	ldr	r3, [pc, #152]	; (1ebc <bpool+0xf0>)
    1e22:	447b      	add	r3, pc
    1e24:	4619      	mov	r1, r3
    1e26:	f240 4201 	movw	r2, #1025	; 0x401
    1e2a:	f7ff f9e5 	bl	11f8 <_assert_log>
    1e2e:	f7ff f9f9 	bl	1224 <_assert_break>
/home/csx/share/gerrit/optee_os/lib/libutils/isoc/bget.c:1026
    1e32:	4b23      	ldr	r3, [pc, #140]	; (1ec0 <bpool+0xf4>)
    1e34:	447b      	add	r3, pc
    1e36:	689b      	ldr	r3, [r3, #8]
    1e38:	68db      	ldr	r3, [r3, #12]
    1e3a:	4a22      	ldr	r2, [pc, #136]	; (1ec4 <bpool+0xf8>)
    1e3c:	447a      	add	r2, pc
    1e3e:	4293      	cmp	r3, r2
    1e40:	d00b      	beq.n	1e5a <bpool+0x8e>
/home/csx/share/gerrit/optee_os/lib/libutils/isoc/bget.c:1026 (discriminator 1)
    1e42:	4b21      	ldr	r3, [pc, #132]	; (1ec8 <bpool+0xfc>)
    1e44:	447b      	add	r3, pc
    1e46:	4618      	mov	r0, r3
    1e48:	4b20      	ldr	r3, [pc, #128]	; (1ecc <bpool+0x100>)
    1e4a:	447b      	add	r3, pc
    1e4c:	4619      	mov	r1, r3
    1e4e:	f240 4202 	movw	r2, #1026	; 0x402
    1e52:	f7ff f9d1 	bl	11f8 <_assert_log>
    1e56:	f7ff f9e5 	bl	1224 <_assert_break>
/home/csx/share/gerrit/optee_os/lib/libutils/isoc/bget.c:1027
    1e5a:	68fb      	ldr	r3, [r7, #12]
    1e5c:	4a1c      	ldr	r2, [pc, #112]	; (1ed0 <bpool+0x104>)
    1e5e:	447a      	add	r2, pc
    1e60:	609a      	str	r2, [r3, #8]
/home/csx/share/gerrit/optee_os/lib/libutils/isoc/bget.c:1028
    1e62:	4b1c      	ldr	r3, [pc, #112]	; (1ed4 <bpool+0x108>)
    1e64:	447b      	add	r3, pc
    1e66:	68da      	ldr	r2, [r3, #12]
    1e68:	68fb      	ldr	r3, [r7, #12]
    1e6a:	60da      	str	r2, [r3, #12]
/home/csx/share/gerrit/optee_os/lib/libutils/isoc/bget.c:1029
    1e6c:	4b1a      	ldr	r3, [pc, #104]	; (1ed8 <bpool+0x10c>)
    1e6e:	447b      	add	r3, pc
    1e70:	461a      	mov	r2, r3
    1e72:	68fb      	ldr	r3, [r7, #12]
    1e74:	60d3      	str	r3, [r2, #12]
/home/csx/share/gerrit/optee_os/lib/libutils/isoc/bget.c:1030
    1e76:	68fb      	ldr	r3, [r7, #12]
    1e78:	68db      	ldr	r3, [r3, #12]
    1e7a:	68fa      	ldr	r2, [r7, #12]
    1e7c:	609a      	str	r2, [r3, #8]
/home/csx/share/gerrit/optee_os/lib/libutils/isoc/bget.c:1040
    1e7e:	683b      	ldr	r3, [r7, #0]
    1e80:	3b08      	subs	r3, #8
    1e82:	603b      	str	r3, [r7, #0]
/home/csx/share/gerrit/optee_os/lib/libutils/isoc/bget.c:1041
    1e84:	68fb      	ldr	r3, [r7, #12]
    1e86:	683a      	ldr	r2, [r7, #0]
    1e88:	605a      	str	r2, [r3, #4]
/home/csx/share/gerrit/optee_os/lib/libutils/isoc/bget.c:1046
    1e8a:	683b      	ldr	r3, [r7, #0]
    1e8c:	68fa      	ldr	r2, [r7, #12]
    1e8e:	4413      	add	r3, r2
    1e90:	60bb      	str	r3, [r7, #8]
/home/csx/share/gerrit/optee_os/lib/libutils/isoc/bget.c:1047
    1e92:	68bb      	ldr	r3, [r7, #8]
    1e94:	683a      	ldr	r2, [r7, #0]
    1e96:	601a      	str	r2, [r3, #0]
/home/csx/share/gerrit/optee_os/lib/libutils/isoc/bget.c:1050
    1e98:	68bb      	ldr	r3, [r7, #8]
    1e9a:	f04f 4200 	mov.w	r2, #2147483648	; 0x80000000
    1e9e:	605a      	str	r2, [r3, #4]
/home/csx/share/gerrit/optee_os/lib/libutils/isoc/bget.c:1051
    1ea0:	3710      	adds	r7, #16
    1ea2:	46bd      	mov	sp, r7
    1ea4:	bd80      	pop	{r7, pc}
    1ea6:	bf00      	nop
    1ea8:	00006e96 	.word	0x00006e96
    1eac:	00006c6c 	.word	0x00006c6c
    1eb0:	00009284 	.word	0x00009284
    1eb4:	0000927c 	.word	0x0000927c
    1eb8:	00006d80 	.word	0x00006d80
    1ebc:	00006c3e 	.word	0x00006c3e
    1ec0:	0000925c 	.word	0x0000925c
    1ec4:	00009254 	.word	0x00009254
    1ec8:	00006d84 	.word	0x00006d84
    1ecc:	00006c16 	.word	0x00006c16
    1ed0:	00009232 	.word	0x00009232
    1ed4:	0000922c 	.word	0x0000922c
    1ed8:	00009222 	.word	0x00009222

00001edc <bstats>:
bstats():
/home/csx/share/gerrit/optee_os/lib/libutils/isoc/bget.c:1060
    1edc:	e96d 7e02 	strd	r7, lr, [sp, #-8]!
    1ee0:	b086      	sub	sp, #24
    1ee2:	af00      	add	r7, sp, #0
    1ee4:	60f8      	str	r0, [r7, #12]
    1ee6:	60b9      	str	r1, [r7, #8]
    1ee8:	607a      	str	r2, [r7, #4]
    1eea:	603b      	str	r3, [r7, #0]
/home/csx/share/gerrit/optee_os/lib/libutils/isoc/bget.c:1061
    1eec:	4b23      	ldr	r3, [pc, #140]	; (1f7c <bstats+0xa0>)
    1eee:	447b      	add	r3, pc
    1ef0:	689b      	ldr	r3, [r3, #8]
    1ef2:	617b      	str	r3, [r7, #20]
/home/csx/share/gerrit/optee_os/lib/libutils/isoc/bget.c:1063
    1ef4:	4b22      	ldr	r3, [pc, #136]	; (1f80 <bstats+0xa4>)
    1ef6:	447b      	add	r3, pc
    1ef8:	681a      	ldr	r2, [r3, #0]
    1efa:	683b      	ldr	r3, [r7, #0]
    1efc:	601a      	str	r2, [r3, #0]
/home/csx/share/gerrit/optee_os/lib/libutils/isoc/bget.c:1064
    1efe:	4b21      	ldr	r3, [pc, #132]	; (1f84 <bstats+0xa8>)
    1f00:	447b      	add	r3, pc
    1f02:	681a      	ldr	r2, [r3, #0]
    1f04:	6a3b      	ldr	r3, [r7, #32]
    1f06:	601a      	str	r2, [r3, #0]
/home/csx/share/gerrit/optee_os/lib/libutils/isoc/bget.c:1065
    1f08:	4b1f      	ldr	r3, [pc, #124]	; (1f88 <bstats+0xac>)
    1f0a:	447b      	add	r3, pc
    1f0c:	681a      	ldr	r2, [r3, #0]
    1f0e:	68fb      	ldr	r3, [r7, #12]
    1f10:	601a      	str	r2, [r3, #0]
/home/csx/share/gerrit/optee_os/lib/libutils/isoc/bget.c:1066
    1f12:	68bb      	ldr	r3, [r7, #8]
    1f14:	2200      	movs	r2, #0
    1f16:	601a      	str	r2, [r3, #0]
/home/csx/share/gerrit/optee_os/lib/libutils/isoc/bget.c:1067
    1f18:	687b      	ldr	r3, [r7, #4]
    1f1a:	f04f 32ff 	mov.w	r2, #4294967295	; 0xffffffff
    1f1e:	601a      	str	r2, [r3, #0]
/home/csx/share/gerrit/optee_os/lib/libutils/isoc/bget.c:1068
    1f20:	e023      	b.n	1f6a <bstats+0x8e>
/home/csx/share/gerrit/optee_os/lib/libutils/isoc/bget.c:1069
    1f22:	697b      	ldr	r3, [r7, #20]
    1f24:	685b      	ldr	r3, [r3, #4]
    1f26:	2b00      	cmp	r3, #0
    1f28:	dc0b      	bgt.n	1f42 <bstats+0x66>
/home/csx/share/gerrit/optee_os/lib/libutils/isoc/bget.c:1069 (discriminator 1)
    1f2a:	4b18      	ldr	r3, [pc, #96]	; (1f8c <bstats+0xb0>)
    1f2c:	447b      	add	r3, pc
    1f2e:	4618      	mov	r0, r3
    1f30:	4b17      	ldr	r3, [pc, #92]	; (1f90 <bstats+0xb4>)
    1f32:	447b      	add	r3, pc
    1f34:	4619      	mov	r1, r3
    1f36:	f240 422d 	movw	r2, #1069	; 0x42d
    1f3a:	f7ff f95d 	bl	11f8 <_assert_log>
    1f3e:	f7ff f971 	bl	1224 <_assert_break>
/home/csx/share/gerrit/optee_os/lib/libutils/isoc/bget.c:1070
    1f42:	68bb      	ldr	r3, [r7, #8]
    1f44:	681a      	ldr	r2, [r3, #0]
    1f46:	697b      	ldr	r3, [r7, #20]
    1f48:	685b      	ldr	r3, [r3, #4]
    1f4a:	441a      	add	r2, r3
    1f4c:	68bb      	ldr	r3, [r7, #8]
    1f4e:	601a      	str	r2, [r3, #0]
/home/csx/share/gerrit/optee_os/lib/libutils/isoc/bget.c:1071
    1f50:	697b      	ldr	r3, [r7, #20]
    1f52:	685a      	ldr	r2, [r3, #4]
    1f54:	687b      	ldr	r3, [r7, #4]
    1f56:	681b      	ldr	r3, [r3, #0]
    1f58:	429a      	cmp	r2, r3
    1f5a:	dd03      	ble.n	1f64 <bstats+0x88>
/home/csx/share/gerrit/optee_os/lib/libutils/isoc/bget.c:1072
    1f5c:	697b      	ldr	r3, [r7, #20]
    1f5e:	685a      	ldr	r2, [r3, #4]
    1f60:	687b      	ldr	r3, [r7, #4]
    1f62:	601a      	str	r2, [r3, #0]
/home/csx/share/gerrit/optee_os/lib/libutils/isoc/bget.c:1074
    1f64:	697b      	ldr	r3, [r7, #20]
    1f66:	689b      	ldr	r3, [r3, #8]
    1f68:	617b      	str	r3, [r7, #20]
/home/csx/share/gerrit/optee_os/lib/libutils/isoc/bget.c:1068
    1f6a:	697b      	ldr	r3, [r7, #20]
    1f6c:	4a09      	ldr	r2, [pc, #36]	; (1f94 <bstats+0xb8>)
    1f6e:	447a      	add	r2, pc
    1f70:	4293      	cmp	r3, r2
    1f72:	d1d6      	bne.n	1f22 <bstats+0x46>
/home/csx/share/gerrit/optee_os/lib/libutils/isoc/bget.c:1076
    1f74:	3718      	adds	r7, #24
    1f76:	46bd      	mov	sp, r7
    1f78:	bd80      	pop	{r7, pc}
    1f7a:	bf00      	nop
    1f7c:	000091a2 	.word	0x000091a2
    1f80:	00012cea 	.word	0x00012cea
    1f84:	00012ce4 	.word	0x00012ce4
    1f88:	00012cd2 	.word	0x00012cd2
    1f8c:	00006d90 	.word	0x00006d90
    1f90:	00006b2e 	.word	0x00006b2e
    1f94:	00009122 	.word	0x00009122

00001f98 <malloc_lock>:
malloc_lock():
/home/csx/share/gerrit/optee_os/lib/libutils/isoc/bget_malloc.c:128
    1f98:	f84d 7d04 	str.w	r7, [sp, #-4]!
    1f9c:	af00      	add	r7, sp, #0
/home/csx/share/gerrit/optee_os/lib/libutils/isoc/bget_malloc.c:129
    1f9e:	46bd      	mov	sp, r7
    1fa0:	f85d 7b04 	ldr.w	r7, [sp], #4
    1fa4:	4770      	bx	lr
    1fa6:	bf00      	nop

00001fa8 <malloc_unlock>:
malloc_unlock():
/home/csx/share/gerrit/optee_os/lib/libutils/isoc/bget_malloc.c:132
    1fa8:	f84d 7d04 	str.w	r7, [sp, #-4]!
    1fac:	af00      	add	r7, sp, #0
/home/csx/share/gerrit/optee_os/lib/libutils/isoc/bget_malloc.c:133
    1fae:	46bd      	mov	sp, r7
    1fb0:	f85d 7b04 	ldr.w	r7, [sp], #4
    1fb4:	4770      	bx	lr
    1fb6:	bf00      	nop

00001fb8 <raw_malloc_save_max_alloced_size>:
raw_malloc_save_max_alloced_size():
/home/csx/share/gerrit/optee_os/lib/libutils/isoc/bget_malloc.c:152
    1fb8:	f84d 7d04 	str.w	r7, [sp, #-4]!
    1fbc:	af00      	add	r7, sp, #0
/home/csx/share/gerrit/optee_os/lib/libutils/isoc/bget_malloc.c:153
    1fbe:	4b0a      	ldr	r3, [pc, #40]	; (1fe8 <raw_malloc_save_max_alloced_size+0x30>)
    1fc0:	447b      	add	r3, pc
    1fc2:	681b      	ldr	r3, [r3, #0]
    1fc4:	461a      	mov	r2, r3
    1fc6:	4b09      	ldr	r3, [pc, #36]	; (1fec <raw_malloc_save_max_alloced_size+0x34>)
    1fc8:	447b      	add	r3, pc
    1fca:	681b      	ldr	r3, [r3, #0]
    1fcc:	429a      	cmp	r2, r3
    1fce:	d906      	bls.n	1fde <raw_malloc_save_max_alloced_size+0x26>
/home/csx/share/gerrit/optee_os/lib/libutils/isoc/bget_malloc.c:154
    1fd0:	4b07      	ldr	r3, [pc, #28]	; (1ff0 <raw_malloc_save_max_alloced_size+0x38>)
    1fd2:	447b      	add	r3, pc
    1fd4:	681b      	ldr	r3, [r3, #0]
    1fd6:	461a      	mov	r2, r3
    1fd8:	4b06      	ldr	r3, [pc, #24]	; (1ff4 <raw_malloc_save_max_alloced_size+0x3c>)
    1fda:	447b      	add	r3, pc
    1fdc:	601a      	str	r2, [r3, #0]
/home/csx/share/gerrit/optee_os/lib/libutils/isoc/bget_malloc.c:155
    1fde:	46bd      	mov	sp, r7
    1fe0:	f85d 7b04 	ldr.w	r7, [sp], #4
    1fe4:	4770      	bx	lr
    1fe6:	bf00      	nop
    1fe8:	00012c1c 	.word	0x00012c1c
    1fec:	00012c28 	.word	0x00012c28
    1ff0:	00012c0a 	.word	0x00012c0a
    1ff4:	00012c16 	.word	0x00012c16

00001ff8 <malloc_reset_max_allocated>:
malloc_reset_max_allocated():
/home/csx/share/gerrit/optee_os/lib/libutils/isoc/bget_malloc.c:158
    1ff8:	e96d 7e02 	strd	r7, lr, [sp, #-8]!
    1ffc:	af00      	add	r7, sp, #0
/home/csx/share/gerrit/optee_os/lib/libutils/isoc/bget_malloc.c:159
    1ffe:	f7ff ffcb 	bl	1f98 <malloc_lock>
/home/csx/share/gerrit/optee_os/lib/libutils/isoc/bget_malloc.c:160
    2002:	4b04      	ldr	r3, [pc, #16]	; (2014 <malloc_reset_max_allocated+0x1c>)
    2004:	447b      	add	r3, pc
    2006:	461a      	mov	r2, r3
    2008:	2300      	movs	r3, #0
    200a:	6013      	str	r3, [r2, #0]
/home/csx/share/gerrit/optee_os/lib/libutils/isoc/bget_malloc.c:161
    200c:	f7ff ffcc 	bl	1fa8 <malloc_unlock>
/home/csx/share/gerrit/optee_os/lib/libutils/isoc/bget_malloc.c:162
    2010:	46bd      	mov	sp, r7
    2012:	bd80      	pop	{r7, pc}
    2014:	00012bec 	.word	0x00012bec

00002018 <malloc_get_max_allocated>:
malloc_get_max_allocated():
/home/csx/share/gerrit/optee_os/lib/libutils/isoc/bget_malloc.c:165
    2018:	e96d 7e02 	strd	r7, lr, [sp, #-8]!
    201c:	b082      	sub	sp, #8
    201e:	af00      	add	r7, sp, #0
/home/csx/share/gerrit/optee_os/lib/libutils/isoc/bget_malloc.c:168
    2020:	f7ff ffba 	bl	1f98 <malloc_lock>
/home/csx/share/gerrit/optee_os/lib/libutils/isoc/bget_malloc.c:169
    2024:	4b05      	ldr	r3, [pc, #20]	; (203c <malloc_get_max_allocated+0x24>)
    2026:	447b      	add	r3, pc
    2028:	681b      	ldr	r3, [r3, #0]
    202a:	607b      	str	r3, [r7, #4]
/home/csx/share/gerrit/optee_os/lib/libutils/isoc/bget_malloc.c:170
    202c:	f7ff ffbc 	bl	1fa8 <malloc_unlock>
/home/csx/share/gerrit/optee_os/lib/libutils/isoc/bget_malloc.c:171
    2030:	687b      	ldr	r3, [r7, #4]
/home/csx/share/gerrit/optee_os/lib/libutils/isoc/bget_malloc.c:172
    2032:	4618      	mov	r0, r3
    2034:	3708      	adds	r7, #8
    2036:	46bd      	mov	sp, r7
    2038:	bd80      	pop	{r7, pc}
    203a:	bf00      	nop
    203c:	00012bca 	.word	0x00012bca

00002040 <malloc_get_allocated>:
malloc_get_allocated():
/home/csx/share/gerrit/optee_os/lib/libutils/isoc/bget_malloc.c:175
    2040:	e96d 7e02 	strd	r7, lr, [sp, #-8]!
    2044:	b082      	sub	sp, #8
    2046:	af00      	add	r7, sp, #0
/home/csx/share/gerrit/optee_os/lib/libutils/isoc/bget_malloc.c:178
    2048:	f7ff ffa6 	bl	1f98 <malloc_lock>
/home/csx/share/gerrit/optee_os/lib/libutils/isoc/bget_malloc.c:179
    204c:	4b05      	ldr	r3, [pc, #20]	; (2064 <malloc_get_allocated+0x24>)
    204e:	447b      	add	r3, pc
    2050:	681b      	ldr	r3, [r3, #0]
    2052:	607b      	str	r3, [r7, #4]
/home/csx/share/gerrit/optee_os/lib/libutils/isoc/bget_malloc.c:180
    2054:	f7ff ffa8 	bl	1fa8 <malloc_unlock>
/home/csx/share/gerrit/optee_os/lib/libutils/isoc/bget_malloc.c:181
    2058:	687b      	ldr	r3, [r7, #4]
/home/csx/share/gerrit/optee_os/lib/libutils/isoc/bget_malloc.c:182
    205a:	4618      	mov	r0, r3
    205c:	3708      	adds	r7, #8
    205e:	46bd      	mov	sp, r7
    2060:	bd80      	pop	{r7, pc}
    2062:	bf00      	nop
    2064:	00012b8e 	.word	0x00012b8e

00002068 <malloc_get_heap_size>:
malloc_get_heap_size():
/home/csx/share/gerrit/optee_os/lib/libutils/isoc/bget_malloc.c:206
    2068:	e96d 7e02 	strd	r7, lr, [sp, #-8]!
    206c:	b082      	sub	sp, #8
    206e:	af00      	add	r7, sp, #0
/home/csx/share/gerrit/optee_os/lib/libutils/isoc/bget_malloc.c:208
    2070:	2300      	movs	r3, #0
    2072:	603b      	str	r3, [r7, #0]
/home/csx/share/gerrit/optee_os/lib/libutils/isoc/bget_malloc.c:210
    2074:	f7ff ff90 	bl	1f98 <malloc_lock>
/home/csx/share/gerrit/optee_os/lib/libutils/isoc/bget_malloc.c:212
    2078:	2300      	movs	r3, #0
    207a:	607b      	str	r3, [r7, #4]
    207c:	e00c      	b.n	2098 <malloc_get_heap_size+0x30>
/home/csx/share/gerrit/optee_os/lib/libutils/isoc/bget_malloc.c:213 (discriminator 3)
    207e:	4b0d      	ldr	r3, [pc, #52]	; (20b4 <malloc_get_heap_size+0x4c>)
    2080:	447b      	add	r3, pc
    2082:	681a      	ldr	r2, [r3, #0]
    2084:	687b      	ldr	r3, [r7, #4]
    2086:	00db      	lsls	r3, r3, #3
    2088:	4413      	add	r3, r2
    208a:	685b      	ldr	r3, [r3, #4]
    208c:	683a      	ldr	r2, [r7, #0]
    208e:	4413      	add	r3, r2
    2090:	603b      	str	r3, [r7, #0]
/home/csx/share/gerrit/optee_os/lib/libutils/isoc/bget_malloc.c:212 (discriminator 3)
    2092:	687b      	ldr	r3, [r7, #4]
    2094:	3301      	adds	r3, #1
    2096:	607b      	str	r3, [r7, #4]
/home/csx/share/gerrit/optee_os/lib/libutils/isoc/bget_malloc.c:212 (discriminator 1)
    2098:	4b07      	ldr	r3, [pc, #28]	; (20b8 <malloc_get_heap_size+0x50>)
    209a:	447b      	add	r3, pc
    209c:	681b      	ldr	r3, [r3, #0]
    209e:	687a      	ldr	r2, [r7, #4]
    20a0:	429a      	cmp	r2, r3
    20a2:	d3ec      	bcc.n	207e <malloc_get_heap_size+0x16>
/home/csx/share/gerrit/optee_os/lib/libutils/isoc/bget_malloc.c:215
    20a4:	f7ff ff80 	bl	1fa8 <malloc_unlock>
/home/csx/share/gerrit/optee_os/lib/libutils/isoc/bget_malloc.c:217
    20a8:	683b      	ldr	r3, [r7, #0]
/home/csx/share/gerrit/optee_os/lib/libutils/isoc/bget_malloc.c:218
    20aa:	4618      	mov	r0, r3
    20ac:	3708      	adds	r7, #8
    20ae:	46bd      	mov	sp, r7
    20b0:	bd80      	pop	{r7, pc}
    20b2:	bf00      	nop
    20b4:	00012b68 	.word	0x00012b68
    20b8:	00012b52 	.word	0x00012b52

000020bc <raw_malloc_validate_pools>:
raw_malloc_validate_pools():
/home/csx/share/gerrit/optee_os/lib/libutils/isoc/bget_malloc.c:230
    20bc:	f84d 7d04 	str.w	r7, [sp, #-4]!
    20c0:	af00      	add	r7, sp, #0
/home/csx/share/gerrit/optee_os/lib/libutils/isoc/bget_malloc.c:231
    20c2:	46bd      	mov	sp, r7
    20c4:	f85d 7b04 	ldr.w	r7, [sp], #4
    20c8:	4770      	bx	lr
    20ca:	bf00      	nop

000020cc <bpool_foreach_iterator_init>:
bpool_foreach_iterator_init():
/home/csx/share/gerrit/optee_os/lib/libutils/isoc/bget_malloc.c:240
    20cc:	f84d 7d04 	str.w	r7, [sp, #-4]!
    20d0:	b083      	sub	sp, #12
    20d2:	af00      	add	r7, sp, #0
    20d4:	6078      	str	r0, [r7, #4]
/home/csx/share/gerrit/optee_os/lib/libutils/isoc/bget_malloc.c:241
    20d6:	687b      	ldr	r3, [r7, #4]
    20d8:	2200      	movs	r2, #0
    20da:	605a      	str	r2, [r3, #4]
/home/csx/share/gerrit/optee_os/lib/libutils/isoc/bget_malloc.c:242
    20dc:	4b05      	ldr	r3, [pc, #20]	; (20f4 <bpool_foreach_iterator_init+0x28>)
    20de:	447b      	add	r3, pc
    20e0:	681b      	ldr	r3, [r3, #0]
    20e2:	681a      	ldr	r2, [r3, #0]
    20e4:	687b      	ldr	r3, [r7, #4]
    20e6:	601a      	str	r2, [r3, #0]
/home/csx/share/gerrit/optee_os/lib/libutils/isoc/bget_malloc.c:243
    20e8:	370c      	adds	r7, #12
    20ea:	46bd      	mov	sp, r7
    20ec:	f85d 7b04 	ldr.w	r7, [sp], #4
    20f0:	4770      	bx	lr
    20f2:	bf00      	nop
    20f4:	00012b0a 	.word	0x00012b0a

000020f8 <bpool_foreach_pool>:
bpool_foreach_pool():
/home/csx/share/gerrit/optee_os/lib/libutils/isoc/bget_malloc.c:247
    20f8:	e96d 7e02 	strd	r7, lr, [sp, #-8]!
    20fc:	b086      	sub	sp, #24
    20fe:	af00      	add	r7, sp, #0
    2100:	60f8      	str	r0, [r7, #12]
    2102:	60b9      	str	r1, [r7, #8]
    2104:	607a      	str	r2, [r7, #4]
    2106:	603b      	str	r3, [r7, #0]
/home/csx/share/gerrit/optee_os/lib/libutils/isoc/bget_malloc.c:248
    2108:	68fb      	ldr	r3, [r7, #12]
    210a:	681b      	ldr	r3, [r3, #0]
    210c:	613b      	str	r3, [r7, #16]
/home/csx/share/gerrit/optee_os/lib/libutils/isoc/bget_malloc.c:249
    210e:	693b      	ldr	r3, [r7, #16]
    2110:	685b      	ldr	r3, [r3, #4]
    2112:	617b      	str	r3, [r7, #20]
/home/csx/share/gerrit/optee_os/lib/libutils/isoc/bget_malloc.c:251
    2114:	697b      	ldr	r3, [r7, #20]
    2116:	f1b3 4f00 	cmp.w	r3, #2147483648	; 0x80000000
    211a:	d101      	bne.n	2120 <bpool_foreach_pool+0x28>
/home/csx/share/gerrit/optee_os/lib/libutils/isoc/bget_malloc.c:252
    211c:	2300      	movs	r3, #0
    211e:	e040      	b.n	21a2 <bpool_foreach_pool+0xaa>
/home/csx/share/gerrit/optee_os/lib/libutils/isoc/bget_malloc.c:254
    2120:	697b      	ldr	r3, [r7, #20]
    2122:	2b00      	cmp	r3, #0
    2124:	da06      	bge.n	2134 <bpool_foreach_pool+0x3c>
/home/csx/share/gerrit/optee_os/lib/libutils/isoc/bget_malloc.c:256
    2126:	697b      	ldr	r3, [r7, #20]
    2128:	425b      	negs	r3, r3
    212a:	617b      	str	r3, [r7, #20]
/home/csx/share/gerrit/optee_os/lib/libutils/isoc/bget_malloc.c:258
    212c:	683b      	ldr	r3, [r7, #0]
    212e:	2200      	movs	r2, #0
    2130:	701a      	strb	r2, [r3, #0]
    2132:	e026      	b.n	2182 <bpool_foreach_pool+0x8a>
/home/csx/share/gerrit/optee_os/lib/libutils/isoc/bget_malloc.c:261
    2134:	683b      	ldr	r3, [r7, #0]
    2136:	2201      	movs	r2, #1
    2138:	701a      	strb	r2, [r3, #0]
/home/csx/share/gerrit/optee_os/lib/libutils/isoc/bget_malloc.c:264
    213a:	693b      	ldr	r3, [r7, #16]
    213c:	68db      	ldr	r3, [r3, #12]
    213e:	689a      	ldr	r2, [r3, #8]
    2140:	693b      	ldr	r3, [r7, #16]
    2142:	429a      	cmp	r2, r3
    2144:	d00b      	beq.n	215e <bpool_foreach_pool+0x66>
/home/csx/share/gerrit/optee_os/lib/libutils/isoc/bget_malloc.c:264 (discriminator 1)
    2146:	4b19      	ldr	r3, [pc, #100]	; (21ac <bpool_foreach_pool+0xb4>)
    2148:	447b      	add	r3, pc
    214a:	4618      	mov	r0, r3
    214c:	4b18      	ldr	r3, [pc, #96]	; (21b0 <bpool_foreach_pool+0xb8>)
    214e:	447b      	add	r3, pc
    2150:	4619      	mov	r1, r3
    2152:	f44f 7284 	mov.w	r2, #264	; 0x108
    2156:	f7ff f84f 	bl	11f8 <_assert_log>
    215a:	f7ff f863 	bl	1224 <_assert_break>
/home/csx/share/gerrit/optee_os/lib/libutils/isoc/bget_malloc.c:265
    215e:	693b      	ldr	r3, [r7, #16]
    2160:	689b      	ldr	r3, [r3, #8]
    2162:	68da      	ldr	r2, [r3, #12]
    2164:	693b      	ldr	r3, [r7, #16]
    2166:	429a      	cmp	r2, r3
    2168:	d00b      	beq.n	2182 <bpool_foreach_pool+0x8a>
/home/csx/share/gerrit/optee_os/lib/libutils/isoc/bget_malloc.c:265 (discriminator 1)
    216a:	4b12      	ldr	r3, [pc, #72]	; (21b4 <bpool_foreach_pool+0xbc>)
    216c:	447b      	add	r3, pc
    216e:	4618      	mov	r0, r3
    2170:	4b11      	ldr	r3, [pc, #68]	; (21b8 <bpool_foreach_pool+0xc0>)
    2172:	447b      	add	r3, pc
    2174:	4619      	mov	r1, r3
    2176:	f240 1209 	movw	r2, #265	; 0x109
    217a:	f7ff f83d 	bl	11f8 <_assert_log>
    217e:	f7ff f851 	bl	1224 <_assert_break>
/home/csx/share/gerrit/optee_os/lib/libutils/isoc/bget_malloc.c:268
    2182:	693b      	ldr	r3, [r7, #16]
    2184:	f103 0208 	add.w	r2, r3, #8
    2188:	68bb      	ldr	r3, [r7, #8]
    218a:	601a      	str	r2, [r3, #0]
/home/csx/share/gerrit/optee_os/lib/libutils/isoc/bget_malloc.c:269
    218c:	697b      	ldr	r3, [r7, #20]
    218e:	f1a3 0208 	sub.w	r2, r3, #8
    2192:	687b      	ldr	r3, [r7, #4]
    2194:	601a      	str	r2, [r3, #0]
/home/csx/share/gerrit/optee_os/lib/libutils/isoc/bget_malloc.c:271
    2196:	697b      	ldr	r3, [r7, #20]
    2198:	693a      	ldr	r2, [r7, #16]
    219a:	441a      	add	r2, r3
    219c:	68fb      	ldr	r3, [r7, #12]
    219e:	601a      	str	r2, [r3, #0]
/home/csx/share/gerrit/optee_os/lib/libutils/isoc/bget_malloc.c:272
    21a0:	2301      	movs	r3, #1
/home/csx/share/gerrit/optee_os/lib/libutils/isoc/bget_malloc.c:273
    21a2:	4618      	mov	r0, r3
    21a4:	3718      	adds	r7, #24
    21a6:	46bd      	mov	sp, r7
    21a8:	bd80      	pop	{r7, pc}
    21aa:	bf00      	nop
    21ac:	0000696c 	.word	0x0000696c
    21b0:	00006b7e 	.word	0x00006b7e
    21b4:	00006964 	.word	0x00006964
    21b8:	00006b5a 	.word	0x00006b5a

000021bc <bpool_foreach>:
bpool_foreach():
/home/csx/share/gerrit/optee_os/lib/libutils/isoc/bget_malloc.c:276
    21bc:	e96d 7e02 	strd	r7, lr, [sp, #-8]!
    21c0:	b084      	sub	sp, #16
    21c2:	af00      	add	r7, sp, #0
    21c4:	6078      	str	r0, [r7, #4]
    21c6:	6039      	str	r1, [r7, #0]
/home/csx/share/gerrit/optee_os/lib/libutils/isoc/bget_malloc.c:281
    21c8:	f107 020c 	add.w	r2, r7, #12
    21cc:	f107 030b 	add.w	r3, r7, #11
    21d0:	6878      	ldr	r0, [r7, #4]
    21d2:	6839      	ldr	r1, [r7, #0]
    21d4:	f7ff ff90 	bl	20f8 <bpool_foreach_pool>
    21d8:	4603      	mov	r3, r0
    21da:	2b00      	cmp	r3, #0
    21dc:	d004      	beq.n	21e8 <bpool_foreach+0x2c>
/home/csx/share/gerrit/optee_os/lib/libutils/isoc/bget_malloc.c:282
    21de:	7afb      	ldrb	r3, [r7, #11]
    21e0:	2b00      	cmp	r3, #0
    21e2:	d11a      	bne.n	221a <bpool_foreach+0x5e>
/home/csx/share/gerrit/optee_os/lib/libutils/isoc/bget_malloc.c:284
    21e4:	2301      	movs	r3, #1
    21e6:	e019      	b.n	221c <bpool_foreach+0x60>
/home/csx/share/gerrit/optee_os/lib/libutils/isoc/bget_malloc.c:287
    21e8:	687b      	ldr	r3, [r7, #4]
    21ea:	685b      	ldr	r3, [r3, #4]
    21ec:	1c5a      	adds	r2, r3, #1
    21ee:	4b0d      	ldr	r3, [pc, #52]	; (2224 <bpool_foreach+0x68>)
    21f0:	447b      	add	r3, pc
    21f2:	681b      	ldr	r3, [r3, #0]
    21f4:	429a      	cmp	r2, r3
    21f6:	d301      	bcc.n	21fc <bpool_foreach+0x40>
/home/csx/share/gerrit/optee_os/lib/libutils/isoc/bget_malloc.c:288
    21f8:	2300      	movs	r3, #0
    21fa:	e00f      	b.n	221c <bpool_foreach+0x60>
/home/csx/share/gerrit/optee_os/lib/libutils/isoc/bget_malloc.c:290
    21fc:	687b      	ldr	r3, [r7, #4]
    21fe:	685b      	ldr	r3, [r3, #4]
    2200:	1c5a      	adds	r2, r3, #1
    2202:	687b      	ldr	r3, [r7, #4]
    2204:	605a      	str	r2, [r3, #4]
/home/csx/share/gerrit/optee_os/lib/libutils/isoc/bget_malloc.c:291
    2206:	4b08      	ldr	r3, [pc, #32]	; (2228 <bpool_foreach+0x6c>)
    2208:	447b      	add	r3, pc
    220a:	681a      	ldr	r2, [r3, #0]
    220c:	687b      	ldr	r3, [r7, #4]
    220e:	685b      	ldr	r3, [r3, #4]
    2210:	00db      	lsls	r3, r3, #3
    2212:	4413      	add	r3, r2
    2214:	681a      	ldr	r2, [r3, #0]
    2216:	687b      	ldr	r3, [r7, #4]
    2218:	601a      	str	r2, [r3, #0]
/home/csx/share/gerrit/optee_os/lib/libutils/isoc/bget_malloc.c:292 (discriminator 1)
    221a:	e7d5      	b.n	21c8 <bpool_foreach+0xc>
/home/csx/share/gerrit/optee_os/lib/libutils/isoc/bget_malloc.c:293
    221c:	4618      	mov	r0, r3
    221e:	3710      	adds	r7, #16
    2220:	46bd      	mov	sp, r7
    2222:	bd80      	pop	{r7, pc}
    2224:	000129fc 	.word	0x000129fc
    2228:	000129e0 	.word	0x000129e0

0000222c <raw_malloc>:
raw_malloc():
/home/csx/share/gerrit/optee_os/lib/libutils/isoc/bget_malloc.c:301
    222c:	e96d 7e02 	strd	r7, lr, [sp, #-8]!
    2230:	b086      	sub	sp, #24
    2232:	af00      	add	r7, sp, #0
    2234:	60f8      	str	r0, [r7, #12]
    2236:	60b9      	str	r1, [r7, #8]
    2238:	607a      	str	r2, [r7, #4]
/home/csx/share/gerrit/optee_os/lib/libutils/isoc/bget_malloc.c:303
    223a:	68fa      	ldr	r2, [r7, #12]
    223c:	68bb      	ldr	r3, [r7, #8]
    223e:	441a      	add	r2, r3
    2240:	687b      	ldr	r3, [r7, #4]
    2242:	4413      	add	r3, r2
    2244:	617b      	str	r3, [r7, #20]
/home/csx/share/gerrit/optee_os/lib/libutils/isoc/bget_malloc.c:310
    2246:	bf00      	nop
/home/csx/share/gerrit/optee_os/lib/libutils/isoc/bget_malloc.c:312
    2248:	f7ff ff38 	bl	20bc <raw_malloc_validate_pools>
/home/csx/share/gerrit/optee_os/lib/libutils/isoc/bget_malloc.c:315
    224c:	697a      	ldr	r2, [r7, #20]
    224e:	687b      	ldr	r3, [r7, #4]
    2250:	429a      	cmp	r2, r3
    2252:	d201      	bcs.n	2258 <raw_malloc+0x2c>
/home/csx/share/gerrit/optee_os/lib/libutils/isoc/bget_malloc.c:316
    2254:	2300      	movs	r3, #0
    2256:	e00d      	b.n	2274 <raw_malloc+0x48>
/home/csx/share/gerrit/optee_os/lib/libutils/isoc/bget_malloc.c:319
    2258:	697b      	ldr	r3, [r7, #20]
    225a:	2b00      	cmp	r3, #0
    225c:	d102      	bne.n	2264 <raw_malloc+0x38>
/home/csx/share/gerrit/optee_os/lib/libutils/isoc/bget_malloc.c:320
    225e:	697b      	ldr	r3, [r7, #20]
    2260:	3301      	adds	r3, #1
    2262:	617b      	str	r3, [r7, #20]
/home/csx/share/gerrit/optee_os/lib/libutils/isoc/bget_malloc.c:322
    2264:	697b      	ldr	r3, [r7, #20]
    2266:	4618      	mov	r0, r3
    2268:	f7ff fa96 	bl	1798 <bget>
    226c:	6138      	str	r0, [r7, #16]
/home/csx/share/gerrit/optee_os/lib/libutils/isoc/bget_malloc.c:323
    226e:	f7ff fea3 	bl	1fb8 <raw_malloc_save_max_alloced_size>
/home/csx/share/gerrit/optee_os/lib/libutils/isoc/bget_malloc.c:325
    2272:	693b      	ldr	r3, [r7, #16]
/home/csx/share/gerrit/optee_os/lib/libutils/isoc/bget_malloc.c:326
    2274:	4618      	mov	r0, r3
    2276:	3718      	adds	r7, #24
    2278:	46bd      	mov	sp, r7
    227a:	bd80      	pop	{r7, pc}

0000227c <raw_free>:
raw_free():
/home/csx/share/gerrit/optee_os/lib/libutils/isoc/bget_malloc.c:329
    227c:	e96d 7e02 	strd	r7, lr, [sp, #-8]!
    2280:	b082      	sub	sp, #8
    2282:	af00      	add	r7, sp, #0
    2284:	6078      	str	r0, [r7, #4]
/home/csx/share/gerrit/optee_os/lib/libutils/isoc/bget_malloc.c:330
    2286:	f7ff ff19 	bl	20bc <raw_malloc_validate_pools>
/home/csx/share/gerrit/optee_os/lib/libutils/isoc/bget_malloc.c:332
    228a:	687b      	ldr	r3, [r7, #4]
    228c:	2b00      	cmp	r3, #0
    228e:	d002      	beq.n	2296 <raw_free+0x1a>
/home/csx/share/gerrit/optee_os/lib/libutils/isoc/bget_malloc.c:333
    2290:	6878      	ldr	r0, [r7, #4]
    2292:	f7ff fc15 	bl	1ac0 <brel>
/home/csx/share/gerrit/optee_os/lib/libutils/isoc/bget_malloc.c:334
    2296:	3708      	adds	r7, #8
    2298:	46bd      	mov	sp, r7
    229a:	bd80      	pop	{r7, pc}

0000229c <raw_calloc>:
raw_calloc():
/home/csx/share/gerrit/optee_os/lib/libutils/isoc/bget_malloc.c:338
    229c:	e96d 7e02 	strd	r7, lr, [sp, #-8]!
    22a0:	b086      	sub	sp, #24
    22a2:	af00      	add	r7, sp, #0
    22a4:	60f8      	str	r0, [r7, #12]
    22a6:	60b9      	str	r1, [r7, #8]
    22a8:	607a      	str	r2, [r7, #4]
    22aa:	603b      	str	r3, [r7, #0]
/home/csx/share/gerrit/optee_os/lib/libutils/isoc/bget_malloc.c:339
    22ac:	68fa      	ldr	r2, [r7, #12]
    22ae:	68bb      	ldr	r3, [r7, #8]
    22b0:	441a      	add	r2, r3
    22b2:	687b      	ldr	r3, [r7, #4]
    22b4:	6839      	ldr	r1, [r7, #0]
    22b6:	fb01 f303 	mul.w	r3, r1, r3
    22ba:	4413      	add	r3, r2
    22bc:	617b      	str	r3, [r7, #20]
/home/csx/share/gerrit/optee_os/lib/libutils/isoc/bget_malloc.c:342
    22be:	f7ff fefd 	bl	20bc <raw_malloc_validate_pools>
/home/csx/share/gerrit/optee_os/lib/libutils/isoc/bget_malloc.c:345
    22c2:	697a      	ldr	r2, [r7, #20]
    22c4:	687b      	ldr	r3, [r7, #4]
    22c6:	429a      	cmp	r2, r3
    22c8:	d303      	bcc.n	22d2 <raw_calloc+0x36>
/home/csx/share/gerrit/optee_os/lib/libutils/isoc/bget_malloc.c:345 (discriminator 1)
    22ca:	697a      	ldr	r2, [r7, #20]
    22cc:	683b      	ldr	r3, [r7, #0]
    22ce:	429a      	cmp	r2, r3
    22d0:	d201      	bcs.n	22d6 <raw_calloc+0x3a>
/home/csx/share/gerrit/optee_os/lib/libutils/isoc/bget_malloc.c:346
    22d2:	2300      	movs	r3, #0
    22d4:	e00d      	b.n	22f2 <raw_calloc+0x56>
/home/csx/share/gerrit/optee_os/lib/libutils/isoc/bget_malloc.c:349
    22d6:	697b      	ldr	r3, [r7, #20]
    22d8:	2b00      	cmp	r3, #0
    22da:	d102      	bne.n	22e2 <raw_calloc+0x46>
/home/csx/share/gerrit/optee_os/lib/libutils/isoc/bget_malloc.c:350
    22dc:	697b      	ldr	r3, [r7, #20]
    22de:	3301      	adds	r3, #1
    22e0:	617b      	str	r3, [r7, #20]
/home/csx/share/gerrit/optee_os/lib/libutils/isoc/bget_malloc.c:352
    22e2:	697b      	ldr	r3, [r7, #20]
    22e4:	4618      	mov	r0, r3
    22e6:	f7ff fb67 	bl	19b8 <bgetz>
    22ea:	6138      	str	r0, [r7, #16]
/home/csx/share/gerrit/optee_os/lib/libutils/isoc/bget_malloc.c:353
    22ec:	f7ff fe64 	bl	1fb8 <raw_malloc_save_max_alloced_size>
/home/csx/share/gerrit/optee_os/lib/libutils/isoc/bget_malloc.c:355
    22f0:	693b      	ldr	r3, [r7, #16]
/home/csx/share/gerrit/optee_os/lib/libutils/isoc/bget_malloc.c:356
    22f2:	4618      	mov	r0, r3
    22f4:	3718      	adds	r7, #24
    22f6:	46bd      	mov	sp, r7
    22f8:	bd80      	pop	{r7, pc}
    22fa:	bf00      	nop

000022fc <raw_realloc>:
raw_realloc():
/home/csx/share/gerrit/optee_os/lib/libutils/isoc/bget_malloc.c:360
    22fc:	e96d 7e02 	strd	r7, lr, [sp, #-8]!
    2300:	b086      	sub	sp, #24
    2302:	af00      	add	r7, sp, #0
    2304:	60f8      	str	r0, [r7, #12]
    2306:	60b9      	str	r1, [r7, #8]
    2308:	607a      	str	r2, [r7, #4]
    230a:	603b      	str	r3, [r7, #0]
/home/csx/share/gerrit/optee_os/lib/libutils/isoc/bget_malloc.c:361
    230c:	68ba      	ldr	r2, [r7, #8]
    230e:	687b      	ldr	r3, [r7, #4]
    2310:	441a      	add	r2, r3
    2312:	683b      	ldr	r3, [r7, #0]
    2314:	4413      	add	r3, r2
    2316:	617b      	str	r3, [r7, #20]
/home/csx/share/gerrit/optee_os/lib/libutils/isoc/bget_malloc.c:365
    2318:	697a      	ldr	r2, [r7, #20]
    231a:	683b      	ldr	r3, [r7, #0]
    231c:	429a      	cmp	r2, r3
    231e:	d201      	bcs.n	2324 <raw_realloc+0x28>
/home/csx/share/gerrit/optee_os/lib/libutils/isoc/bget_malloc.c:366
    2320:	2300      	movs	r3, #0
    2322:	e010      	b.n	2346 <raw_realloc+0x4a>
/home/csx/share/gerrit/optee_os/lib/libutils/isoc/bget_malloc.c:368
    2324:	f7ff feca 	bl	20bc <raw_malloc_validate_pools>
/home/csx/share/gerrit/optee_os/lib/libutils/isoc/bget_malloc.c:371
    2328:	697b      	ldr	r3, [r7, #20]
    232a:	2b00      	cmp	r3, #0
    232c:	d102      	bne.n	2334 <raw_realloc+0x38>
/home/csx/share/gerrit/optee_os/lib/libutils/isoc/bget_malloc.c:372
    232e:	697b      	ldr	r3, [r7, #20]
    2330:	3301      	adds	r3, #1
    2332:	617b      	str	r3, [r7, #20]
/home/csx/share/gerrit/optee_os/lib/libutils/isoc/bget_malloc.c:374
    2334:	697b      	ldr	r3, [r7, #20]
    2336:	68f8      	ldr	r0, [r7, #12]
    2338:	4619      	mov	r1, r3
    233a:	f7ff fb7d 	bl	1a38 <bgetr>
    233e:	6138      	str	r0, [r7, #16]
/home/csx/share/gerrit/optee_os/lib/libutils/isoc/bget_malloc.c:375
    2340:	f7ff fe3a 	bl	1fb8 <raw_malloc_save_max_alloced_size>
/home/csx/share/gerrit/optee_os/lib/libutils/isoc/bget_malloc.c:377
    2344:	693b      	ldr	r3, [r7, #16]
/home/csx/share/gerrit/optee_os/lib/libutils/isoc/bget_malloc.c:378
    2346:	4618      	mov	r0, r3
    2348:	3718      	adds	r7, #24
    234a:	46bd      	mov	sp, r7
    234c:	bd80      	pop	{r7, pc}
    234e:	bf00      	nop

00002350 <create_free_block>:
create_free_block():
/home/csx/share/gerrit/optee_os/lib/libutils/isoc/bget_malloc.c:381
    2350:	e96d 7e02 	strd	r7, lr, [sp, #-8]!
    2354:	b084      	sub	sp, #16
    2356:	af00      	add	r7, sp, #0
    2358:	60f8      	str	r0, [r7, #12]
    235a:	60b9      	str	r1, [r7, #8]
    235c:	607a      	str	r2, [r7, #4]
/home/csx/share/gerrit/optee_os/lib/libutils/isoc/bget_malloc.c:382
    235e:	68bb      	ldr	r3, [r7, #8]
    2360:	68fa      	ldr	r2, [r7, #12]
    2362:	441a      	add	r2, r3
    2364:	687b      	ldr	r3, [r7, #4]
    2366:	429a      	cmp	r2, r3
    2368:	d00b      	beq.n	2382 <create_free_block+0x32>
/home/csx/share/gerrit/optee_os/lib/libutils/isoc/bget_malloc.c:382 (discriminator 1)
    236a:	4b39      	ldr	r3, [pc, #228]	; (2450 <create_free_block+0x100>)
    236c:	447b      	add	r3, pc
    236e:	4618      	mov	r0, r3
    2370:	4b38      	ldr	r3, [pc, #224]	; (2454 <create_free_block+0x104>)
    2372:	447b      	add	r3, pc
    2374:	4619      	mov	r1, r3
    2376:	f44f 72bf 	mov.w	r2, #382	; 0x17e
    237a:	f7fe ff3d 	bl	11f8 <_assert_log>
    237e:	f7fe ff51 	bl	1224 <_assert_break>
/home/csx/share/gerrit/optee_os/lib/libutils/isoc/bget_malloc.c:383
    2382:	687b      	ldr	r3, [r7, #4]
    2384:	685b      	ldr	r3, [r3, #4]
    2386:	2b00      	cmp	r3, #0
    2388:	db0b      	blt.n	23a2 <create_free_block+0x52>
/home/csx/share/gerrit/optee_os/lib/libutils/isoc/bget_malloc.c:383 (discriminator 1)
    238a:	4b33      	ldr	r3, [pc, #204]	; (2458 <create_free_block+0x108>)
    238c:	447b      	add	r3, pc
    238e:	4618      	mov	r0, r3
    2390:	4b32      	ldr	r3, [pc, #200]	; (245c <create_free_block+0x10c>)
    2392:	447b      	add	r3, pc
    2394:	4619      	mov	r1, r3
    2396:	f240 127f 	movw	r2, #383	; 0x17f
    239a:	f7fe ff2d 	bl	11f8 <_assert_log>
    239e:	f7fe ff41 	bl	1224 <_assert_break>
/home/csx/share/gerrit/optee_os/lib/libutils/isoc/bget_malloc.c:385
    23a2:	687b      	ldr	r3, [r7, #4]
    23a4:	681b      	ldr	r3, [r3, #0]
    23a6:	2b00      	cmp	r3, #0
    23a8:	d00b      	beq.n	23c2 <create_free_block+0x72>
/home/csx/share/gerrit/optee_os/lib/libutils/isoc/bget_malloc.c:385 (discriminator 1)
    23aa:	4b2d      	ldr	r3, [pc, #180]	; (2460 <create_free_block+0x110>)
    23ac:	447b      	add	r3, pc
    23ae:	4618      	mov	r0, r3
    23b0:	4b2c      	ldr	r3, [pc, #176]	; (2464 <create_free_block+0x114>)
    23b2:	447b      	add	r3, pc
    23b4:	4619      	mov	r1, r3
    23b6:	f240 1281 	movw	r2, #385	; 0x181
    23ba:	f7fe ff1d 	bl	11f8 <_assert_log>
    23be:	f7fe ff31 	bl	1224 <_assert_break>
/home/csx/share/gerrit/optee_os/lib/libutils/isoc/bget_malloc.c:388
    23c2:	68fb      	ldr	r3, [r7, #12]
    23c4:	68ba      	ldr	r2, [r7, #8]
    23c6:	605a      	str	r2, [r3, #4]
/home/csx/share/gerrit/optee_os/lib/libutils/isoc/bget_malloc.c:389
    23c8:	68fb      	ldr	r3, [r7, #12]
    23ca:	2200      	movs	r2, #0
    23cc:	601a      	str	r2, [r3, #0]
/home/csx/share/gerrit/optee_os/lib/libutils/isoc/bget_malloc.c:392
    23ce:	687b      	ldr	r3, [r7, #4]
    23d0:	68ba      	ldr	r2, [r7, #8]
    23d2:	601a      	str	r2, [r3, #0]
/home/csx/share/gerrit/optee_os/lib/libutils/isoc/bget_malloc.c:395
    23d4:	4b24      	ldr	r3, [pc, #144]	; (2468 <create_free_block+0x118>)
    23d6:	447b      	add	r3, pc
    23d8:	68db      	ldr	r3, [r3, #12]
    23da:	689b      	ldr	r3, [r3, #8]
    23dc:	4a23      	ldr	r2, [pc, #140]	; (246c <create_free_block+0x11c>)
    23de:	447a      	add	r2, pc
    23e0:	4293      	cmp	r3, r2
    23e2:	d00b      	beq.n	23fc <create_free_block+0xac>
/home/csx/share/gerrit/optee_os/lib/libutils/isoc/bget_malloc.c:395 (discriminator 1)
    23e4:	4b22      	ldr	r3, [pc, #136]	; (2470 <create_free_block+0x120>)
    23e6:	447b      	add	r3, pc
    23e8:	4618      	mov	r0, r3
    23ea:	4b22      	ldr	r3, [pc, #136]	; (2474 <create_free_block+0x124>)
    23ec:	447b      	add	r3, pc
    23ee:	4619      	mov	r1, r3
    23f0:	f240 128b 	movw	r2, #395	; 0x18b
    23f4:	f7fe ff00 	bl	11f8 <_assert_log>
    23f8:	f7fe ff14 	bl	1224 <_assert_break>
/home/csx/share/gerrit/optee_os/lib/libutils/isoc/bget_malloc.c:396
    23fc:	4b1e      	ldr	r3, [pc, #120]	; (2478 <create_free_block+0x128>)
    23fe:	447b      	add	r3, pc
    2400:	689b      	ldr	r3, [r3, #8]
    2402:	68db      	ldr	r3, [r3, #12]
    2404:	4a1d      	ldr	r2, [pc, #116]	; (247c <create_free_block+0x12c>)
    2406:	447a      	add	r2, pc
    2408:	4293      	cmp	r3, r2
    240a:	d00b      	beq.n	2424 <create_free_block+0xd4>
/home/csx/share/gerrit/optee_os/lib/libutils/isoc/bget_malloc.c:396 (discriminator 1)
    240c:	4b1c      	ldr	r3, [pc, #112]	; (2480 <create_free_block+0x130>)
    240e:	447b      	add	r3, pc
    2410:	4618      	mov	r0, r3
    2412:	4b1c      	ldr	r3, [pc, #112]	; (2484 <create_free_block+0x134>)
    2414:	447b      	add	r3, pc
    2416:	4619      	mov	r1, r3
    2418:	f44f 72c6 	mov.w	r2, #396	; 0x18c
    241c:	f7fe feec 	bl	11f8 <_assert_log>
    2420:	f7fe ff00 	bl	1224 <_assert_break>
/home/csx/share/gerrit/optee_os/lib/libutils/isoc/bget_malloc.c:397
    2424:	68fb      	ldr	r3, [r7, #12]
    2426:	4a18      	ldr	r2, [pc, #96]	; (2488 <create_free_block+0x138>)
    2428:	447a      	add	r2, pc
    242a:	609a      	str	r2, [r3, #8]
/home/csx/share/gerrit/optee_os/lib/libutils/isoc/bget_malloc.c:398
